0000 00        nop     
0001 00        nop     
0002 00        nop     
0003 00        nop     
0004 00        nop     
0005 00        nop     
0006 00        nop     
0007 00        nop     
0008 00        nop     
0009 00        nop     
000a 00        nop     
000b 00        nop     
000c 00        nop     
000d 00        nop     
000e 00        nop     
000f 00        nop     
0010 00        nop     
0011 00        nop     
0012 00        nop     
0013 00        nop     
0014 00        nop     
0015 00        nop     
0016 00        nop     
0017 00        nop     
0018 00        nop     
0019 00        nop     
001a 00        nop     
001b 00        nop     
001c 00        nop     
001d 00        nop     
001e 00        nop     
001f 00        nop     
0020 00        nop     
0021 00        nop     
0022 00        nop     
0023 00        nop     
0024 00        nop     
0025 00        nop     
0026 00        nop     
0027 00        nop     
0028 00        nop     
0029 00        nop     
002a 00        nop     
002b 00        nop     
002c 00        nop     
002d 00        nop     
002e 00        nop     
002f 00        nop     
0030 00        nop     
0031 00        nop     
0032 00        nop     
0033 00        nop     
0034 00        nop     
0035 00        nop     
0036 00        nop     
0037 00        nop     
0038 00        nop     
0039 00        nop     
003a 00        nop     
003b 00        nop     
003c 00        nop     
003d 00        nop     
003e 00        nop     
003f 00        nop     
0040 00        nop     
0041 00        nop     
0042 00        nop     
0043 00        nop     
0044 00        nop     
0045 00        nop     
0046 00        nop     
0047 00        nop     
0048 00        nop     
0049 00        nop     
004a 00        nop     
004b 00        nop     
004c 00        nop     
004d 00        nop     
004e 00        nop     
004f 00        nop     
0050 00        nop     
0051 00        nop     
0052 00        nop     
0053 00        nop     
0054 00        nop     
0055 00        nop     
0056 00        nop     
0057 00        nop     
0058 00        nop     
0059 00        nop     
005a 00        nop     
005b 00        nop     
005c 00        nop     
005d 00        nop     
005e 00        nop     
005f 00        nop     
0060 00        nop     
0061 00        nop     
0062 00        nop     
0063 00        nop     
0064 00        nop     
0065 00        nop     
0066 00        nop     
0067 00        nop     
0068 00        nop     
0069 00        nop     
006a 00        nop     
006b 00        nop     
006c 00        nop     
006d 00        nop     
006e 00        nop     
006f 00        nop     
0070 00        nop     
0071 00        nop     
0072 00        nop     
0073 00        nop     
0074 00        nop     
0075 00        nop     
0076 00        nop     
0077 00        nop     
0078 00        nop     
0079 00        nop     
007a 00        nop     
007b 00        nop     
007c 00        nop     
007d 00        nop     
007e 00        nop     
007f 00        nop     
0080 00        nop     
0081 00        nop     
0082 00        nop     
0083 00        nop     
0084 00        nop     
0085 00        nop     
0086 00        nop     
0087 00        nop     
0088 00        nop     
0089 00        nop     
008a 00        nop     
008b 00        nop     
008c 00        nop     
008d 00        nop     
008e 00        nop     
008f 00        nop     
0090 00        nop     
0091 00        nop     
0092 00        nop     
0093 00        nop     
0094 00        nop     
0095 00        nop     
0096 00        nop     
0097 00        nop     
0098 00        nop     
0099 00        nop     
009a 00        nop     
009b 00        nop     
009c 00        nop     
009d 00        nop     
009e 00        nop     
009f 00        nop     
00a0 00        nop     
00a1 00        nop     
00a2 00        nop     
00a3 00        nop     
00a4 00        nop     
00a5 00        nop     
00a6 00        nop     
00a7 00        nop     
00a8 00        nop     
00a9 00        nop     
00aa 00        nop     
00ab 00        nop     
00ac 00        nop     
00ad 00        nop     
00ae 00        nop     
00af 00        nop     
00b0 00        nop     
00b1 00        nop     
00b2 00        nop     
00b3 00        nop     
00b4 00        nop     
00b5 00        nop     
00b6 00        nop     
00b7 00        nop     
00b8 00        nop     
00b9 00        nop     
00ba 00        nop     
00bb 00        nop     
00bc 00        nop     
00bd 00        nop     
00be 00        nop     
00bf 00        nop     
00c0 00        nop     
00c1 00        nop     
00c2 00        nop     
00c3 00        nop     
00c4 00        nop     
00c5 00        nop     
00c6 00        nop     
00c7 00        nop     
00c8 00        nop     
00c9 00        nop     
00ca 00        nop     
00cb 00        nop     
00cc 00        nop     
00cd 00        nop     
00ce 00        nop     
00cf 00        nop     
00d0 00        nop     
00d1 00        nop     
00d2 00        nop     
00d3 00        nop     
00d4 00        nop     
00d5 00        nop     
00d6 00        nop     
00d7 00        nop     
00d8 00        nop     
00d9 00        nop     
00da 00        nop     
00db 00        nop     
00dc 00        nop     
00dd 00        nop     
00de 00        nop     
00df 00        nop     
00e0 00        nop     
00e1 00        nop     
00e2 00        nop     
00e3 00        nop     
00e4 00        nop     
00e5 00        nop     
00e6 00        nop     
00e7 00        nop     
00e8 00        nop     
00e9 00        nop     
00ea 00        nop     
00eb 00        nop     
00ec 00        nop     
00ed 00        nop     
00ee 00        nop     
00ef 00        nop     
00f0 00        nop     
00f1 00        nop     
00f2 00        nop     
00f3 00        nop     
00f4 00        nop     
00f5 00        nop     
00f6 00        nop     
00f7 00        nop     
00f8 00        nop     
00f9 00        nop     
00fa 00        nop     
00fb 00        nop     
00fc 00        nop     
00fd 00        nop     
00fe 00        nop     
00ff 00        nop     
0100 00        nop     
0101 00        nop     
0102 00        nop     
0103 c36701    jp      0167h
0106 2020      jr      nz,0128h
0108 2056      jr      nz,0160h
010a 45        ld      b,l
010b 52        ld      d,d
010c 204c      jr      nz,015ah
010e 42        ld      b,d
010f 35        dec     (hl)
0110 2d        dec     l
0111 3031      jr      nc,0144h
0113 313030    ld      sp,3030h
0116 312f31    ld      sp,312fh
0119 24        inc     h
011a 2020      jr      nz,013ch
011c 2028      jr      nz,0146h
011e 63        ld      h,e
011f 29        add     hl,hl
0120 2031      jr      nz,0153h
0122 39        add     hl,sp
0123 39        add     hl,sp
0124 39        add     hl,sp
0125 2045      jr      nz,016ch
0127 2654      ld      h,54h
0129 53        ld      d,e
012a 2028      jr      nz,0154h
012c 2b        dec     hl
012d 47        ld      b,a
012e 52        ld      d,d
012f 45        ld      b,l
0130 45        ld      b,l
0131 4e        ld      c,(hl)
0132 42        ld      b,d
0133 41        ld      b,c
0134 4e        ld      c,(hl)
0135 4b        ld      c,e
0136 29        add     hl,hl
0137 2020      jr      nz,0159h
0139 2028      jr      nz,0163h
013b 63        ld      h,e
013c 29        add     hl,hl
013d 2031      jr      nz,0170h
013f 39        add     hl,sp
0140 39        add     hl,sp
0141 39        add     hl,sp
0142 2044      jr      nz,0188h
0144 61        ld      h,c
0145 76        halt    
0146 69        ld      l,c
0147 64        ld      h,h
0148 204d      jr      nz,0197h
014a 2050      jr      nz,019ch
014c 61        ld      h,c
014d 72        ld      (hl),d
014e 6b        ld      l,e
014f 69        ld      l,c
0150 6e        ld      l,(hl)
0151 73        ld      (hl),e
0152 3b        dec     sp
0153 204a      jr      nz,019fh
0155 6f        ld      l,a
0156 68        ld      l,b
0157 6e        ld      l,(hl)
0158 2057      jr      nz,01b1h
015a 2057      jr      nz,01b3h
015c 61        ld      h,c
015d 6c        ld      l,h
015e 6b        ld      l,e
015f 65        ld      h,l
0160 72        ld      (hl),d
0161 2020      jr      nz,0183h
0163 2020      jr      nz,0185h
0165 2020      jr      nz,0187h
0167 f3        di      
0168 08        ex      af,af'
0169 d9        exx     
016a af        xor     a
016b 010000    ld      bc,0000h
016e 110000    ld      de,0000h
0171 210000    ld      hl,0000h
0174 08        ex      af,af'
0175 d9        exx     
0176 0614      ld      b,14h
0178 48        ld      c,b
0179 06ff      ld      b,0ffh
017b 10fe      djnz    017bh
017d 41        ld      b,c
017e 10f8      djnz    0178h
0180 0641      ld      b,41h
0182 3a1f8b    ld      a,(8b1fh)
0185 10fb      djnz    0182h
0187 210f8b    ld      hl,8b0fh
018a 11108b    ld      de,8b10h
018d 015905    ld      bc,0559h
0190 3600      ld      (hl),00h
0192 edb0      ldir    
0194 37        scf     
0195 2100b0    ld      hl,0b000h
0198 116990    ld      de,9069h
019b ed52      sbc     hl,de
019d 44        ld      b,h
019e 4d        ld      c,l
019f 216990    ld      hl,9069h
01a2 116a90    ld      de,906ah
01a5 3600      ld      (hl),00h
01a7 edb0      ldir    
01a9 2138fa    ld      hl,0fa38h
01ac 1139fa    ld      de,0fa39h
01af 01c705    ld      bc,05c7h
01b2 3600      ld      (hl),00h
01b4 edb0      ldir    
01b6 21d14b    ld      hl,4bd1h
01b9 110f8b    ld      de,8b0fh
01bc 011000    ld      bc,0010h
01bf edb0      ldir    
01c1 21e14b    ld      hl,4be1h
01c4 115990    ld      de,9059h
01c7 011000    ld      bc,0010h
01ca edb0      ldir    
01cc 21f14b    ld      hl,4bf1h
01cf 11f0af    ld      de,0aff0h
01d2 011000    ld      bc,0010h
01d5 edb0      ldir    
01d7 21014c    ld      hl,4c01h
01da 1138fa    ld      de,0fa38h
01dd 011000    ld      bc,0010h
01e0 edb0      ldir    
01e2 31f0af    ld      sp,0aff0h
01e5 cde742    call    42e7h
01e8 2a3b80    ld      hl,(803bh)
01eb e5        push    hl
01ec cd4b38    call    384bh
01ef d1        pop     de
01f0 b7        or      a
01f1 ed52      sbc     hl,de
01f3 c4d830    call    nz,30d8h
01f6 cdfb0c    call    0cfbh
01f9 cd1143    call    4311h
01fc 00        nop     
01fd 00        nop     
01fe 00        nop     
01ff 2100c0    ld      hl,0c000h
0202 7e        ld      a,(hl)
0203 2f        cpl     
0204 320080    ld      (8000h),a
0207 be        cp      (hl)
0208 c22702    jp      nz,0227h
020b 21846f    ld      hl,6f84h
020e 11a780    ld      de,80a7h
0211 010900    ld      bc,0009h
0214 edb0      ldir    
0216 cd6a3b    call    3b6ah
0219 cd9c36    call    369ch
021c cdde10    call    10deh
021f 0608      ld      b,08h
0221 cd5c0f    call    0f5ch
0224 c3fc01    jp      01fch
0227 217ac0    ld      hl,0c07ah
022a cd8136    call    3681h
022d c23302    jp      nz,0233h
0230 cdb736    call    36b7h
0233 cd0039    call    3900h
0236 ca3f02    jp      z,023fh
0239 cd6f42    call    426fh
023c c3fc01    jp      01fch
023f cd2d2d    call    2d2dh
0242 cdef38    call    38efh
0245 ca5a02    jp      z,025ah
0248 cdde38    call    38deh
024b ca5402    jp      z,0254h
024e cdaf42    call    42afh
0251 c3fc01    jp      01fch
0254 cd8f42    call    428fh
0257 c3fc01    jp      01fch
025a cd9343    call    4393h
025d 00        nop     
025e 00        nop     
025f 00        nop     
0260 31f0af    ld      sp,0aff0h
0263 cd1438    call    3814h
0266 cda819    call    19a8h
0269 cdb139    call    39b1h
026c 00        nop     
026d cdb13f    call    3fb1h
0270 cd3b32    call    323bh
0273 d27e02    jp      nc,027eh
0276 3aae80    ld      a,(80aeh)
0279 fe90      cp      90h
027b c28402    jp      nz,0284h
027e cdde10    call    10deh
0281 c3d802    jp      02d8h
0284 cdbd12    call    12bdh
0287 cdc612    call    12c6h
028a cd0e13    call    130eh
028d cdb53a    call    3ab5h
0290 d29b02    jp      nc,029bh
0293 0603      ld      b,03h
0295 cd5c0f    call    0f5ch
0298 c3cf02    jp      02cfh
029b cd7c32    call    327ch
029e caa702    jp      z,02a7h
02a1 cd9132    call    3291h
02a4 c3d802    jp      02d8h
02a7 cdb116    call    16b1h
02aa d2b302    jp      nc,02b3h
02ad cdf116    call    16f1h
02b0 c3d802    jp      02d8h
02b3 cdce19    call    19ceh
02b6 cabf02    jp      z,02bfh
02b9 cd9319    call    1993h
02bc c3d802    jp      02d8h
02bf 3ac28b    ld      a,(8bc2h)
02c2 cb77      bit     6,a
02c4 2009      jr      nz,02cfh
02c6 cd1611    call    1116h
02c9 d2de02    jp      nc,02deh
02cc cd5e11    call    115eh
02cf cd2138    call    3821h
02d2 cd6217    call    1762h
02d5 cdf931    call    31f9h
02d8 cd2138    call    3821h
02db c3e102    jp      02e1h
02de cde21d    call    1de2h
02e1 dd21a780  ld      ix,80a7h
02e5 cd9831    call    3198h
02e8 caf502    jp      z,02f5h
02eb ddcb087e  bit     7,(ix+08h)
02ef cafc02    jp      z,02fch
02f2 c31c05    jp      051ch
02f5 ddcb087e  bit     7,(ix+08h)
02f9 ca1c05    jp      z,051ch
02fc cd7b38    call    387bh
02ff ca5d02    jp      z,025dh
0302 3ac28b    ld      a,(8bc2h)
0305 cb77      bit     6,a
0307 2810      jr      z,0319h
0309 cd990e    call    0e99h
030c cdf931    call    31f9h
030f 3ac28b    ld      a,(8bc2h)
0312 cb77      bit     6,a
0314 20f3      jr      nz,0309h
0316 c35d02    jp      025dh
0319 cdd00e    call    0ed0h
031c ca7403    jp      z,0374h
031f cdbf0e    call    0ebfh
0322 32408b    ld      (8b40h),a
0325 216c8b    ld      hl,8b6ch
0328 3600      ld      (hl),00h
032a fe53      cp      53h
032c c23a03    jp      nz,033ah
032f 3abb8b    ld      a,(8bbbh)
0332 cb47      bit     0,a
0334 c21b04    jp      nz,041bh
0337 c37103    jp      0371h
033a fe47      cp      47h
033c ca4903    jp      z,0349h
033f fe59      cp      59h
0341 ca4903    jp      z,0349h
0344 fe52      cp      52h
0346 c25403    jp      nz,0354h
0349 3abb8b    ld      a,(8bbbh)
034c cb47      bit     0,a
034e c27703    jp      nz,0377h
0351 c37103    jp      0371h
0354 3a408b    ld      a,(8b40h)
0357 fe2a      cp      2ah
0359 ca6103    jp      z,0361h
035c fe23      cp      23h
035e c26903    jp      nz,0369h
0361 3abb8b    ld      a,(8bbbh)
0364 cb47      bit     0,a
0366 cafd0a    jp      z,0afdh
0369 3a408b    ld      a,(8b40h)
036c fe43      cp      43h
036e ccf637    call    z,37f6h
0371 cdb139    call    39b1h
0374 c36c02    jp      026ch
0377 00        nop     
0378 cd2138    call    3821h
037b 21aa8f    ld      hl,8faah
037e 22e38b    ld      (8be3h),hl
0381 3e00      ld      a,00h
0383 32678b    ld      (8b67h),a
0386 cdd537    call    37d5h
0389 3a408b    ld      a,(8b40h)
038c 00        nop     
038d 216a8b    ld      hl,8b6ah
0390 fe53      cp      53h
0392 ca1b04    jp      z,041bh
0395 3602      ld      (hl),02h
0397 fe47      cp      47h
0399 caba03    jp      z,03bah
039c 3603      ld      (hl),03h
039e fe59      cp      59h
03a0 caba03    jp      z,03bah
03a3 3604      ld      (hl),04h
03a5 fe52      cp      52h
03a7 caba03    jp      z,03bah
03aa fe50      cp      50h
03ac caf904    jp      z,04f9h
03af fe43      cp      43h
03b1 cae104    jp      z,04e1h
03b4 cd920c    call    0c92h
03b7 c3f503    jp      03f5h
03ba 00        nop     
03bb cde937    call    37e9h
03be cdb139    call    39b1h
03c1 3a6a8b    ld      a,(8b6ah)
03c4 cdbe2d    call    2dbeh
03c7 3a6a8b    ld      a,(8b6ah)
03ca ed5be38b  ld      de,(8be3h)
03ce 12        ld      (de),a
03cf 13        inc     de
03d0 216d8b    ld      hl,8b6dh
03d3 010400    ld      bc,0004h
03d6 edb0      ldir    
03d8 2ae38b    ld      hl,(8be3h)
03db 23        inc     hl
03dc 23        inc     hl
03dd 23        inc     hl
03de 23        inc     hl
03df 23        inc     hl
03e0 22e38b    ld      (8be3h),hl
03e3 3a678b    ld      a,(8b67h)
03e6 fe05      cp      05h
03e8 d20e05    jp      nc,050eh
03eb 3c        inc     a
03ec 32678b    ld      (8b67h),a
03ef cdd537    call    37d5h
03f2 cdb139    call    39b1h
03f5 00        nop     
03f6 cdbe37    call    37beh
03f9 cde137    call    37e1h
03fc ca1205    jp      z,0512h
03ff cdd00e    call    0ed0h
0402 c21504    jp      nz,0415h
0405 3abf8b    ld      a,(8bbfh)
0408 cb77      bit     6,a
040a c25d02    jp      nz,025dh
040d cb7f      bit     7,a
040f caf503    jp      z,03f5h
0412 c35d02    jp      025dh
0415 cdbf0e    call    0ebfh
0418 c38c03    jp      038ch
041b 00        nop     
041c cdd70c    call    0cd7h
041f cdd537    call    37d5h
0422 cdb139    call    39b1h
0425 00        nop     
0426 cd7b38    call    387bh
0429 ca5d02    jp      z,025dh
042c cdbe37    call    37beh
042f cde137    call    37e1h
0432 ca1205    jp      z,0512h
0435 cdd00e    call    0ed0h
0438 ca2504    jp      z,0425h
043b 00        nop     
043c cdbf0e    call    0ebfh
043f 216c8b    ld      hl,8b6ch
0442 fe43      cp      43h
0444 caea04    jp      z,04eah
0447 3601      ld      (hl),01h
0449 fe47      cp      47h
044b ca6b04    jp      z,046bh
044e 3605      ld      (hl),05h
0450 fe59      cp      59h
0452 ca6b04    jp      z,046bh
0455 360a      ld      (hl),0ah
0457 fe52      cp      52h
0459 ca6b04    jp      z,046bh
045c cde10c    call    0ce1h
045f cdf836    call    36f8h
0462 cd920c    call    0c92h
0465 cdf836    call    36f8h
0468 c31b04    jp      041bh
046b 00        nop     
046c cdd537    call    37d5h
046f fd211690  ld      iy,9016h
0473 fd360004  ld      (iy+00h),04h
0477 115847    ld      de,4758h
047a d5        push    de
047b 114b47    ld      de,474bh
047e d5        push    de
047f 113e47    ld      de,473eh
0482 d5        push    de
0483 113147    ld      de,4731h
0486 d5        push    de
0487 0604      ld      b,04h
0489 21fcff    ld      hl,0fffch
048c 115515    ld      de,1555h
048f 78        ld      a,b
0490 fe01      cp      01h
0492 2006      jr      nz,049ah
0494 21fdff    ld      hl,0fffdh
0497 11b113    ld      de,13b1h
049a cd352e    call    2e35h
049d d1        pop     de
049e 19        add     hl,de
049f 7e        ld      a,(hl)
04a0 fd23      inc     iy
04a2 fd7700    ld      (iy+00h),a
04a5 10e2      djnz    0489h
04a7 fd211690  ld      iy,9016h
04ab cdf50b    call    0bf5h
04ae cdb139    call    39b1h
04b1 cd2138    call    3821h
04b4 cde937    call    37e9h
04b7 00        nop     
04b8 cd7b38    call    387bh
04bb ca5d02    jp      z,025dh
04be cdbe37    call    37beh
04c1 cde137    call    37e1h
04c4 ca1205    jp      z,0512h
04c7 cdd00e    call    0ed0h
04ca cab704    jp      z,04b7h
04cd 00        nop     
04ce cdbf0e    call    0ebfh
04d1 fe50      cp      50h
04d3 ca0205    jp      z,0502h
04d6 fe43      cp      43h
04d8 caea04    jp      z,04eah
04db cd920c    call    0c92h
04de c36b04    jp      046bh
04e1 cd2138    call    3821h
04e4 cdb60c    call    0cb6h
04e7 c35d02    jp      025dh
04ea cd2138    call    3821h
04ed cde10c    call    0ce1h
04f0 cdf836    call    36f8h
04f3 cdb60c    call    0cb6h
04f6 c35d02    jp      025dh
04f9 cd2138    call    3821h
04fc cd0a21    call    210ah
04ff c35d02    jp      025dh
0502 cd2138    call    3821h
0505 cde10c    call    0ce1h
0508 cd0a21    call    210ah
050b c35d02    jp      025dh
050e 00        nop     
050f c31205    jp      0512h
0512 00        nop     
0513 cd920c    call    0c92h
0516 cd2138    call    3821h
0519 c35d02    jp      025dh
051c 00        nop     
051d cd871e    call    1e87h
0520 dde5      push    ix
0522 dd21cf80  ld      ix,80cfh
0526 dd360000  ld      (ix+00h),00h
052a dd360100  ld      (ix+01h),00h
052e dd360200  ld      (ix+02h),00h
0532 dd360320  ld      (ix+03h),20h
0536 3aaf80    ld      a,(80afh)
0539 ee80      xor     80h
053b 32af80    ld      (80afh),a
053e cb7f      bit     7,a
0540 ca6005    jp      z,0560h
0543 ddcb08fe  set     7,(ix+08h)
0547 dd360319  ld      (ix+03h),19h
054b cdd70c    call    0cd7h
054e cde036    call    36e0h
0551 cde10c    call    0ce1h
0554 cdf236    call    36f2h
0557 cdd70c    call    0cd7h
055a cde036    call    36e0h
055d c36a05    jp      056ah
0560 ddcb08be  res     7,(ix+08h)
0564 cdd70c    call    0cd7h
0567 cdfe36    call    36feh
056a cde10c    call    0ce1h
056d cd311e    call    1e31h
0570 dde1      pop     ix
0572 c35d02    jp      025dh
0575 00        nop     
0576 cdb60c    call    0cb6h
0579 cdb139    call    39b1h
057c cde937    call    37e9h
057f 00        nop     
0580 cdd00e    call    0ed0h
0583 c29305    jp      nz,0593h
0586 3abf8b    ld      a,(8bbfh)
0589 cb7f      bit     7,a
058b ca7f05    jp      z,057fh
058e 3e43      ld      a,43h
0590 c39605    jp      0596h
0593 cdbf0e    call    0ebfh
0596 32408b    ld      (8b40h),a
0599 fe50      cp      50h
059b caa605    jp      z,05a6h
059e fe43      cp      43h
05a0 cae10a    jp      z,0ae1h
05a3 c37f05    jp      057fh
05a6 00        nop     
05a7 cdb60c    call    0cb6h
05aa cd2138    call    3821h
05ad cdd220    call    20d2h
05b0 c3d00a    jp      0ad0h
05b3 00        nop     
05b4 cdb60c    call    0cb6h
05b7 cdb139    call    39b1h
05ba cde937    call    37e9h
05bd 00        nop     
05be cdd00e    call    0ed0h
05c1 c2d105    jp      nz,05d1h
05c4 3abf8b    ld      a,(8bbfh)
05c7 cb7f      bit     7,a
05c9 cabd05    jp      z,05bdh
05cc 3e43      ld      a,43h
05ce c3d405    jp      05d4h
05d1 cdbf0e    call    0ebfh
05d4 32408b    ld      (8b40h),a
05d7 fe50      cp      50h
05d9 cae405    jp      z,05e4h
05dc fe43      cp      43h
05de cae10a    jp      z,0ae1h
05e1 c3bd05    jp      05bdh
05e4 00        nop     
05e5 cdb60c    call    0cb6h
05e8 cd2138    call    3821h
05eb cd6820    call    2068h
05ee c3d00a    jp      0ad0h
05f1 00        nop     
05f2 3abf8b    ld      a,(8bbfh)
05f5 cb77      bit     6,a
05f7 caff05    jp      z,05ffh
05fa cb7f      bit     7,a
05fc c21706    jp      nz,0617h
05ff cdb13f    call    3fb1h
0602 cd0a17    call    170ah
0605 da1706    jp      c,0617h
0608 cdb139    call    39b1h
060b cdde10    call    10deh
060e cd2138    call    3821h
0611 cdb139    call    39b1h
0614 c35d02    jp      025dh
0617 00        nop     
0618 cdb60c    call    0cb6h
061b cdb139    call    39b1h
061e 3e02      ld      a,02h
0620 32688b    ld      (8b68h),a
0623 00        nop     
0624 cdda39    call    39dah
0627 af        xor     a
0628 32628b    ld      (8b62h),a
062b cd9518    call    1895h
062e 3a408b    ld      a,(8b40h)
0631 fe43      cp      43h
0633 cae10a    jp      z,0ae1h
0636 3a9f8c    ld      a,(8c9fh)
0639 57        ld      d,a
063a 3aa08c    ld      a,(8ca0h)
063d 5f        ld      e,a
063e cd5636    call    3656h
0641 32408b    ld      (8b40h),a
0644 cd502d    call    2d50h
0647 c24d06    jp      nz,064dh
064a c36f06    jp      066fh
064d cdd11d    call    1dd1h
0650 21628b    ld      hl,8b62h
0653 34        inc     (hl)
0654 7e        ld      a,(hl)
0655 fe07      cp      07h
0657 c26806    jp      nz,0668h
065a 00        nop     
065b 3a688b    ld      a,(8b68h)
065e 3d        dec     a
065f ca9106    jp      z,0691h
0662 32688b    ld      (8b68h),a
0665 c37c06    jp      067ch
0668 00        nop     
0669 cdb139    call    39b1h
066c c32b06    jp      062bh
066f 00        nop     
0670 cd2138    call    3821h
0673 cd920c    call    0c92h
0676 cdb139    call    39b1h
0679 c35d02    jp      025dh
067c 00        nop     
067d cdb139    call    39b1h
0680 cdb60c    call    0cb6h
0683 21028c    ld      hl,8c02h
0686 110a8c    ld      de,8c0ah
0689 010700    ld      bc,0007h
068c edb0      ldir    
068e c32306    jp      0623h
0691 00        nop     
0692 0607      ld      b,07h
0694 21028c    ld      hl,8c02h
0697 110a8c    ld      de,8c0ah
069a cda912    call    12a9h
069d c2d70a    jp      nz,0ad7h
06a0 00        nop     
06a1 cdb60c    call    0cb6h
06a4 cde937    call    37e9h
06a7 00        nop     
06a8 cdd00e    call    0ed0h
06ab c2c006    jp      nz,06c0h
06ae 3abf8b    ld      a,(8bbfh)
06b1 cb77      bit     6,a
06b3 c2bb06    jp      nz,06bbh
06b6 cb7f      bit     7,a
06b8 caa706    jp      z,06a7h
06bb 3e43      ld      a,43h
06bd c3c306    jp      06c3h
06c0 cdbf0e    call    0ebfh
06c3 32408b    ld      (8b40h),a
06c6 fe50      cp      50h
06c8 cad306    jp      z,06d3h
06cb fe43      cp      43h
06cd cae10a    jp      z,0ae1h
06d0 c3a706    jp      06a7h
06d3 00        nop     
06d4 cd2138    call    3821h
06d7 21028c    ld      hl,8c02h
06da 11898b    ld      de,8b89h
06dd 010700    ld      bc,0007h
06e0 edb0      ldir    
06e2 cd652d    call    2d65h
06e5 cda822    call    22a8h
06e8 3abf8b    ld      a,(8bbfh)
06eb cb7f      bit     7,a
06ed c2ff06    jp      nz,06ffh
06f0 cd5e28    call    285eh
06f3 cda822    call    22a8h
06f6 cd5e28    call    285eh
06f9 cd6820    call    2068h
06fc cd5e28    call    285eh
06ff 0603      ld      b,03h
0701 cdf426    call    26f4h
0704 217180    ld      hl,8071h
0707 cbc6      set     0,(hl)
0709 00        nop     
070a c3d00a    jp      0ad0h
070d 00        nop     
070e 217180    ld      hl,8071h
0711 cb46      bit     0,(hl)
0713 c21c07    jp      nz,071ch
0716 cdf836    call    36f8h
0719 c36f06    jp      066fh
071c cdb60c    call    0cb6h
071f cdb139    call    39b1h
0722 cde937    call    37e9h
0725 00        nop     
0726 cdd00e    call    0ed0h
0729 c23907    jp      nz,0739h
072c 3abf8b    ld      a,(8bbfh)
072f cb7f      bit     7,a
0731 ca2507    jp      z,0725h
0734 3e43      ld      a,43h
0736 c33c07    jp      073ch
0739 cdbf0e    call    0ebfh
073c 32408b    ld      (8b40h),a
073f fe50      cp      50h
0741 ca4c07    jp      z,074ch
0744 fe43      cp      43h
0746 cae10a    jp      z,0ae1h
0749 c32507    jp      0725h
074c 00        nop     
074d cdb60c    call    0cb6h
0750 cd2138    call    3821h
0753 2a3f80    ld      hl,(803fh)
0756 224280    ld      (8042h),hl
0759 3a4180    ld      a,(8041h)
075c 324480    ld      (8044h),a
075f cda530    call    30a5h
0762 cd1b2d    call    2d1bh
0765 3abf8b    ld      a,(8bbfh)
0768 cb7f      bit     7,a
076a cad00a    jp      z,0ad0h
076d cdd61b    call    1bd6h
0770 cdfd18    call    18fdh
0773 c3d00a    jp      0ad0h
0776 00        nop     
0777 cdb60c    call    0cb6h
077a cdb139    call    39b1h
077d cdac20    call    20ach
0780 00        nop     
0781 3e01      ld      a,01h
0783 32688b    ld      (8b68h),a
0786 00        nop     
0787 cdda39    call    39dah
078a af        xor     a
078b 32628b    ld      (8b62h),a
078e cd9518    call    1895h
0791 3a408b    ld      a,(8b40h)
0794 fe43      cp      43h
0796 caf307    jp      z,07f3h
0799 3a9f8c    ld      a,(8c9fh)
079c 57        ld      d,a
079d 3aa08c    ld      a,(8ca0h)
07a0 5f        ld      e,a
07a1 cd5636    call    3656h
07a4 32408b    ld      (8b40h),a
07a7 cdd11d    call    1dd1h
07aa 21628b    ld      hl,8b62h
07ad 34        inc     (hl)
07ae 7e        ld      a,(hl)
07af fe05      cp      05h
07b1 c2c207    jp      nz,07c2h
07b4 00        nop     
07b5 3a688b    ld      a,(8b68h)
07b8 3d        dec     a
07b9 cac907    jp      z,07c9h
07bc 32688b    ld      (8b68h),a
07bf c37c06    jp      067ch
07c2 00        nop     
07c3 cdb139    call    39b1h
07c6 c38e07    jp      078eh
07c9 cdb60c    call    0cb6h
07cc cdb139    call    39b1h
07cf cde937    call    37e9h
07d2 00        nop     
07d3 cdd00e    call    0ed0h
07d6 c2e307    jp      nz,07e3h
07d9 3abf8b    ld      a,(8bbfh)
07dc cb7f      bit     7,a
07de cad207    jp      z,07d2h
07e1 3e43      ld      a,43h
07e3 cdbf0e    call    0ebfh
07e6 32408b    ld      (8b40h),a
07e9 fe50      cp      50h
07eb ca0608    jp      z,0806h
07ee fe43      cp      43h
07f0 c2d207    jp      nz,07d2h
07f3 00        nop     
07f4 cd2138    call    3821h
07f7 cdb60c    call    0cb6h
07fa cd1b2d    call    2d1bh
07fd cdbf20    call    20bfh
0800 cdb139    call    39b1h
0803 c35d02    jp      025dh
0806 00        nop     
0807 cd2138    call    3821h
080a cd143b    call    3b14h
080d 3a5890    ld      a,(9058h)
0810 b7        or      a
0811 ca2408    jp      z,0824h
0814 e60f      and     0fh
0816 f690      or      90h
0818 325790    ld      (9057h),a
081b cd920c    call    0c92h
081e cd441e    call    1e44h
0821 c3d70a    jp      0ad7h
0824 cdb60c    call    0cb6h
0827 cd1b2d    call    2d1bh
082a cdbf20    call    20bfh
082d cd2138    call    3821h
0830 c3e102    jp      02e1h
0833 00        nop     
0834 cdb60c    call    0cb6h
0837 cdb139    call    39b1h
083a cde937    call    37e9h
083d 00        nop     
083e cdd00e    call    0ed0h
0841 c25108    jp      nz,0851h
0844 3abf8b    ld      a,(8bbfh)
0847 cb7f      bit     7,a
0849 ca3d08    jp      z,083dh
084c 3e43      ld      a,43h
084e c35408    jp      0854h
0851 cdbf0e    call    0ebfh
0854 32408b    ld      (8b40h),a
0857 fe50      cp      50h
0859 ca6408    jp      z,0864h
085c fe43      cp      43h
085e cae10a    jp      z,0ae1h
0861 c33d08    jp      083dh
0864 00        nop     
0865 cdb60c    call    0cb6h
0868 cd2138    call    3821h
086b 3e00      ld      a,00h
086d cd7730    call    3077h
0870 cdce1f    call    1fceh
0873 21844f    ld      hl,4f84h
0876 cdfd39    call    39fdh
0879 21fa6c    ld      hl,6cfah
087c cdf61d    call    1df6h
087f 0604      ld      b,04h
0881 cdf426    call    26f4h
0884 cd1b2d    call    2d1bh
0887 c3d00a    jp      0ad0h
088a 00        nop     
088b cdb60c    call    0cb6h
088e cdb139    call    39b1h
0891 cde937    call    37e9h
0894 00        nop     
0895 cdd00e    call    0ed0h
0898 c2a808    jp      nz,08a8h
089b 3abf8b    ld      a,(8bbfh)
089e cb7f      bit     7,a
08a0 ca9408    jp      z,0894h
08a3 3e43      ld      a,43h
08a5 c3ab08    jp      08abh
08a8 cdbf0e    call    0ebfh
08ab 32408b    ld      (8b40h),a
08ae fe50      cp      50h
08b0 cabb08    jp      z,08bbh
08b3 fe43      cp      43h
08b5 cae10a    jp      z,0ae1h
08b8 c39408    jp      0894h
08bb 00        nop     
08bc cdb60c    call    0cb6h
08bf cd2138    call    3821h
08c2 3e01      ld      a,01h
08c4 cd7730    call    3077h
08c7 cdce1f    call    1fceh
08ca 21844f    ld      hl,4f84h
08cd cdfd39    call    39fdh
08d0 21fa6c    ld      hl,6cfah
08d3 cdf61d    call    1df6h
08d6 0604      ld      b,04h
08d8 cdf426    call    26f4h
08db cd1b2d    call    2d1bh
08de c3d00a    jp      0ad0h
08e1 00        nop     
08e2 cdb60c    call    0cb6h
08e5 cdb139    call    39b1h
08e8 cde937    call    37e9h
08eb 00        nop     
08ec cdd00e    call    0ed0h
08ef c2ff08    jp      nz,08ffh
08f2 3abf8b    ld      a,(8bbfh)
08f5 cb7f      bit     7,a
08f7 caeb08    jp      z,08ebh
08fa 3e43      ld      a,43h
08fc c30209    jp      0902h
08ff cdbf0e    call    0ebfh
0902 32408b    ld      (8b40h),a
0905 fe50      cp      50h
0907 ca1209    jp      z,0912h
090a fe43      cp      43h
090c cae10a    jp      z,0ae1h
090f c3eb08    jp      08ebh
0912 00        nop     
0913 cdb60c    call    0cb6h
0916 cd2138    call    3821h
0919 3e02      ld      a,02h
091b cd7730    call    3077h
091e cdce1f    call    1fceh
0921 21844f    ld      hl,4f84h
0924 cdfd39    call    39fdh
0927 21fa6c    ld      hl,6cfah
092a cdf61d    call    1df6h
092d 0604      ld      b,04h
092f cdf426    call    26f4h
0932 cd1b2d    call    2d1bh
0935 c3d00a    jp      0ad0h
0938 00        nop     
0939 cdb60c    call    0cb6h
093c cdb139    call    39b1h
093f cde937    call    37e9h
0942 00        nop     
0943 cdd00e    call    0ed0h
0946 c25609    jp      nz,0956h
0949 3abf8b    ld      a,(8bbfh)
094c cb7f      bit     7,a
094e ca4209    jp      z,0942h
0951 3e43      ld      a,43h
0953 c35909    jp      0959h
0956 cdbf0e    call    0ebfh
0959 32408b    ld      (8b40h),a
095c fe50      cp      50h
095e ca6909    jp      z,0969h
0961 fe43      cp      43h
0963 cae10a    jp      z,0ae1h
0966 c34209    jp      0942h
0969 00        nop     
096a cdb60c    call    0cb6h
096d cd2138    call    3821h
0970 3e03      ld      a,03h
0972 cd7730    call    3077h
0975 cdce1f    call    1fceh
0978 21844f    ld      hl,4f84h
097b cdfd39    call    39fdh
097e 21fa6c    ld      hl,6cfah
0981 cdf61d    call    1df6h
0984 0604      ld      b,04h
0986 cdf426    call    26f4h
0989 cd1b2d    call    2d1bh
098c c3d00a    jp      0ad0h
098f 00        nop     
0990 cdb60c    call    0cb6h
0993 cdb139    call    39b1h
0996 cde937    call    37e9h
0999 00        nop     
099a cdd00e    call    0ed0h
099d c2ad09    jp      nz,09adh
09a0 3abf8b    ld      a,(8bbfh)
09a3 cb7f      bit     7,a
09a5 ca9909    jp      z,0999h
09a8 3e43      ld      a,43h
09aa c3b009    jp      09b0h
09ad cdbf0e    call    0ebfh
09b0 32408b    ld      (8b40h),a
09b3 fe50      cp      50h
09b5 cac009    jp      z,09c0h
09b8 fe43      cp      43h
09ba cae10a    jp      z,0ae1h
09bd c39909    jp      0999h
09c0 00        nop     
09c1 cdb60c    call    0cb6h
09c4 cd2138    call    3821h
09c7 cd7c32    call    327ch
09ca cadc09    jp      z,09dch
09cd cda530    call    30a5h
09d0 cd6d11    call    116dh
09d3 cd8b2e    call    2e8bh
09d6 cddc1f    call    1fdch
09d9 c3df09    jp      09dfh
09dc cdef1f    call    1fefh
09df cd1b2d    call    2d1bh
09e2 c3d00a    jp      0ad0h
09e5 00        nop     
09e6 cdb60c    call    0cb6h
09e9 cdb139    call    39b1h
09ec cde937    call    37e9h
09ef 00        nop     
09f0 cdd00e    call    0ed0h
09f3 c2030a    jp      nz,0a03h
09f6 3abf8b    ld      a,(8bbfh)
09f9 cb7f      bit     7,a
09fb caef09    jp      z,09efh
09fe 3e43      ld      a,43h
0a00 c3060a    jp      0a06h
0a03 cdbf0e    call    0ebfh
0a06 32408b    ld      (8b40h),a
0a09 fe50      cp      50h
0a0b ca160a    jp      z,0a16h
0a0e fe43      cp      43h
0a10 cae10a    jp      z,0ae1h
0a13 c3ef09    jp      09efh
0a16 00        nop     
0a17 cdb60c    call    0cb6h
0a1a cd2138    call    3821h
0a1d cda530    call    30a5h
0a20 cd6d11    call    116dh
0a23 cd8b2e    call    2e8bh
0a26 cd5520    call    2055h
0a29 cd1b2d    call    2d1bh
0a2c c3d00a    jp      0ad0h
0a2f 00        nop     
0a30 cdb60c    call    0cb6h
0a33 cdb139    call    39b1h
0a36 cde937    call    37e9h
0a39 00        nop     
0a3a cdd00e    call    0ed0h
0a3d c24d0a    jp      nz,0a4dh
0a40 3abf8b    ld      a,(8bbfh)
0a43 cb7f      bit     7,a
0a45 ca390a    jp      z,0a39h
0a48 3e43      ld      a,43h
0a4a c3500a    jp      0a50h
0a4d cdbf0e    call    0ebfh
0a50 32408b    ld      (8b40h),a
0a53 fe50      cp      50h
0a55 ca600a    jp      z,0a60h
0a58 fe43      cp      43h
0a5a cae10a    jp      z,0ae1h
0a5d c3390a    jp      0a39h
0a60 00        nop     
0a61 cdb60c    call    0cb6h
0a64 cd2138    call    3821h
0a67 cd990e    call    0e99h
0a6a 21c28b    ld      hl,8bc2h
0a6d cbf6      set     6,(hl)
0a6f cd2820    call    2028h
0a72 cd1b2d    call    2d1bh
0a75 c3d00a    jp      0ad0h
0a78 00        nop     
0a79 cdb60c    call    0cb6h
0a7c cdb139    call    39b1h
0a7f cde937    call    37e9h
0a82 00        nop     
0a83 cdd00e    call    0ed0h
0a86 c2960a    jp      nz,0a96h
0a89 3abf8b    ld      a,(8bbfh)
0a8c cb7f      bit     7,a
0a8e ca820a    jp      z,0a82h
0a91 3e43      ld      a,43h
0a93 c3990a    jp      0a99h
0a96 cdbf0e    call    0ebfh
0a99 32408b    ld      (8b40h),a
0a9c fe50      cp      50h
0a9e caa90a    jp      z,0aa9h
0aa1 fe43      cp      43h
0aa3 cae10a    jp      z,0ae1h
0aa6 c3820a    jp      0a82h
0aa9 00        nop     
0aaa cd1d11    call    111dh
0aad dabf0a    jp      c,0abfh
0ab0 cdb139    call    39b1h
0ab3 cdde10    call    10deh
0ab6 cd2138    call    3821h
0ab9 cdb139    call    39b1h
0abc c35d02    jp      025dh
0abf cdb60c    call    0cb6h
0ac2 21c18b    ld      hl,8bc1h
0ac5 cbd6      set     2,(hl)
0ac7 cd3c20    call    203ch
0aca cd2138    call    3821h
0acd c3d00a    jp      0ad0h
0ad0 00        nop     
0ad1 cd2138    call    3821h
0ad4 c35d02    jp      025dh
0ad7 00        nop     
0ad8 cd2138    call    3821h
0adb cd920c    call    0c92h
0ade c35d02    jp      025dh
0ae1 00        nop     
0ae2 cd2138    call    3821h
0ae5 cdb60c    call    0cb6h
0ae8 c35d02    jp      025dh
0aeb 00        nop     
0aec cd2138    call    3821h
0aef cd920c    call    0c92h
0af2 3e99      ld      a,99h
0af4 325790    ld      (9057h),a
0af7 cd441e    call    1e44h
0afa c35d02    jp      025dh
0afd 00        nop     
0afe 3a408b    ld      a,(8b40h)
0b01 32028c    ld      (8c02h),a
0b04 cdb139    call    39b1h
0b07 af        xor     a
0b08 325790    ld      (9057h),a
0b0b cda418    call    18a4h
0b0e 3a408b    ld      a,(8b40h)
0b11 fe43      cp      43h
0b13 cae10a    jp      z,0ae1h
0b16 00        nop     
0b17 217505    ld      hl,0575h
0b1a 11904b    ld      de,4b90h
0b1d cdb310    call    10b3h
0b20 cadd0b    jp      z,0bddh
0b23 21b305    ld      hl,05b3h
0b26 11954b    ld      de,4b95h
0b29 cdb310    call    10b3h
0b2c cadd0b    jp      z,0bddh
0b2f 21f105    ld      hl,05f1h
0b32 119a4b    ld      de,4b9ah
0b35 cdb310    call    10b3h
0b38 cadd0b    jp      z,0bddh
0b3b 210d07    ld      hl,070dh
0b3e 119f4b    ld      de,4b9fh
0b41 cdb310    call    10b3h
0b44 cadd0b    jp      z,0bddh
0b47 217607    ld      hl,0776h
0b4a 11bd4b    ld      de,4bbdh
0b4d cdb310    call    10b3h
0b50 cadd0b    jp      z,0bddh
0b53 213308    ld      hl,0833h
0b56 11a94b    ld      de,4ba9h
0b59 cdb310    call    10b3h
0b5c cadd0b    jp      z,0bddh
0b5f 218a08    ld      hl,088ah
0b62 11ae4b    ld      de,4baeh
0b65 cdb310    call    10b3h
0b68 cadd0b    jp      z,0bddh
0b6b 21e108    ld      hl,08e1h
0b6e 11b34b    ld      de,4bb3h
0b71 cdb310    call    10b3h
0b74 cadd0b    jp      z,0bddh
0b77 213809    ld      hl,0938h
0b7a 11b84b    ld      de,4bb8h
0b7d cdb310    call    10b3h
0b80 cadd0b    jp      z,0bddh
0b83 212f0a    ld      hl,0a2fh
0b86 11cc4b    ld      de,4bcch
0b89 cdb310    call    10b3h
0b8c cadd0b    jp      z,0bddh
0b8f 21780a    ld      hl,0a78h
0b92 11a44b    ld      de,4ba4h
0b95 cdb310    call    10b3h
0b98 cadd0b    jp      z,0bddh
0b9b 218f09    ld      hl,098fh
0b9e 11c24b    ld      de,4bc2h
0ba1 cdb310    call    10b3h
0ba4 cadd0b    jp      z,0bddh
0ba7 21e509    ld      hl,09e5h
0baa 11c74b    ld      de,4bc7h
0bad cdb310    call    10b3h
0bb0 cadd0b    jp      z,0bddh
0bb3 cdd70a    call    0ad7h
0bb6 00        nop     
0bb7 cdd00e    call    0ed0h
0bba c2ca0b    jp      nz,0bcah
0bbd 3abf8b    ld      a,(8bbfh)
0bc0 cb77      bit     6,a
0bc2 cab60b    jp      z,0bb6h
0bc5 3e43      ld      a,43h
0bc7 c3cd0b    jp      0bcdh
0bca cdbf0e    call    0ebfh
0bcd 32408b    ld      (8b40h),a
0bd0 fe50      cp      50h
0bd2 caeb0a    jp      z,0aebh
0bd5 fe43      cp      43h
0bd7 cae10a    jp      z,0ae1h
0bda c3b60b    jp      0bb6h
0bdd 2aed8b    ld      hl,(8bedh)
0be0 e9        jp      (hl)
0be1 00        nop     
0be2 fd7e11    ld      a,(iy+11h)
0be5 d641      sub     41h
0be7 fe05      cp      05h
0be9 d0        ret     nc

0bea 57        ld      d,a
0beb 7d        ld      a,l
0bec 92        sub     d
0bed 27        daa     
0bee 6f        ld      l,a
0bef 7c        ld      a,h
0bf0 de00      sbc     a,00h
0bf2 27        daa     
0bf3 67        ld      h,a
0bf4 c9        ret     

0bf5 00        nop     
0bf6 21aa8f    ld      hl,8faah
0bf9 11ab8f    ld      de,8fabh
0bfc 015f00    ld      bc,005fh
0bff 3600      ld      (hl),00h
0c01 edb0      ldir    
0c03 110500    ld      de,0005h
0c06 21aa8f    ld      hl,8faah
0c09 3604      ld      (hl),04h
0c0b 19        add     hl,de
0c0c 0604      ld      b,04h
0c0e 3603      ld      (hl),03h
0c10 19        add     hl,de
0c11 10fb      djnz    0c0eh
0c13 0606      ld      b,06h
0c15 3602      ld      (hl),02h
0c17 19        add     hl,de
0c18 10fb      djnz    0c15h
0c1a 0608      ld      b,08h
0c1c 3601      ld      (hl),01h
0c1e 19        add     hl,de
0c1f 10fb      djnz    0c1ch
0c21 fde5      push    iy
0c23 fd23      inc     iy
0c25 213147    ld      hl,4731h
0c28 dd216647  ld      ix,4766h
0c2c cd560c    call    0c56h
0c2f fd23      inc     iy
0c31 213e47    ld      hl,473eh
0c34 dd216f47  ld      ix,476fh
0c38 cd560c    call    0c56h
0c3b fd23      inc     iy
0c3d 214b47    ld      hl,474bh
0c40 dd217847  ld      ix,4778h
0c44 cd560c    call    0c56h
0c47 fd23      inc     iy
0c49 215847    ld      hl,4758h
0c4c dd218147  ld      ix,4781h
0c50 cd560c    call    0c56h
0c53 fde1      pop     iy
0c55 c9        ret     

0c56 00        nop     
0c57 00        nop     
0c58 22e78b    ld      (8be7h),hl
0c5b 7e        ld      a,(hl)
0c5c fe00      cp      00h
0c5e ca910c    jp      z,0c91h
0c61 fdbe00    cp      (iy+00h)
0c64 ca6b0c    jp      z,0c6bh
0c67 23        inc     hl
0c68 c35b0c    jp      0c5bh
0c6b fde5      push    iy
0c6d 0609      ld      b,09h
0c6f fd21aa8f  ld      iy,8faah
0c73 dd5e00    ld      e,(ix+00h)
0c76 1600      ld      d,00h
0c78 fd19      add     iy,de
0c7a 7e        ld      a,(hl)
0c7b fd7700    ld      (iy+00h),a
0c7e 23        inc     hl
0c7f 7e        ld      a,(hl)
0c80 fe00      cp      00h
0c82 c2880c    jp      nz,0c88h
0c85 2ae78b    ld      hl,(8be7h)
0c88 dd23      inc     ix
0c8a 10e3      djnz    0c6fh
0c8c fde1      pop     iy
0c8e c3910c    jp      0c91h
0c91 c9        ret     

0c92 00        nop     
0c93 e5        push    hl
0c94 cdd70c    call    0cd7h
0c97 cdf836    call    36f8h
0c9a cde10c    call    0ce1h
0c9d cdf836    call    36f8h
0ca0 cdd70c    call    0cd7h
0ca3 cdf836    call    36f8h
0ca6 cde10c    call    0ce1h
0ca9 215d48    ld      hl,485dh
0cac 3abf8b    ld      a,(8bbfh)
0caf cb7f      bit     7,a
0cb1 c4352f    call    nz,2f35h
0cb4 e1        pop     hl
0cb5 c9        ret     

0cb6 e5        push    hl
0cb7 cdd70c    call    0cd7h
0cba cdf836    call    36f8h
0cbd cde10c    call    0ce1h
0cc0 216848    ld      hl,4868h
0cc3 3abf8b    ld      a,(8bbfh)
0cc6 cb7f      bit     7,a
0cc8 c4352f    call    nz,2f35h
0ccb e1        pop     hl
0ccc c9        ret     

0ccd cdd70c    call    0cd7h
0cd0 cde036    call    36e0h
0cd3 cde10c    call    0ce1h
0cd6 c9        ret     

0cd7 f5        push    af
0cd8 3a3f8b    ld      a,(8b3fh)
0cdb ee80      xor     80h
0cdd d334      out     (34h),a
0cdf f1        pop     af
0ce0 c9        ret     

0ce1 f5        push    af
0ce2 3a3f8b    ld      a,(8b3fh)
0ce5 d334      out     (34h),a
0ce7 f1        pop     af
0ce8 c9        ret     

0ce9 3a4c90    ld      a,(904ch)
0cec cb47      bit     0,a
0cee caf40c    jp      z,0cf4h
0cf1 cdcd0c    call    0ccdh
0cf4 c9        ret     

0cf5 214c90    ld      hl,904ch
0cf8 cb86      res     0,(hl)
0cfa c9        ret     

0cfb 214c90    ld      hl,904ch
0cfe cbc6      set     0,(hl)
0d00 c9        ret     

0d01 00        nop     
0d02 dde5      push    ix
0d04 fde5      push    iy
0d06 fd21b88b  ld      iy,8bb8h
0d0a dd360400  ld      (ix+04h),00h
0d0e dd216d8b  ld      ix,8b6dh
0d12 fdcb0086  res     0,(iy+00h)
0d16 dd7e01    ld      a,(ix+01h)
0d19 fe00      cp      00h
0d1b ca360d    jp      z,0d36h
0d1e ddbe00    cp      (ix+00h)
0d21 d2310d    jp      nc,0d31h
0d24 dd4600    ld      b,(ix+00h)
0d27 dd7700    ld      (ix+00h),a
0d2a dd7001    ld      (ix+01h),b
0d2d fdcb00c6  set     0,(iy+00h)
0d31 dd23      inc     ix
0d33 c3160d    jp      0d16h
0d36 fdcb0046  bit     0,(iy+00h)
0d3a c20e0d    jp      nz,0d0eh
0d3d fde1      pop     iy
0d3f dde1      pop     ix
0d41 c9        ret     

0d42 00        nop     
0d43 3abf8b    ld      a,(8bbfh)
0d46 cb7f      bit     7,a
0d48 ca5a0d    jp      z,0d5ah
0d4b cdf940    call    40f9h
0d4e ca980e    jp      z,0e98h
0d51 cdd61b    call    1bd6h
0d54 cdfd18    call    18fdh
0d57 c3980e    jp      0e98h
0d5a cd3a13    call    133ah
0d5d cdee40    call    40eeh
0d60 cd3a13    call    133ah
0d63 cd6d19    call    196dh
0d66 21d847    ld      hl,47d8h
0d69 cd352f    call    2f35h
0d6c cd8d38    call    388dh
0d6f c2780d    jp      nz,0d78h
0d72 21dd47    ld      hl,47ddh
0d75 cd352f    call    2f35h
0d78 cdb538    call    38b5h
0d7b 21e047    ld      hl,47e0h
0d7e fe00      cp      00h
0d80 cab60d    jp      z,0db6h
0d83 21ef47    ld      hl,47efh
0d86 fe01      cp      01h
0d88 cab60d    jp      z,0db6h
0d8b 21fe47    ld      hl,47feh
0d8e fe02      cp      02h
0d90 cab60d    jp      z,0db6h
0d93 210d48    ld      hl,480dh
0d96 fe03      cp      03h
0d98 cab60d    jp      z,0db6h
0d9b 211c48    ld      hl,481ch
0d9e fe04      cp      04h
0da0 cab60d    jp      z,0db6h
0da3 212b48    ld      hl,482bh
0da6 fe05      cp      05h
0da8 cab60d    jp      z,0db6h
0dab 213a48    ld      hl,483ah
0dae fe06      cp      06h
0db0 cab60d    jp      z,0db6h
0db3 214948    ld      hl,4849h
0db6 3ac28b    ld      a,(8bc2h)
0db9 cb77      bit     6,a
0dbb 2803      jr      z,0dc0h
0dbd 214948    ld      hl,4849h
0dc0 cd352f    call    2f35h
0dc3 cd5213    call    1352h
0dc6 3ac28b    ld      a,(8bc2h)
0dc9 cb77      bit     6,a
0dcb c44428    call    nz,2844h
0dce 062d      ld      b,2dh
0dd0 c5        push    bc
0dd1 cdf940    call    40f9h
0dd4 caee0d    jp      z,0deeh
0dd7 cd5713    call    1357h
0dda cdd70c    call    0cd7h
0ddd cd4813    call    1348h
0de0 cde10c    call    0ce1h
0de3 c1        pop     bc
0de4 10ea      djnz    0dd0h
0de6 3e0d      ld      a,0dh
0de8 cd5941    call    4159h
0deb c3310e    jp      0e31h
0dee c1        pop     bc
0def 21bf8b    ld      hl,8bbfh
0df2 cbfe      set     7,(hl)
0df4 cd3513    call    1335h
0df7 217d48    ld      hl,487dh
0dfa cd352f    call    2f35h
0dfd cd4b38    call    384bh
0e00 2a3b80    ld      hl,(803bh)
0e03 fd21268c  ld      iy,8c26h
0e07 cd022d    call    2d02h
0e0a 21268c    ld      hl,8c26h
0e0d cd352f    call    2f35h
0e10 218b48    ld      hl,488bh
0e13 cd352f    call    2f35h
0e16 219d48    ld      hl,489dh
0e19 cd352f    call    2f35h
0e1c 210901    ld      hl,0109h
0e1f cd352f    call    2f35h
0e22 219d48    ld      hl,489dh
0e25 cd352f    call    2f35h
0e28 217248    ld      hl,4872h
0e2b cd352f    call    2f35h
0e2e c3980e    jp      0e98h
0e31 cd6326    call    2663h
0e34 21c04c    ld      hl,4cc0h
0e37 cdfd39    call    39fdh
0e3a fd21128c  ld      iy,8c12h
0e3e 3a5a80    ld      a,(805ah)
0e41 cd2733    call    3327h
0e44 e5        push    hl
0e45 7c        ld      a,h
0e46 cd1434    call    3414h
0e49 fd7300    ld      (iy+00h),e
0e4c e1        pop     hl
0e4d 7d        ld      a,l
0e4e cd1434    call    3414h
0e51 fd7201    ld      (iy+01h),d
0e54 fd7302    ld      (iy+02h),e
0e57 fd360320  ld      (iy+03h),20h
0e5b fd360424  ld      (iy+04h),24h
0e5f 21128c    ld      hl,8c12h
0e62 cdfd39    call    39fdh
0e65 cde128    call    28e1h
0e68 cd3828    call    2838h
0e6b cdb13f    call    3fb1h
0e6e dd21a780  ld      ix,80a7h
0e72 cd0528    call    2805h
0e75 cd6428    call    2864h
0e78 cdf80e    call    0ef8h
0e7b 3abf8b    ld      a,(8bbfh)
0e7e cb77      bit     6,a
0e80 2810      jr      z,0e92h
0e82 21ce4c    ld      hl,4cceh
0e85 cdfd39    call    39fdh
0e88 dd21ed80  ld      ix,80edh
0e8c cd0528    call    2805h
0e8f cd5e28    call    285eh
0e92 cd5c26    call    265ch
0e95 cdfd18    call    18fdh
0e98 c9        ret     

0e99 00        nop     
0e9a cd2e42    call    422eh
0e9d cab00e    jp      z,0eb0h
0ea0 cd2041    call    4120h
0ea3 e5        push    hl
0ea4 21c28b    ld      hl,8bc2h
0ea7 cb76      bit     6,(hl)
0ea9 c4373a    call    nz,3a37h
0eac e1        pop     hl
0ead c3990e    jp      0e99h
0eb0 c9        ret     

0eb1 00        nop     
0eb2 cd3342    call    4233h
0eb5 cabe0e    jp      z,0ebeh
0eb8 cd9641    call    4196h
0ebb c3b10e    jp      0eb1h
0ebe c9        ret     

0ebf 00        nop     
0ec0 3abf8b    ld      a,(8bbfh)
0ec3 cb7f      bit     7,a
0ec5 c2cc0e    jp      nz,0ecch
0ec8 cdca39    call    39cah
0ecb c9        ret     

0ecc 3a438b    ld      a,(8b43h)
0ecf c9        ret     

0ed0 00        nop     
0ed1 3abf8b    ld      a,(8bbfh)
0ed4 cb7f      bit     7,a
0ed6 c2dd0e    jp      nz,0eddh
0ed9 cd3039    call    3930h
0edc c9        ret     

0edd cd2041    call    4120h
0ee0 32438b    ld      (8b43h),a
0ee3 cd5941    call    4159h
0ee6 cd6437    call    3764h
0ee9 caed0e    jp      z,0eedh
0eec c9        ret     

0eed cdf940    call    40f9h
0ef0 ccd61b    call    z,1bd6h
0ef3 cdfd18    call    18fdh
0ef6 af        xor     a
0ef7 c9        ret     

0ef8 00        nop     
0ef9 cdcf12    call    12cfh
0efc 215a80    ld      hl,805ah
0eff 7e        ld      a,(hl)
0f00 34        inc     (hl)
0f01 6f        ld      l,a
0f02 2600      ld      h,00h
0f04 110500    ld      de,0005h
0f07 cd0335    call    3503h
0f0a 215a80    ld      hl,805ah
0f0d 7b        ld      a,e
0f0e b2        or      d
0f0f ca180f    jp      z,0f18h
0f12 cd2731    call    3127h
0f15 c31b0f    jp      0f1bh
0f18 cd2031    call    3120h
0f1b cd1713    call    1317h
0f1e cd2013    call    1320h
0f21 c9        ret     

0f22 213f80    ld      hl,803fh
0f25 113690    ld      de,9036h
0f28 010300    ld      bc,0003h
0f2b edb0      ldir    
0f2d 114280    ld      de,8042h
0f30 213690    ld      hl,9036h
0f33 cd0733    call    3307h
0f36 c9        ret     

0f37 00        nop     
0f38 223690    ld      (9036h),hl
0f3b af        xor     a
0f3c 323890    ld      (9038h),a
0f3f 323990    ld      (9039h),a
0f42 eb        ex      de,hl
0f43 210f27    ld      hl,270fh
0f46 b7        or      a
0f47 ed52      sbc     hl,de
0f49 d2520f    jp      nc,0f52h
0f4c 210f27    ld      hl,270fh
0f4f 223690    ld      (9036h),hl
0f52 2a3690    ld      hl,(9036h)
0f55 cd4233    call    3342h
0f58 223690    ld      (9036h),hl
0f5b c9        ret     

0f5c 3abf8b    ld      a,(8bbfh)
0f5f cb7f      bit     7,a
0f61 c0        ret     nz

0f62 e5        push    hl
0f63 3abb8b    ld      a,(8bbbh)
0f66 f5        push    af
0f67 cb4f      bit     1,a
0f69 ca720f    jp      z,0f72h
0f6c cd2138    call    3821h
0f6f cdfe36    call    36feh
0f72 cde937    call    37e9h
0f75 cdd70c    call    0cd7h
0f78 cdf836    call    36f8h
0f7b cd2138    call    3821h
0f7e cde10c    call    0ce1h
0f81 cdf836    call    36f8h
0f84 10ec      djnz    0f72h
0f86 cdfe36    call    36feh
0f89 f1        pop     af
0f8a 32bb8b    ld      (8bbbh),a
0f8d cb4f      bit     1,a
0f8f c4fe36    call    nz,36feh
0f92 3abb8b    ld      a,(8bbbh)
0f95 cdfe37    call    37feh
0f98 e1        pop     hl
0f99 c9        ret     

0f9a 00        nop     
0f9b 3e00      ld      a,00h
0f9d 325690    ld      (9056h),a
0fa0 215b80    ld      hl,805bh
0fa3 111290    ld      de,9012h
0fa6 0604      ld      b,04h
0fa8 7e        ld      a,(hl)
0fa9 c600      add     a,00h
0fab 27        daa     
0fac 12        ld      (de),a
0fad 23        inc     hl
0fae 13        inc     de
0faf 10f7      djnz    0fa8h
0fb1 3aab80    ld      a,(80abh)
0fb4 e607      and     07h
0fb6 67        ld      h,a
0fb7 3ad380    ld      a,(80d3h)
0fba e607      and     07h
0fbc 94        sub     h
0fbd 2600      ld      h,00h
0fbf cad20f    jp      z,0fd2h
0fc2 2620      ld      h,20h
0fc4 fe01      cp      01h
0fc6 cad20f    jp      z,0fd2h
0fc9 2640      ld      h,40h
0fcb fe02      cp      02h
0fcd cad20f    jp      z,0fd2h
0fd0 2660      ld      h,60h
0fd2 2e00      ld      l,00h
0fd4 3e59      ld      a,59h
0fd6 85        add     a,l
0fd7 27        daa     
0fd8 320990    ld      (9009h),a
0fdb 3e19      ld      a,19h
0fdd 8c        adc     a,h
0fde 27        daa     
0fdf 320a90    ld      (900ah),a
0fe2 3e00      ld      a,00h
0fe4 ce00      adc     a,00h
0fe6 27        daa     
0fe7 320b90    ld      (900bh),a
0fea b7        or      a
0feb 2aa980    ld      hl,(80a9h)
0fee 3a0990    ld      a,(9009h)
0ff1 9d        sbc     a,l
0ff2 27        daa     
0ff3 320990    ld      (9009h),a
0ff6 3a0a90    ld      a,(900ah)
0ff9 9c        sbc     a,h
0ffa 27        daa     
0ffb 320a90    ld      (900ah),a
0ffe 3a0b90    ld      a,(900bh)
1001 de00      sbc     a,00h
1003 27        daa     
1004 320b90    ld      (900bh),a
1007 3e00      ld      a,00h
1009 320b90    ld      (900bh),a
100c d21410    jp      nc,1014h
100f 3eff      ld      a,0ffh
1011 325690    ld      (9056h),a
1014 210990    ld      hl,9009h
1017 0603      ld      b,03h
1019 7e        ld      a,(hl)
101a e60f      and     0fh
101c 5f        ld      e,a
101d ed6f      rld     
101f 83        add     a,e
1020 27        daa     
1021 77        ld      (hl),a
1022 23        inc     hl
1023 10f4      djnz    1019h
1025 c9        ret     

1026 00        nop     
1027 3a128c    ld      a,(8c12h)
102a d640      sub     40h
102c 3d        dec     a
102d fe05      cp      05h
102f d27510    jp      nc,1075h
1032 3c        inc     a
1033 320c90    ld      (900ch),a
1036 216d8b    ld      hl,8b6dh
1039 110d90    ld      de,900dh
103c 010400    ld      bc,0004h
103f edb0      ldir    
1041 210d90    ld      hl,900dh
1044 0604      ld      b,04h
1046 7e        ld      a,(hl)
1047 e60f      and     0fh
1049 5f        ld      e,a
104a ed6f      rld     
104c 83        add     a,e
104d 27        daa     
104e 77        ld      (hl),a
104f 23        inc     hl
1050 10f4      djnz    1046h
1052 210990    ld      hl,9009h
1055 0608      ld      b,08h
1057 3e00      ld      a,00h
1059 86        add     a,(hl)
105a 27        daa     
105b 23        inc     hl
105c 10fb      djnz    1059h
105e 47        ld      b,a
105f 3a0c90    ld      a,(900ch)
1062 3d        dec     a
1063 fe05      cp      05h
1065 da6a10    jp      c,106ah
1068 3e00      ld      a,00h
106a 5f        ld      e,a
106b 1600      ld      d,00h
106d 211190    ld      hl,9011h
1070 19        add     hl,de
1071 78        ld      a,b
1072 77        ld      (hl),a
1073 ed67      rrd     
1075 c9        ret     

1076 00        nop     
1077 af        xor     a
1078 32bd8b    ld      (8bbdh),a
107b cdb13f    call    3fb1h
107e cdb412    call    12b4h
1081 cde036    call    36e0h
1084 cdb13f    call    3fb1h
1087 21a780    ld      hl,80a7h
108a 3a208b    ld      a,(8b20h)
108d be        cp      (hl)
108e c2b210    jp      nz,10b2h
1091 3abd8b    ld      a,(8bbdh)
1094 cb47      bit     0,a
1096 c2ac10    jp      nz,10ach
1099 21846f    ld      hl,6f84h
109c 11a780    ld      de,80a7h
109f 010900    ld      bc,0009h
10a2 edb0      ldir    
10a4 cd6a3b    call    3b6ah
10a7 3e01      ld      a,01h
10a9 32bd8b    ld      (8bbdh),a
10ac cdde10    call    10deh
10af c30001    jp      0100h
10b2 c9        ret     

10b3 22ed8b    ld      (8bedh),hl
10b6 eb        ex      de,hl
10b7 22eb8b    ld      (8bebh),hl
10ba 0605      ld      b,05h
10bc 21028c    ld      hl,8c02h
10bf ed5beb8b  ld      de,(8bebh)
10c3 1a        ld      a,(de)
10c4 be        cp      (hl)
10c5 c2cd10    jp      nz,10cdh
10c8 13        inc     de
10c9 23        inc     hl
10ca 10f7      djnz    10c3h
10cc af        xor     a
10cd c9        ret     

10ce 00        nop     
10cf 3d        dec     a
10d0 e603      and     03h
10d2 c2d610    jp      nz,10d6h
10d5 3c        inc     a
10d6 3c        inc     a
10d7 c9        ret     

10d8 00        nop     
10d9 3d        dec     a
10da e603      and     03h
10dc 3c        inc     a
10dd c9        ret     

10de 00        nop     
10df 0604      ld      b,04h
10e1 cd5c0f    call    0f5ch
10e4 c9        ret     

10e5 00        nop     
10e6 dde5      push    ix
10e8 d5        push    de
10e9 11208b    ld      de,8b20h
10ec cd2f13    call    132fh
10ef dd21208b  ld      ix,8b20h
10f3 cdc132    call    32c1h
10f6 e1        pop     hl
10f7 112a8b    ld      de,8b2ah
10fa cd2f13    call    132fh
10fd dd212a8b  ld      ix,8b2ah
1101 cdc132    call    32c1h
1104 37        scf     
1105 112a8b    ld      de,8b2ah
1108 21208b    ld      hl,8b20h
110b 0609      ld      b,09h
110d 1a        ld      a,(de)
110e 9e        sbc     a,(hl)
110f 23        inc     hl
1110 13        inc     de
1111 10fa      djnz    110dh
1113 dde1      pop     ix
1115 c9        ret     

1116 00        nop     
1117 214519    ld      hl,1945h
111a c32111    jp      1121h
111d 00        nop     
111e 213021    ld      hl,2130h
1121 dde5      push    ix
1123 e5        push    hl
1124 cdb412    call    12b4h
1127 dd21208b  ld      ix,8b20h
112b cdc132    call    32c1h
112e cdf312    call    12f3h
1131 dd212a8b  ld      ix,8b2ah
1135 cdc132    call    32c1h
1138 21af80    ld      hl,80afh
113b cb7e      bit     7,(hl)
113d e1        pop     hl
113e ca4611    jp      z,1146h
1141 7c        ld      a,h
1142 d601      sub     01h
1144 27        daa     
1145 67        ld      h,a
1146 dd7502    ld      (ix+02h),l
1149 dd7403    ld      (ix+03h),h
114c 37        scf     
114d 112a8b    ld      de,8b2ah
1150 21208b    ld      hl,8b20h
1153 0609      ld      b,09h
1155 1a        ld      a,(de)
1156 9e        sbc     a,(hl)
1157 23        inc     hl
1158 13        inc     de
1159 10fa      djnz    1155h
115b dde1      pop     ix
115d c9        ret     

115e 00        nop     
115f 21bf8b    ld      hl,8bbfh
1162 cb46      bit     0,(hl)
1164 c26c11    jp      nz,116ch
1167 cbc6      set     0,(hl)
1169 cd1e1e    call    1e1eh
116c c9        ret     

116d 210000    ld      hl,0000h
1170 af        xor     a
1171 223d80    ld      (803dh),hl
1174 223f80    ld      (803fh),hl
1177 324180    ld      (8041h),a
117a 224280    ld      (8042h),hl
117d 324480    ld      (8044h),a
1180 224580    ld      (8045h),hl
1183 324780    ld      (8047h),a
1186 224880    ld      (8048h),hl
1189 c9        ret     

118a 00        nop     
118b cd6332    call    3263h
118e d2ca11    jp      nc,11cah
1191 21ed80    ld      hl,80edh
1194 cd9036    call    3690h
1197 c2ca11    jp      nz,11cah
119a cd6b32    call    326bh
119d d2b211    jp      nc,11b2h
11a0 21f780    ld      hl,80f7h
11a3 cd9036    call    3690h
11a6 c2b211    jp      nz,11b2h
11a9 cd9812    call    1298h
11ac c2f911    jp      nz,11f9h
11af c3f111    jp      11f1h
11b2 cd7332    call    3273h
11b5 d2f911    jp      nc,11f9h
11b8 210181    ld      hl,8101h
11bb cd9036    call    3690h
11be c2f911    jp      nz,11f9h
11c1 cd8f12    call    128fh
11c4 c2f911    jp      nz,11f9h
11c7 c3f111    jp      11f1h
11ca cd6b32    call    326bh
11cd d2f911    jp      nc,11f9h
11d0 21f780    ld      hl,80f7h
11d3 cd9036    call    3690h
11d6 c2f911    jp      nz,11f9h
11d9 cd7332    call    3273h
11dc d2f911    jp      nc,11f9h
11df 210181    ld      hl,8101h
11e2 cd9036    call    3690h
11e5 c2f911    jp      nz,11f9h
11e8 cda112    call    12a1h
11eb c2f911    jp      nz,11f9h
11ee cd2913    call    1329h
11f1 cd6332    call    3263h
11f4 d2f911    jp      nc,11f9h
11f7 af        xor     a
11f8 c9        ret     

11f9 cdde10    call    10deh
11fc f6ff      or      0ffh
11fe c9        ret     

11ff 00        nop     
1200 cd4332    call    3243h
1203 d23f12    jp      nc,123fh
1206 21b180    ld      hl,80b1h
1209 cd9036    call    3690h
120c c23f12    jp      nz,123fh
120f cd4b32    call    324bh
1212 d22712    jp      nc,1227h
1215 21bb80    ld      hl,80bbh
1218 cd9036    call    3690h
121b c22712    jp      nz,1227h
121e cd7412    call    1274h
1221 c26e12    jp      nz,126eh
1224 c36612    jp      1266h
1227 cd5332    call    3253h
122a d26e12    jp      nc,126eh
122d 21c580    ld      hl,80c5h
1230 cd9036    call    3690h
1233 c26e12    jp      nz,126eh
1236 cd7d12    call    127dh
1239 c26e12    jp      nz,126eh
123c c36612    jp      1266h
123f cd4b32    call    324bh
1242 d26e12    jp      nc,126eh
1245 21bb80    ld      hl,80bbh
1248 cd9036    call    3690h
124b c26e12    jp      nz,126eh
124e cd5332    call    3253h
1251 d26e12    jp      nc,126eh
1254 21c580    ld      hl,80c5h
1257 cd9036    call    3690h
125a c26e12    jp      nz,126eh
125d cd8612    call    1286h
1260 c26e12    jp      nz,126eh
1263 cd0e13    call    130eh
1266 cd4332    call    3243h
1269 d26e12    jp      nc,126eh
126c af        xor     a
126d c9        ret     

126e cdde10    call    10deh
1271 f6ff      or      0ffh
1273 c9        ret     

1274 21b180    ld      hl,80b1h
1277 11bb80    ld      de,80bbh
127a c3a712    jp      12a7h
127d 21b180    ld      hl,80b1h
1280 11c580    ld      de,80c5h
1283 c3a712    jp      12a7h
1286 21bb80    ld      hl,80bbh
1289 11c580    ld      de,80c5h
128c c3a712    jp      12a7h
128f 21ed80    ld      hl,80edh
1292 110181    ld      de,8101h
1295 c3a712    jp      12a7h
1298 21ed80    ld      hl,80edh
129b 11f780    ld      de,80f7h
129e c3a712    jp      12a7h
12a1 21f780    ld      hl,80f7h
12a4 110181    ld      de,8101h
12a7 0609      ld      b,09h
12a9 1a        ld      a,(de)
12aa be        cp      (hl)
12ab c2b312    jp      nz,12b3h
12ae 13        inc     de
12af 23        inc     hl
12b0 10f7      djnz    12a9h
12b2 af        xor     a
12b3 c9        ret     

12b4 21a780    ld      hl,80a7h
12b7 11208b    ld      de,8b20h
12ba c32f13    jp      132fh
12bd 21a780    ld      hl,80a7h
12c0 11bb80    ld      de,80bbh
12c3 c32f13    jp      132fh
12c6 21a780    ld      hl,80a7h
12c9 11c580    ld      de,80c5h
12cc c32f13    jp      132fh
12cf 21a780    ld      hl,80a7h
12d2 11ed80    ld      de,80edh
12d5 c32f13    jp      132fh
12d8 21cf80    ld      hl,80cfh
12db 11d980    ld      de,80d9h
12de c32f13    jp      132fh
12e1 21cf80    ld      hl,80cfh
12e4 11e380    ld      de,80e3h
12e7 c32f13    jp      132fh
12ea 21cf80    ld      hl,80cfh
12ed 11ed80    ld      de,80edh
12f0 c32f13    jp      132fh
12f3 21cf80    ld      hl,80cfh
12f6 112a8b    ld      de,8b2ah
12f9 c32f13    jp      132fh
12fc 21208b    ld      hl,8b20h
12ff 11cf80    ld      de,80cfh
1302 c32f13    jp      132fh
1305 21208b    ld      hl,8b20h
1308 11ed80    ld      de,80edh
130b c32f13    jp      132fh
130e 21bb80    ld      hl,80bbh
1311 11b180    ld      de,80b1h
1314 c32f13    jp      132fh
1317 21ed80    ld      hl,80edh
131a 11f780    ld      de,80f7h
131d c32f13    jp      132fh
1320 21ed80    ld      hl,80edh
1323 110181    ld      de,8101h
1326 c32f13    jp      132fh
1329 21f780    ld      hl,80f7h
132c 11ed80    ld      de,80edh
132f 010a00    ld      bc,000ah
1332 edb0      ldir    
1334 c9        ret     

1335 0601      ld      b,01h
1337 c33f13    jp      133fh
133a 0605      ld      b,05h
133c c33f13    jp      133fh
133f 00        nop     
1340 c5        push    bc
1341 cd5713    call    1357h
1344 c1        pop     bc
1345 10f8      djnz    133fh
1347 c9        ret     

1348 0601      ld      b,01h
134a c35c13    jp      135ch
134d 0614      ld      b,14h
134f c35c13    jp      135ch
1352 0632      ld      b,32h
1354 c35c13    jp      135ch
1357 0664      ld      b,64h
1359 c35c13    jp      135ch
135c 00        nop     
135d c5        push    bc
135e 06a0      ld      b,0a0h
1360 cd990e    call    0e99h
1363 cd990e    call    0e99h
1366 10f8      djnz    1360h
1368 c1        pop     bc
1369 10f1      djnz    135ch
136b c9        ret     

136c 00        nop     
136d dde5      push    ix
136f fde5      push    iy
1371 fd2100b0  ld      iy,0b000h
1375 fd22e58b  ld      (8be5h),iy
1379 fd7e00    ld      a,(iy+00h)
137c fe41      cp      41h
137e c28713    jp      nz,1387h
1381 cd0127    call    2701h
1384 c38c13    jp      138ch
1387 fe42      cp      42h
1389 cc0a27    call    z,270ah
138c 111300    ld      de,0013h
138f fd19      add     iy,de
1391 fde5      push    iy
1393 e1        pop     hl
1394 cdb51a    call    1ab5h
1397 d27513    jp      nc,1375h
139a fde1      pop     iy
139c dde1      pop     ix
139e c9        ret     

139f 00        nop     
13a0 00        nop     
13a1 dde5      push    ix
13a3 fde5      push    iy
13a5 3e58      ld      a,58h
13a7 cd7314    call    1473h
13aa e5        push    hl
13ab 3eff      ld      a,0ffh
13ad cd7314    call    1473h
13b0 e5        push    hl
13b1 3e80      ld      a,80h
13b3 cd7314    call    1473h
13b6 e5        push    hl
13b7 3e42      ld      a,42h
13b9 cd7314    call    1473h
13bc e5        push    hl
13bd 3e41      ld      a,41h
13bf cd7314    call    1473h
13c2 e5        push    hl
13c3 3e0a      ld      a,0ah
13c5 cd7314    call    1473h
13c8 e5        push    hl
13c9 3e05      ld      a,05h
13cb cd7314    call    1473h
13ce e5        push    hl
13cf 3e01      ld      a,01h
13d1 cd7314    call    1473h
13d4 e5        push    hl
13d5 3e04      ld      a,04h
13d7 cd7314    call    1473h
13da e5        push    hl
13db 3e03      ld      a,03h
13dd cd7314    call    1473h
13e0 e5        push    hl
13e1 3e02      ld      a,02h
13e3 cd7314    call    1473h
13e6 e5        push    hl
13e7 3e00      ld      a,00h
13e9 cd7314    call    1473h
13ec e5        push    hl
13ed e1        pop     hl
13ee 22818b    ld      (8b81h),hl
13f1 218a5e    ld      hl,5e8ah
13f4 cd6a14    call    146ah
13f7 e1        pop     hl
13f8 22818b    ld      (8b81h),hl
13fb 216f5e    ld      hl,5e6fh
13fe cd6a14    call    146ah
1401 e1        pop     hl
1402 22818b    ld      (8b81h),hl
1405 21545e    ld      hl,5e54h
1408 cd6a14    call    146ah
140b e1        pop     hl
140c 22818b    ld      (8b81h),hl
140f 21395e    ld      hl,5e39h
1412 cd6a14    call    146ah
1415 e1        pop     hl
1416 22818b    ld      (8b81h),hl
1419 211e5e    ld      hl,5e1eh
141c cd6a14    call    146ah
141f e1        pop     hl
1420 22818b    ld      (8b81h),hl
1423 21035e    ld      hl,5e03h
1426 cd6a14    call    146ah
1429 e1        pop     hl
142a 22818b    ld      (8b81h),hl
142d 21e85d    ld      hl,5de8h
1430 cd6a14    call    146ah
1433 e1        pop     hl
1434 22818b    ld      (8b81h),hl
1437 21cd5d    ld      hl,5dcdh
143a cd6a14    call    146ah
143d e1        pop     hl
143e 22818b    ld      (8b81h),hl
1441 21b25d    ld      hl,5db2h
1444 cd6a14    call    146ah
1447 e1        pop     hl
1448 22818b    ld      (8b81h),hl
144b 21975d    ld      hl,5d97h
144e cd6a14    call    146ah
1451 e1        pop     hl
1452 22818b    ld      (8b81h),hl
1455 217c5d    ld      hl,5d7ch
1458 cd6a14    call    146ah
145b e1        pop     hl
145c 22818b    ld      (8b81h),hl
145f 21615d    ld      hl,5d61h
1462 cd6a14    call    146ah
1465 fde1      pop     iy
1467 dde1      pop     ix
1469 c9        ret     

146a cdfd39    call    39fdh
146d 21a55e    ld      hl,5ea5h
1470 c3262a    jp      2a26h
1473 00        nop     
1474 326b8b    ld      (8b6bh),a
1477 210000    ld      hl,0000h
147a 22648b    ld      (8b64h),hl
147d fd21edaf  ld      iy,0afedh
1481 111300    ld      de,0013h
1484 fd19      add     iy,de
1486 fde5      push    iy
1488 e1        pop     hl
1489 cdb51a    call    1ab5h
148c dab514    jp      c,14b5h
148f 3a6b8b    ld      a,(8b6bh)
1492 fe80      cp      80h
1494 280b      jr      z,14a1h
1496 fe58      cp      58h
1498 2812      jr      z,14ach
149a fdbe00    cp      (iy+00h)
149d 280d      jr      z,14ach
149f 18e0      jr      1481h
14a1 fd7e00    ld      a,(iy+00h)
14a4 cb7f      bit     7,a
14a6 28d9      jr      z,1481h
14a8 feff      cp      0ffh
14aa 28d5      jr      z,1481h
14ac 2a648b    ld      hl,(8b64h)
14af 23        inc     hl
14b0 22648b    ld      (8b64h),hl
14b3 18cc      jr      1481h
14b5 2a648b    ld      hl,(8b64h)
14b8 c9        ret     

14b9 00        nop     
14ba dde5      push    ix
14bc fde5      push    iy
14be 210000    ld      hl,0000h
14c1 22648b    ld      (8b64h),hl
14c4 fd2100b0  ld      iy,0b000h
14c8 217b8b    ld      hl,8b7bh
14cb fd7e00    ld      a,(iy+00h)
14ce be        cp      (hl)
14cf c2d914    jp      nz,14d9h
14d2 2a648b    ld      hl,(8b64h)
14d5 23        inc     hl
14d6 22648b    ld      (8b64h),hl
14d9 111300    ld      de,0013h
14dc fd19      add     iy,de
14de fde5      push    iy
14e0 e1        pop     hl
14e1 cdb51a    call    1ab5h
14e4 d2c814    jp      nc,14c8h
14e7 cded28    call    28edh
14ea fde1      pop     iy
14ec dde1      pop     ix
14ee c9        ret     

14ef 00        nop     
14f0 dde5      push    ix
14f2 fde5      push    iy
14f4 210000    ld      hl,0000h
14f7 224e8b    ld      (8b4eh),hl
14fa 3ad380    ld      a,(80d3h)
14fd e607      and     07h
14ff fe04      cp      04h
1501 c20715    jp      nz,1507h
1504 224880    ld      (8048h),hl
1507 3e04      ld      a,04h
1509 327b8b    ld      (8b7bh),a
150c cdb914    call    14b9h
150f 210000    ld      hl,0000h
1512 22818b    ld      (8b81h),hl
1515 22838b    ld      (8b83h),hl
1518 22858b    ld      (8b85h),hl
151b 22878b    ld      (8b87h),hl
151e fd2100b0  ld      iy,0b000h
1522 3a7b8b    ld      a,(8b7bh)
1525 fdbe00    cp      (iy+00h)
1528 cc8115    call    z,1581h
152b 111300    ld      de,0013h
152e fd19      add     iy,de
1530 fde5      push    iy
1532 e1        pop     hl
1533 cdb51a    call    1ab5h
1536 d22215    jp      nc,1522h
1539 cd3e2a    call    2a3eh
153c cd3429    call    2934h
153f cd6428    call    2864h
1542 217b8b    ld      hl,8b7bh
1545 3e04      ld      a,04h
1547 be        cp      (hl)
1548 c25015    jp      nz,1550h
154b 3603      ld      (hl),03h
154d c30c15    jp      150ch
1550 3e03      ld      a,03h
1552 be        cp      (hl)
1553 c25b15    jp      nz,155bh
1556 3602      ld      (hl),02h
1558 ca0c15    jp      z,150ch
155b 3e02      ld      a,02h
155d be        cp      (hl)
155e c26615    jp      nz,1566h
1561 360a      ld      (hl),0ah
1563 ca0c15    jp      z,150ch
1566 3e0a      ld      a,0ah
1568 be        cp      (hl)
1569 c27115    jp      nz,1571h
156c 3605      ld      (hl),05h
156e ca0c15    jp      z,150ch
1571 3e05      ld      a,05h
1573 be        cp      (hl)
1574 c27c15    jp      nz,157ch
1577 3601      ld      (hl),01h
1579 ca0c15    jp      z,150ch
157c fde1      pop     iy
157e dde1      pop     ix
1580 c9        ret     

1581 00        nop     
1582 fd22e58b  ld      (8be5h),iy
1586 3a7b8b    ld      a,(8b7bh)
1589 fe02      cp      02h
158b ca9815    jp      z,1598h
158e fe03      cp      03h
1590 ca9815    jp      z,1598h
1593 fe04      cp      04h
1595 c2ff15    jp      nz,15ffh
1598 00        nop     
1599 fde5      push    iy
159b e1        pop     hl
159c cd8216    call    1682h
159f 3a7b8b    ld      a,(8b7bh)
15a2 d602      sub     02h
15a4 87        add     a,a
15a5 87        add     a,a
15a6 5f        ld      e,a
15a7 3a7e8b    ld      a,(8b7eh)
15aa cb5f      bit     3,a
15ac cab115    jp      z,15b1h
15af cbc3      set     0,e
15b1 cb9f      res     3,a
15b3 57        ld      d,a
15b4 3a7b8b    ld      a,(8b7bh)
15b7 ba        cp      d
15b8 c2bd15    jp      nz,15bdh
15bb cbcb      set     1,e
15bd 7b        ld      a,e
15be 43        ld      b,e
15bf e603      and     03h
15c1 00        nop     
15c2 21858b    ld      hl,8b85h
15c5 fe01      cp      01h
15c7 cadd15    jp      z,15ddh
15ca 21818b    ld      hl,8b81h
15cd fe02      cp      02h
15cf cadd15    jp      z,15ddh
15d2 21838b    ld      hl,8b83h
15d5 fe03      cp      03h
15d7 cadd15    jp      z,15ddh
15da 21878b    ld      hl,8b87h
15dd 5e        ld      e,(hl)
15de 23        inc     hl
15df 56        ld      d,(hl)
15e0 13        inc     de
15e1 72        ld      (hl),d
15e2 2b        dec     hl
15e3 73        ld      (hl),e
15e4 58        ld      e,b
15e5 cb23      sla     e
15e7 1600      ld      d,00h
15e9 218a47    ld      hl,478ah
15ec 19        add     hl,de
15ed 5e        ld      e,(hl)
15ee 23        inc     hl
15ef 56        ld      d,(hl)
15f0 7a        ld      a,d
15f1 b3        or      e
15f2 cafc15    jp      z,15fch
15f5 eb        ex      de,hl
15f6 cdfd39    call    39fdh
15f9 cd8427    call    2784h
15fc c33f16    jp      163fh
15ff cdf50b    call    0bf5h
1602 21aa8f    ld      hl,8faah
1605 060b      ld      b,0bh
1607 4e        ld      c,(hl)
1608 cd8216    call    1682h
160b 3e4c      ld      a,4ch
160d 90        sub     b
160e 32698b    ld      (8b69h),a
1611 3a7e8b    ld      a,(8b7eh)
1614 cb5f      bit     3,a
1616 c21f16    jp      nz,161fh
1619 cb9f      res     3,a
161b b9        cp      c
161c cc4016    call    z,1640h
161f 110500    ld      de,0005h
1622 19        add     hl,de
1623 10e2      djnz    1607h
1625 0608      ld      b,08h
1627 4e        ld      c,(hl)
1628 cd8216    call    1682h
162b 3e54      ld      a,54h
162d 90        sub     b
162e 32698b    ld      (8b69h),a
1631 3a7e8b    ld      a,(8b7eh)
1634 cb5f      bit     3,a
1636 c44016    call    nz,1640h
1639 110500    ld      de,0005h
163c 19        add     hl,de
163d 10e8      djnz    1627h
163f c9        ret     

1640 c5        push    bc
1641 e5        push    hl
1642 79        ld      a,c
1643 21878b    ld      hl,8b87h
1646 fe01      cp      01h
1648 ca5e16    jp      z,165eh
164b 21858b    ld      hl,8b85h
164e fe02      cp      02h
1650 ca5e16    jp      z,165eh
1653 21838b    ld      hl,8b83h
1656 fe03      cp      03h
1658 ca5e16    jp      z,165eh
165b 21818b    ld      hl,8b81h
165e 5e        ld      e,(hl)
165f 23        inc     hl
1660 56        ld      d,(hl)
1661 13        inc     de
1662 72        ld      (hl),d
1663 2b        dec     hl
1664 73        ld      (hl),e
1665 0d        dec     c
1666 3a7b8b    ld      a,(8b7bh)
1669 e60c      and     0ch
166b 81        add     a,c
166c 5f        ld      e,a
166d cb23      sla     e
166f 1600      ld      d,00h
1671 21a247    ld      hl,47a2h
1674 19        add     hl,de
1675 5e        ld      e,(hl)
1676 23        inc     hl
1677 56        ld      d,(hl)
1678 eb        ex      de,hl
1679 cdfd39    call    39fdh
167c cd8427    call    2784h
167f e1        pop     hl
1680 c1        pop     bc
1681 c9        ret     

1682 00        nop     
1683 c5        push    bc
1684 e5        push    hl
1685 3e00      ld      a,00h
1687 327e8b    ld      (8b7eh),a
168a 46        ld      b,(hl)
168b c5        push    bc
168c 23        inc     hl
168d dd21898b  ld      ix,8b89h
1691 0607      ld      b,07h
1693 e5        push    hl
1694 dd7e00    ld      a,(ix+00h)
1697 be        cp      (hl)
1698 c2a616    jp      nz,16a6h
169b 217e8b    ld      hl,8b7eh
169e 34        inc     (hl)
169f 78        ld      a,b
16a0 fe01      cp      01h
16a2 2002      jr      nz,16a6h
16a4 cbde      set     3,(hl)
16a6 e1        pop     hl
16a7 dd23      inc     ix
16a9 10e8      djnz    1693h
16ab c1        pop     bc
16ac 10dd      djnz    168bh
16ae e1        pop     hl
16af c1        pop     bc
16b0 c9        ret     

16b1 00        nop     
16b2 21be8b    ld      hl,8bbeh
16b5 cbde      set     3,(hl)
16b7 2a1980    ld      hl,(8019h)
16ba 11be00    ld      de,00beh
16bd 19        add     hl,de
16be eb        ex      de,hl
16bf 2125fa    ld      hl,0fa25h
16c2 b7        or      a
16c3 ed52      sbc     hl,de
16c5 dad716    jp      c,16d7h
16c8 21ffaf    ld      hl,0afffh
16cb b7        or      a
16cc ed52      sbc     hl,de
16ce 3f        ccf     
16cf dad716    jp      c,16d7h
16d2 21be8b    ld      hl,8bbeh
16d5 cb9e      res     3,(hl)
16d7 c9        ret     

16d8 00        nop     
16d9 21be8b    ld      hl,8bbeh
16dc cbd6      set     2,(hl)
16de 2a1980    ld      hl,(8019h)
16e1 111300    ld      de,0013h
16e4 19        add     hl,de
16e5 cdb51a    call    1ab5h
16e8 daf016    jp      c,16f0h
16eb 21be8b    ld      hl,8bbeh
16ee cb96      res     2,(hl)
16f0 c9        ret     

16f1 00        nop     
16f2 00        nop     
16f3 00        nop     
16f4 21bf8b    ld      hl,8bbfh
16f7 cb56      bit     2,(hl)
16f9 c20917    jp      nz,1709h
16fc cbd6      set     2,(hl)
16fe 0605      ld      b,05h
1700 cd5c0f    call    0f5ch
1703 cd741e    call    1e74h
1706 cdb139    call    39b1h
1709 c9        ret     

170a 00        nop     
170b dde5      push    ix
170d cdf312    call    12f3h
1710 dd212a8b  ld      ix,8b2ah
1714 cdc132    call    32c1h
1717 00        nop     
1718 3e01      ld      a,01h
171a dd8604    add     a,(ix+04h)
171d 27        daa     
171e fe08      cp      08h
1720 da2517    jp      c,1725h
1723 3e01      ld      a,01h
1725 dd7704    ld      (ix+04h),a
1728 3e01      ld      a,01h
172a dd8605    add     a,(ix+05h)
172d 27        daa     
172e dd7705    ld      (ix+05h),a
1731 cd1d18    call    181dh
1734 ddcb08be  res     7,(ix+08h)
1738 dd360309  ld      (ix+03h),09h
173c dd360230  ld      (ix+02h),30h
1740 dd21a780  ld      ix,80a7h
1744 cd9831    call    3198h
1747 dd212a8b  ld      ix,8b2ah
174b c25617    jp      nz,1756h
174e ddcb08fe  set     7,(ix+08h)
1752 dd360308  ld      (ix+03h),08h
1756 21a780    ld      hl,80a7h
1759 112a8b    ld      de,8b2ah
175c cde510    call    10e5h
175f dde1      pop     ix
1761 c9        ret     

1762 00        nop     
1763 21bf8b    ld      hl,8bbfh
1766 cbb6      res     6,(hl)
1768 cda138    call    38a1h
176b c27f17    jp      nz,177fh
176e cd1d11    call    111dh
1771 d27f17    jp      nc,177fh
1774 cd0a17    call    170ah
1777 da7f17    jp      c,177fh
177a 21bf8b    ld      hl,8bbfh
177d cbf6      set     6,(hl)
177f c9        ret     

1780 00        nop     
1781 00        nop     
1782 00        nop     
1783 dde5      push    ix
1785 00        nop     
1786 cdb412    call    12b4h
1789 dd21208b  ld      ix,8b20h
178d cda832    call    32a8h
1790 dd7e04    ld      a,(ix+04h)
1793 fe04      cp      04h
1795 dab717    jp      c,17b7h
1798 c2c017    jp      nz,17c0h
179b 110020    ld      de,2000h
179e ddcb087e  bit     7,(ix+08h)
17a2 caa717    jp      z,17a7h
17a5 1619      ld      d,19h
17a7 2a228b    ld      hl,(8b22h)
17aa b7        or      a
17ab ed52      sbc     hl,de
17ad dab717    jp      c,17b7h
17b0 0e07      ld      c,07h
17b2 3e03      ld      a,03h
17b4 c3e717    jp      17e7h
17b7 0e04      ld      c,04h
17b9 79        ld      a,c
17ba dd9604    sub     (ix+04h)
17bd c3e717    jp      17e7h
17c0 fe07      cp      07h
17c2 c2e117    jp      nz,17e1h
17c5 110020    ld      de,2000h
17c8 ddcb087e  bit     7,(ix+08h)
17cc cad117    jp      z,17d1h
17cf 1619      ld      d,19h
17d1 2a228b    ld      hl,(8b22h)
17d4 b7        or      a
17d5 ed52      sbc     hl,de
17d7 dae117    jp      c,17e1h
17da 0e04      ld      c,04h
17dc 3e04      ld      a,04h
17de c3e717    jp      17e7h
17e1 0e07      ld      c,07h
17e3 79        ld      a,c
17e4 dd9604    sub     (ix+04h)
17e7 dd8605    add     a,(ix+05h)
17ea 27        daa     
17eb dd7705    ld      (ix+05h),a
17ee c5        push    bc
17ef cd1d18    call    181dh
17f2 c1        pop     bc
17f3 dd7104    ld      (ix+04h),c
17f6 dd360200  ld      (ix+02h),00h
17fa dd360320  ld      (ix+03h),20h
17fe ddcb08be  res     7,(ix+08h)
1802 cd9831    call    3198h
1805 c21018    jp      nz,1810h
1808 dd360319  ld      (ix+03h),19h
180c ddcb08fe  set     7,(ix+08h)
1810 ddcb04e6  set     4,(ix+04h)
1814 dde5      push    ix
1816 e1        pop     hl
1817 cdc236    call    36c2h
181a dde1      pop     ix
181c c9        ret     

181d 00        nop     
181e cdeb3b    call    3bebh
1821 da5518    jp      c,1855h
1824 90        sub     b
1825 27        daa     
1826 c601      add     a,01h
1828 27        daa     
1829 dd7705    ld      (ix+05h),a
182c dd7e06    ld      a,(ix+06h)
182f c601      add     a,01h
1831 27        daa     
1832 dd7706    ld      (ix+06h),a
1835 fe13      cp      13h
1837 c25518    jp      nz,1855h
183a dd360601  ld      (ix+06h),01h
183e dd7e07    ld      a,(ix+07h)
1841 c601      add     a,01h
1843 27        daa     
1844 dd7707    ld      (ix+07h),a
1847 fe00      cp      00h
1849 c25518    jp      nz,1855h
184c dd7e08    ld      a,(ix+08h)
184f c601      add     a,01h
1851 27        daa     
1852 cd903c    call    3c90h
1855 c9        ret     

1856 d601      sub     01h
1858 27        daa     
1859 fe25      cp      25h
185b da9418    jp      c,1894h
185e dd7705    ld      (ix+05h),a
1861 dd7e06    ld      a,(ix+06h)
1864 d601      sub     01h
1866 27        daa     
1867 dd7706    ld      (ix+06h),a
186a c26f18    jp      nz,186fh
186d 3e12      ld      a,12h
186f dd7706    ld      (ix+06h),a
1872 c28c18    jp      nz,188ch
1875 dd7e07    ld      a,(ix+07h)
1878 d601      sub     01h
187a 27        daa     
187b dd7707    ld      (ix+07h),a
187e fe99      cp      99h
1880 c28c18    jp      nz,188ch
1883 dd7e08    ld      a,(ix+08h)
1886 d601      sub     01h
1888 27        daa     
1889 cd903c    call    3c90h
188c cdeb3b    call    3bebh
188f 80        add     a,b
1890 27        daa     
1891 dd7705    ld      (ix+05h),a
1894 c9        ret     

1895 00        nop     
1896 dde5      push    ix
1898 dd219f8c  ld      ix,8c9fh
189c 3e02      ld      a,02h
189e 32638b    ld      (8b63h),a
18a1 c3b018    jp      18b0h
18a4 00        nop     
18a5 dde5      push    ix
18a7 dd21038c  ld      ix,8c03h
18ab 3e04      ld      a,04h
18ad 32638b    ld      (8b63h),a
18b0 cdd00e    call    0ed0h
18b3 cabc18    jp      z,18bch
18b6 cdbf0e    call    0ebfh
18b9 c3c618    jp      18c6h
18bc 3abf8b    ld      a,(8bbfh)
18bf cb7f      bit     7,a
18c1 cab018    jp      z,18b0h
18c4 3e43      ld      a,43h
18c6 32408b    ld      (8b40h),a
18c9 fe43      cp      43h
18cb cafa18    jp      z,18fah
18ce cd392d    call    2d39h
18d1 c2e718    jp      nz,18e7h
18d4 cd920c    call    0c92h
18d7 3abf8b    ld      a,(8bbfh)
18da cb7f      bit     7,a
18dc caf418    jp      z,18f4h
18df 3e43      ld      a,43h
18e1 32408b    ld      (8b40h),a
18e4 cafa18    jp      z,18fah
18e7 dd7700    ld      (ix+00h),a
18ea dd23      inc     ix
18ec 21638b    ld      hl,8b63h
18ef 35        dec     (hl)
18f0 7e        ld      a,(hl)
18f1 cafa18    jp      z,18fah
18f4 cdb139    call    39b1h
18f7 c3b018    jp      18b0h
18fa dde1      pop     ix
18fc c9        ret     

18fd cdb13f    call    3fb1h
1900 21c18b    ld      hl,8bc1h
1903 cb56      bit     2,(hl)
1905 cb96      res     2,(hl)
1907 c40220    call    nz,2002h
190a 21c28b    ld      hl,8bc2h
190d cb76      bit     6,(hl)
190f cbb6      res     6,(hl)
1911 c41520    call    nz,2015h
1914 00        nop     
1915 21bf8b    ld      hl,8bbfh
1918 cbbe      res     7,(hl)
191a 21c047    ld      hl,47c0h
191d cd352f    call    2f35h
1920 cd3513    call    1335h
1923 cde940    call    40e9h
1926 cd990e    call    0e99h
1929 c9        ret     

192a 2a3d80    ld      hl,(803dh)
192d cd4719    call    1947h
1930 223d80    ld      (803dh),hl
1933 c9        ret     

1934 2a3f80    ld      hl,(803fh)
1937 cd4719    call    1947h
193a 223f80    ld      (803fh),hl
193d 3a4180    ld      a,(8041h)
1940 ce00      adc     a,00h
1942 27        daa     
1943 324180    ld      (8041h),a
1946 c9        ret     

1947 7d        ld      a,l
1948 c601      add     a,01h
194a 27        daa     
194b 6f        ld      l,a
194c 7c        ld      a,h
194d ce00      adc     a,00h
194f 27        daa     
1950 67        ld      h,a
1951 c9        ret     

1952 00        nop     
1953 213f8b    ld      hl,8b3fh
1956 cbee      set     5,(hl)
1958 7e        ld      a,(hl)
1959 d334      out     (34h),a
195b cde636    call    36e6h
195e 213f8b    ld      hl,8b3fh
1961 cbae      res     5,(hl)
1963 7e        ld      a,(hl)
1964 d334      out     (34h),a
1966 cd3419    call    1934h
1969 cde636    call    36e6h
196c c9        ret     

196d 00        nop     
196e 215848    ld      hl,4858h
1971 cd352f    call    2f35h
1974 cd5213    call    1352h
1977 21ba47    ld      hl,47bah
197a cd352f    call    2f35h
197d cd5213    call    1352h
1980 21c647    ld      hl,47c6h
1983 cd352f    call    2f35h
1986 cd4d13    call    134dh
1989 21ce47    ld      hl,47ceh
198c cd352f    call    2f35h
198f cd4d13    call    134dh
1992 c9        ret     

1993 00        nop     
1994 21bf8b    ld      hl,8bbfh
1997 cb4e      bit     1,(hl)
1999 c2a719    jp      nz,19a7h
199c cbce      set     1,(hl)
199e cdde10    call    10deh
19a1 cd0b1e    call    1e0bh
19a4 cdb139    call    39b1h
19a7 c9        ret     

19a8 00        nop     
19a9 21bc8b    ld      hl,8bbch
19ac cbc6      set     0,(hl)
19ae cd5b32    call    325bh
19b1 d2cd19    jp      nc,19cdh
19b4 3ad380    ld      a,(80d3h)
19b7 e607      and     07h
19b9 fe04      cp      04h
19bb cac319    jp      z,19c3h
19be fe07      cp      07h
19c0 c2cd19    jp      nz,19cdh
19c3 21bc8b    ld      hl,8bbch
19c6 cb86      res     0,(hl)
19c8 21bf8b    ld      hl,8bbfh
19cb cb8e      res     1,(hl)
19cd c9        ret     

19ce 00        nop     
19cf 21bc8b    ld      hl,8bbch
19d2 cb46      bit     0,(hl)
19d4 c9        ret     

19d5 2100b0    ld      hl,0b000h
19d8 1101b0    ld      de,0b001h
19db 01374a    ld      bc,4a37h
19de 36ff      ld      (hl),0ffh
19e0 edb0      ldir    
19e2 2100b0    ld      hl,0b000h
19e5 221980    ld      (8019h),hl
19e8 21be8b    ld      hl,8bbeh
19eb cb96      res     2,(hl)
19ed cb9e      res     3,(hl)
19ef c9        ret     

19f0 00        nop     
19f1 0612      ld      b,12h
19f3 af        xor     a
19f4 86        add     a,(hl)
19f5 23        inc     hl
19f6 10fc      djnz    19f4h
19f8 ed44      neg     
19fa c9        ret     

19fb 00        nop     
19fc 2100b0    ld      hl,0b000h
19ff cdf019    call    19f0h
1a02 be        cp      (hl)
1a03 ca101a    jp      z,1a10h
1a06 77        ld      (hl),a
1a07 b7        or      a
1a08 111200    ld      de,0012h
1a0b ed52      sbc     hl,de
1a0d cbfe      set     7,(hl)
1a0f 2b        dec     hl
1a10 23        inc     hl
1a11 cdb51a    call    1ab5h
1a14 d2ff19    jp      nc,19ffh
1a17 c9        ret     

1a18 00        nop     
1a19 fde5      push    iy
1a1b 21f08b    ld      hl,8bf0h
1a1e 11f18b    ld      de,8bf1h
1a21 011100    ld      bc,0011h
1a24 3600      ld      (hl),00h
1a26 edb0      ldir    
1a28 fd21ef8b  ld      iy,8befh
1a2c dd21a780  ld      ix,80a7h
1a30 fd7e00    ld      a,(iy+00h)
1a33 3d        dec     a
1a34 fe05      cp      05h
1a36 381b      jr      c,1a53h
1a38 3c        inc     a
1a39 fe0a      cp      0ah
1a3b 2816      jr      z,1a53h
1a3d fe42      cp      42h
1a3f 282c      jr      z,1a6dh
1a41 dd21b180  ld      ix,80b1h
1a45 fe41      cp      41h
1a47 2824      jr      z,1a6dh
1a49 dd21a780  ld      ix,80a7h
1a4d fd360000  ld      (iy+00h),00h
1a51 181a      jr      1a6dh
1a53 216d8b    ld      hl,8b6dh
1a56 11f08b    ld      de,8bf0h
1a59 010400    ld      bc,0004h
1a5c edb0      ldir    
1a5e 2a3d80    ld      hl,(803dh)
1a61 fd750f    ld      (iy+0fh),l
1a64 fd7410    ld      (iy+10h),h
1a67 3a128c    ld      a,(8c12h)
1a6a fd7711    ld      (iy+11h),a
1a6d dd7e02    ld      a,(ix+02h)
1a70 fd7709    ld      (iy+09h),a
1a73 dd7e03    ld      a,(ix+03h)
1a76 e63f      and     3fh
1a78 fd770a    ld      (iy+0ah),a
1a7b dd7e05    ld      a,(ix+05h)
1a7e fd770b    ld      (iy+0bh),a
1a81 dd7e06    ld      a,(ix+06h)
1a84 fd770c    ld      (iy+0ch),a
1a87 dd7e07    ld      a,(ix+07h)
1a8a fd770d    ld      (iy+0dh),a
1a8d dd7e08    ld      a,(ix+08h)
1a90 fd770e    ld      (iy+0eh),a
1a93 21ef8b    ld      hl,8befh
1a96 cdf019    call    19f0h
1a99 fd7712    ld      (iy+12h),a
1a9c fde1      pop     iy
1a9e c9        ret     

1a9f 00        nop     
1aa0 2a1980    ld      hl,(8019h)
1aa3 cdb51a    call    1ab5h
1aa6 221980    ld      (8019h),hl
1aa9 c9        ret     

1aaa 00        nop     
1aab 2a1080    ld      hl,(8010h)
1aae cdb51a    call    1ab5h
1ab1 221080    ld      (8010h),hl
1ab4 c9        ret     

1ab5 eb        ex      de,hl
1ab6 2125fa    ld      hl,0fa25h
1ab9 b7        or      a
1aba ed52      sbc     hl,de
1abc dacd1a    jp      c,1acdh
1abf 21ffaf    ld      hl,0afffh
1ac2 b7        or      a
1ac3 ed52      sbc     hl,de
1ac5 3f        ccf     
1ac6 dad31a    jp      c,1ad3h
1ac9 eb        ex      de,hl
1aca c3d61a    jp      1ad6h
1acd 2100b0    ld      hl,0b000h
1ad0 c3d61a    jp      1ad6h
1ad3 2125fa    ld      hl,0fa25h
1ad6 c9        ret     

1ad7 00        nop     
1ad8 32ef8b    ld      (8befh),a
1adb 21be8b    ld      hl,8bbeh
1ade cb56      bit     2,(hl)
1ae0 c20b1b    jp      nz,1b0bh
1ae3 cd181a    call    1a18h
1ae6 cd9f1a    call    1a9fh
1ae9 daec1a    jp      c,1aech
1aec eb        ex      de,hl
1aed 21ef8b    ld      hl,8befh
1af0 011300    ld      bc,0013h
1af3 edb0      ldir    
1af5 eb        ex      de,hl
1af6 e5        push    hl
1af7 cdb51a    call    1ab5h
1afa 221980    ld      (8019h),hl
1afd e1        pop     hl
1afe d20b1b    jp      nc,1b0bh
1b01 221980    ld      (8019h),hl
1b04 21be8b    ld      hl,8bbeh
1b07 cbd6      set     2,(hl)
1b09 cbde      set     3,(hl)
1b0b c9        ret     

1b0c 00        nop     
1b0d 012f00    ld      bc,002fh
1b10 214752    ld      hl,5247h
1b13 11b381    ld      de,81b3h
1b16 cdc81b    call    1bc8h
1b19 214a52    ld      hl,524ah
1b1c cdc81b    call    1bc8h
1b1f 214d52    ld      hl,524dh
1b22 cdc81b    call    1bc8h
1b25 215052    ld      hl,5250h
1b28 cdc81b    call    1bc8h
1b2b 011a00    ld      bc,001ah
1b2e 219c54    ld      hl,549ch
1b31 116f82    ld      de,826fh
1b34 cdc81b    call    1bc8h
1b37 21ad54    ld      hl,54adh
1b3a cdc81b    call    1bc8h
1b3d 21c154    ld      hl,54c1h
1b40 cdc81b    call    1bc8h
1b43 21c454    ld      hl,54c4h
1b46 cdc81b    call    1bc8h
1b49 012f00    ld      bc,002fh
1b4c 21c754    ld      hl,54c7h
1b4f 110b83    ld      de,830bh
1b52 cdc81b    call    1bc8h
1b55 21e954    ld      hl,54e9h
1b58 cdc81b    call    1bc8h
1b5b 21ec54    ld      hl,54ech
1b5e cdc81b    call    1bc8h
1b61 21ef54    ld      hl,54efh
1b64 cdc81b    call    1bc8h
1b67 011a00    ld      bc,001ah
1b6a 214868    ld      hl,6848h
1b6d 117387    ld      de,8773h
1b70 cdc81b    call    1bc8h
1b73 216168    ld      hl,6861h
1b76 cdc81b    call    1bc8h
1b79 012f00    ld      bc,002fh
1b7c 216268    ld      hl,6862h
1b7f 11c187    ld      de,87c1h
1b82 cdc81b    call    1bc8h
1b85 216568    ld      hl,6865h
1b88 cdc81b    call    1bc8h
1b8b 216668    ld      hl,6866h
1b8e cdc81b    call    1bc8h
1b91 216768    ld      hl,6867h
1b94 cdc81b    call    1bc8h
1b97 216868    ld      hl,6868h
1b9a cdc81b    call    1bc8h
1b9d 216968    ld      hl,6869h
1ba0 cdc81b    call    1bc8h
1ba3 216a68    ld      hl,686ah
1ba6 cdc81b    call    1bc8h
1ba9 219868    ld      hl,6898h
1bac cdc81b    call    1bc8h
1baf 21c668    ld      hl,68c6h
1bb2 cdc81b    call    1bc8h
1bb5 21f468    ld      hl,68f4h
1bb8 cdc81b    call    1bc8h
1bbb 212269    ld      hl,6922h
1bbe cdc81b    call    1bc8h
1bc1 215069    ld      hl,6950h
1bc4 cdc81b    call    1bc8h
1bc7 c9        ret     

1bc8 00        nop     
1bc9 e5        push    hl
1bca c5        push    bc
1bcb edb0      ldir    
1bcd c1        pop     bc
1bce e1        pop     hl
1bcf c9        ret     

1bd0 00        nop     
1bd1 3e00      ld      a,00h
1bd3 edb1      cpir    
1bd5 c9        ret     

1bd6 3e0d      ld      a,0dh
1bd8 cd5941    call    4159h
1bdb cdfe36    call    36feh
1bde cdfe36    call    36feh
1be1 3e2b      ld      a,2bh
1be3 cd5941    call    4159h
1be6 cdd436    call    36d4h
1be9 3e2b      ld      a,2bh
1beb cd5941    call    4159h
1bee cdd436    call    36d4h
1bf1 3e2b      ld      a,2bh
1bf3 cd5941    call    4159h
1bf6 cdd436    call    36d4h
1bf9 cdfe36    call    36feh
1bfc cdfe36    call    36feh
1bff cd990e    call    0e99h
1c02 c9        ret     

1c03 00        nop     
1c04 cdc426    call    26c4h
1c07 216870    ld      hl,7068h
1c0a dd21cf80  ld      ix,80cfh
1c0e cda83c    call    3ca8h
1c11 3ad380    ld      a,(80d3h)
1c14 e607      and     07h
1c16 fe04      cp      04h
1c18 010400    ld      bc,0004h
1c1b 215c54    ld      hl,545ch
1c1e ca2c1c    jp      z,1c2ch
1c21 215854    ld      hl,5458h
1c24 fe07      cp      07h
1c26 ca2c1c    jp      z,1c2ch
1c29 216054    ld      hl,5460h
1c2c 11418c    ld      de,8c41h
1c2f edb0      ldir    
1c31 213381    ld      hl,8133h
1c34 010700    ld      bc,0007h
1c37 edb0      ldir    
1c39 23        inc     hl
1c3a 23        inc     hl
1c3b 010200    ld      bc,0002h
1c3e edb0      ldir    
1c40 010b00    ld      bc,000bh
1c43 216454    ld      hl,5464h
1c46 edb0      ldir    
1c48 c9        ret     

1c49 00        nop     
1c4a dde5      push    ix
1c4c fde5      push    iy
1c4e 3a5690    ld      a,(9056h)
1c51 216f54    ld      hl,546fh
1c54 11708c    ld      de,8c70h
1c57 012d00    ld      bc,002dh
1c5a edb0      ldir    
1c5c 3a5690    ld      a,(9056h)
1c5f a7        and     a
1c60 c2a71c    jp      nz,1ca7h
1c63 dd211190  ld      ix,9011h
1c67 fd218e8c  ld      iy,8c8eh
1c6b dd7e00    ld      a,(ix+00h)
1c6e cdf733    call    33f7h
1c71 fd7200    ld      (iy+00h),d
1c74 fd7301    ld      (iy+01h),e
1c77 dd7e01    ld      a,(ix+01h)
1c7a cdf733    call    33f7h
1c7d fd7202    ld      (iy+02h),d
1c80 fd7304    ld      (iy+04h),e
1c83 dd7e02    ld      a,(ix+02h)
1c86 cdf733    call    33f7h
1c89 fd7205    ld      (iy+05h),d
1c8c fd7306    ld      (iy+06h),e
1c8f dd7e03    ld      a,(ix+03h)
1c92 cdf733    call    33f7h
1c95 fd7208    ld      (iy+08h),d
1c98 fd7309    ld      (iy+09h),e
1c9b dd7e04    ld      a,(ix+04h)
1c9e cdf733    call    33f7h
1ca1 fd720a    ld      (iy+0ah),d
1ca4 fd730b    ld      (iy+0bh),e
1ca7 fde1      pop     iy
1ca9 dde1      pop     ix
1cab c9        ret     

1cac 218f8b    ld      hl,8b8fh
1caf fd21128c  ld      iy,8c12h
1cb3 7e        ld      a,(hl)
1cb4 cd1434    call    3414h
1cb7 fd360020  ld      (iy+00h),20h
1cbb fd360120  ld      (iy+01h),20h
1cbf fd7202    ld      (iy+02h),d
1cc2 fd7303    ld      (iy+03h),e
1cc5 c9        ret     

1cc6 21898b    ld      hl,8b89h
1cc9 0606      ld      b,06h
1ccb c3d61c    jp      1cd6h
1cce 216d8b    ld      hl,8b6dh
1cd1 c3d41c    jp      1cd4h
1cd4 0607      ld      b,07h
1cd6 fd21128c  ld      iy,8c12h
1cda 7e        ld      a,(hl)
1cdb cd1434    call    3414h
1cde fd7200    ld      (iy+00h),d
1ce1 fd7301    ld      (iy+01h),e
1ce4 fd36022d  ld      (iy+02h),2dh
1ce8 23        inc     hl
1ce9 fd23      inc     iy
1ceb fd23      inc     iy
1ced fd23      inc     iy
1cef 10e9      djnz    1cdah
1cf1 fd36ff20  ld      (iy-01h),20h
1cf5 c9        ret     

1cf6 00        nop     
1cf7 fde5      push    iy
1cf9 d1        pop     de
1cfa 1b        dec     de
1cfb cd6322    call    2263h
1cfe caa51d    jp      z,1da5h
1d01 3a6c8b    ld      a,(8b6ch)
1d04 fe0a      cp      0ah
1d06 286c      jr      z,1d74h
1d08 fe05      cp      05h
1d0a 2837      jr      z,1d43h
1d0c fe01      cp      01h
1d0e 2802      jr      z,1d12h
1d10 1800      jr      1d12h
1d12 2ae38b    ld      hl,(8be3h)
1d15 7e        ld      a,(hl)
1d16 cdd810    call    10d8h
1d19 212153    ld      hl,5321h
1d1c 010800    ld      bc,0008h
1d1f fe04      cp      04h
1d21 cacb1d    jp      z,1dcbh
1d24 210653    ld      hl,5306h
1d27 010b00    ld      bc,000bh
1d2a fe03      cp      03h
1d2c cacb1d    jp      z,1dcbh
1d2f 21e552    ld      hl,52e5h
1d32 010e00    ld      bc,000eh
1d35 fe02      cp      02h
1d37 cacb1d    jp      z,1dcbh
1d3a 21af52    ld      hl,52afh
1d3d 011100    ld      bc,0011h
1d40 c3cb1d    jp      1dcbh
1d43 2ae38b    ld      hl,(8be3h)
1d46 7e        ld      a,(hl)
1d47 cdd810    call    10d8h
1d4a 212a53    ld      hl,532ah
1d4d 010800    ld      bc,0008h
1d50 fe04      cp      04h
1d52 cacb1d    jp      z,1dcbh
1d55 211253    ld      hl,5312h
1d58 010b00    ld      bc,000bh
1d5b fe03      cp      03h
1d5d cacb1d    jp      z,1dcbh
1d60 21f452    ld      hl,52f4h
1d63 010e00    ld      bc,000eh
1d66 fe02      cp      02h
1d68 cacb1d    jp      z,1dcbh
1d6b 21c152    ld      hl,52c1h
1d6e 011100    ld      bc,0011h
1d71 c3cb1d    jp      1dcbh
1d74 2ae38b    ld      hl,(8be3h)
1d77 7e        ld      a,(hl)
1d78 cdd810    call    10d8h
1d7b 213353    ld      hl,5333h
1d7e 010800    ld      bc,0008h
1d81 fe04      cp      04h
1d83 cacb1d    jp      z,1dcbh
1d86 211e53    ld      hl,531eh
1d89 010b00    ld      bc,000bh
1d8c fe03      cp      03h
1d8e cacb1d    jp      z,1dcbh
1d91 210353    ld      hl,5303h
1d94 010e00    ld      bc,000eh
1d97 fe02      cp      02h
1d99 cacb1d    jp      z,1dcbh
1d9c 21d352    ld      hl,52d3h
1d9f 011100    ld      bc,0011h
1da2 c3cb1d    jp      1dcbh
1da5 2ae38b    ld      hl,(8be3h)
1da8 7e        ld      a,(hl)
1da9 cdce10    call    10ceh
1dac 213353    ld      hl,5333h
1daf 010800    ld      bc,0008h
1db2 fe04      cp      04h
1db4 cacb1d    jp      z,1dcbh
1db7 211e53    ld      hl,531eh
1dba 010b00    ld      bc,000bh
1dbd fe03      cp      03h
1dbf cacb1d    jp      z,1dcbh
1dc2 210353    ld      hl,5303h
1dc5 010e00    ld      bc,000eh
1dc8 c3cb1d    jp      1dcbh
1dcb edb0      ldir    
1dcd 3e24      ld      a,24h
1dcf 12        ld      (de),a
1dd0 c9        ret     

1dd1 21028c    ld      hl,8c02h
1dd4 3a628b    ld      a,(8b62h)
1dd7 5f        ld      e,a
1dd8 1600      ld      d,00h
1dda 19        add     hl,de
1ddb 3a408b    ld      a,(8b40h)
1dde 77        ld      (hl),a
1ddf 00        nop     
1de0 00        nop     
1de1 c9        ret     

1de2 00        nop     
1de3 00        nop     
1de4 00        nop     
1de5 c3e81d    jp      1de8h
1de8 21bf8b    ld      hl,8bbfh
1deb cb46      bit     0,(hl)
1ded caf51d    jp      z,1df5h
1df0 cb86      res     0,(hl)
1df2 cd9920    call    2099h
1df5 c9        ret     

1df6 00        nop     
1df7 0640      ld      b,40h
1df9 5e        ld      e,(hl)
1dfa 23        inc     hl
1dfb 56        ld      d,(hl)
1dfc 7a        ld      a,d
1dfd b3        or      e
1dfe c8        ret     z

1dff 23        inc     hl
1e00 e5        push    hl
1e01 eb        ex      de,hl
1e02 c5        push    bc
1e03 cdfd39    call    39fdh
1e06 c1        pop     bc
1e07 e1        pop     hl
1e08 10ef      djnz    1df9h
1e0a c9        ret     

1e0b 00        nop     
1e0c cdaa26    call    26aah
1e0f 21414c    ld      hl,4c41h
1e12 cd8026    call    2680h
1e15 0604      ld      b,04h
1e17 cdf426    call    26f4h
1e1a cdb426    call    26b4h
1e1d c9        ret     

1e1e 00        nop     
1e1f cdaa26    call    26aah
1e22 21e54c    ld      hl,4ce5h
1e25 cd8026    call    2680h
1e28 0604      ld      b,04h
1e2a cdf426    call    26f4h
1e2d cdb426    call    26b4h
1e30 c9        ret     

1e31 00        nop     
1e32 cdaa26    call    26aah
1e35 21fd4c    ld      hl,4cfdh
1e38 cd8026    call    2680h
1e3b 0604      ld      b,04h
1e3d cdf426    call    26f4h
1e40 cdb426    call    26b4h
1e43 c9        ret     

1e44 00        nop     
1e45 cdaa26    call    26aah
1e48 21154d    ld      hl,4d15h
1e4b cd8026    call    2680h
1e4e cdbe26    call    26beh
1e51 fd21128c  ld      iy,8c12h
1e55 3a5790    ld      a,(9057h)
1e58 cd1434    call    3414h
1e5b fd7200    ld      (iy+00h),d
1e5e fd7301    ld      (iy+01h),e
1e61 fd360224  ld      (iy+02h),24h
1e65 216a6c    ld      hl,6c6ah
1e68 cdf61d    call    1df6h
1e6b 0604      ld      b,04h
1e6d cdf426    call    26f4h
1e70 cdb426    call    26b4h
1e73 c9        ret     

1e74 00        nop     
1e75 cdaa26    call    26aah
1e78 213f4d    ld      hl,4d3fh
1e7b cd8026    call    2680h
1e7e 0604      ld      b,04h
1e80 cdf426    call    26f4h
1e83 cdb426    call    26b4h
1e86 c9        ret     

1e87 00        nop     
1e88 cdaa26    call    26aah
1e8b 21574d    ld      hl,4d57h
1e8e cd8026    call    2680h
1e91 0604      ld      b,04h
1e93 cdf426    call    26f4h
1e96 cdb426    call    26b4h
1e99 c9        ret     

1e9a 00        nop     
1e9b cdc828    call    28c8h
1e9e cdaa26    call    26aah
1ea1 21846c    ld      hl,6c84h
1ea4 cdf61d    call    1df6h
1ea7 cdff11    call    11ffh
1eaa c2b41e    jp      nz,1eb4h
1ead dd21b180  ld      ix,80b1h
1eb1 cd0528    call    2805h
1eb4 cd6428    call    2864h
1eb7 3e41      ld      a,41h
1eb9 cdd71a    call    1ad7h
1ebc 21904d    ld      hl,4d90h
1ebf cdfd39    call    39fdh
1ec2 cdb13f    call    3fb1h
1ec5 dd21a780  ld      ix,80a7h
1ec9 cd0528    call    2805h
1ecc cd6428    call    2864h
1ecf 3e42      ld      a,42h
1ed1 cdd71a    call    1ad7h
1ed4 21a84d    ld      hl,4da8h
1ed7 cdfd39    call    39fdh
1eda cd8a11    call    118ah
1edd c2e71e    jp      nz,1ee7h
1ee0 dd21ed80  ld      ix,80edh
1ee4 cd0528    call    2805h
1ee7 cd6428    call    2864h
1eea cdd526    call    26d5h
1eed 21bd4d    ld      hl,4dbdh
1ef0 cdfd39    call    39fdh
1ef3 cd8d38    call    388dh
1ef6 21d64d    ld      hl,4dd6h
1ef9 ccfd39    call    z,39fdh
1efc 21f04d    ld      hl,4df0h
1eff c4fd39    call    nz,39fdh
1f02 cd9238    call    3892h
1f05 210a4e    ld      hl,4e0ah
1f08 ccfd39    call    z,39fdh
1f0b cd9738    call    3897h
1f0e 21244e    ld      hl,4e24h
1f11 ccfd39    call    z,39fdh
1f14 cd9c38    call    389ch
1f17 213e4e    ld      hl,4e3eh
1f1a ccfd39    call    z,39fdh
1f1d cda138    call    38a1h
1f20 21584e    ld      hl,4e58h
1f23 ccfd39    call    z,39fdh
1f26 21724e    ld      hl,4e72h
1f29 c4fd39    call    nz,39fdh
1f2c cda638    call    38a6h
1f2f 218c4e    ld      hl,4e8ch
1f32 ccfd39    call    z,39fdh
1f35 21a64e    ld      hl,4ea6h
1f38 c4fd39    call    nz,39fdh
1f3b cdab38    call    38abh
1f3e 21c04e    ld      hl,4ec0h
1f41 ccfd39    call    z,39fdh
1f44 21da4e    ld      hl,4edah
1f47 c4fd39    call    nz,39fdh
1f4a cdb038    call    38b0h
1f4d 21f44e    ld      hl,4ef4h
1f50 ccfd39    call    z,39fdh
1f53 210e4f    ld      hl,4f0eh
1f56 c4fd39    call    nz,39fdh
1f59 cdd526    call    26d5h
1f5c 00        nop     
1f5d 21284f    ld      hl,4f28h
1f60 cdfd39    call    39fdh
1f63 cdd70c    call    0cd7h
1f66 cdf836    call    36f8h
1f69 cde10c    call    0ce1h
1f6c cdf836    call    36f8h
1f6f 21564f    ld      hl,4f56h
1f72 cdfd39    call    39fdh
1f75 cdd70c    call    0cd7h
1f78 cd990e    call    0e99h
1f7b cdee40    call    40eeh
1f7e cd3a13    call    133ah
1f81 21c28b    ld      hl,8bc2h
1f84 cbf6      set     6,(hl)
1f86 cd6d19    call    196dh
1f89 21c28b    ld      hl,8bc2h
1f8c cbb6      res     6,(hl)
1f8e cd8e32    call    328eh
1f91 cde940    call    40e9h
1f94 cde10c    call    0ce1h
1f97 cd3039    call    3930h
1f9a cab11f    jp      z,1fb1h
1f9d 0609      ld      b,09h
1f9f cd5c0f    call    0f5ch
1fa2 21b04f    ld      hl,4fb0h
1fa5 cdfd39    call    39fdh
1fa8 21a048    ld      hl,48a0h
1fab cd0c30    call    300ch
1fae c30001    jp      0100h
1fb1 cdd526    call    26d5h
1fb4 00        nop     
1fb5 21844f    ld      hl,4f84h
1fb8 cdfd39    call    39fdh
1fbb 21fa6c    ld      hl,6cfah
1fbe cdf61d    call    1df6h
1fc1 cdd526    call    26d5h
1fc4 0604      ld      b,04h
1fc6 cdf426    call    26f4h
1fc9 cdb426    call    26b4h
1fcc 00        nop     
1fcd c9        ret     

1fce 00        nop     
1fcf cdaa26    call    26aah
1fd2 214e50    ld      hl,504eh
1fd5 cd8026    call    2680h
1fd8 cdb426    call    26b4h
1fdb c9        ret     

1fdc 00        nop     
1fdd cdaa26    call    26aah
1fe0 216650    ld      hl,5066h
1fe3 cd8026    call    2680h
1fe6 0604      ld      b,04h
1fe8 cdf426    call    26f4h
1feb cdb426    call    26b4h
1fee c9        ret     

1fef 00        nop     
1ff0 cdaa26    call    26aah
1ff3 217f50    ld      hl,507fh
1ff6 cd8026    call    2680h
1ff9 0604      ld      b,04h
1ffb cdf426    call    26f4h
1ffe cdb426    call    26b4h
2001 c9        ret     

2002 00        nop     
2003 cdaa26    call    26aah
2006 210e50    ld      hl,500eh
2009 cd8026    call    2680h
200c 0604      ld      b,04h
200e cdf426    call    26f4h
2011 cdb426    call    26b4h
2014 c9        ret     

2015 00        nop     
2016 cdaa26    call    26aah
2019 21f64f    ld      hl,4ff6h
201c cd8026    call    2680h
201f 0604      ld      b,04h
2021 cdf426    call    26f4h
2024 cdb426    call    26b4h
2027 c9        ret     

2028 00        nop     
2029 cdaa26    call    26aah
202c 219850    ld      hl,5098h
202f cd8026    call    2680h
2032 21b050    ld      hl,50b0h
2035 cdfd39    call    39fdh
2038 cdb426    call    26b4h
203b c9        ret     

203c 00        nop     
203d cdaa26    call    26aah
2040 21db50    ld      hl,50dbh
2043 cd8026    call    2680h
2046 212650    ld      hl,5026h
2049 cdfd39    call    39fdh
204c 0604      ld      b,04h
204e cdf426    call    26f4h
2051 cdb426    call    26b4h
2054 c9        ret     

2055 00        nop     
2056 cdaa26    call    26aah
2059 21de4f    ld      hl,4fdeh
205c cd8026    call    2680h
205f 0604      ld      b,04h
2061 cdf426    call    26f4h
2064 cdb426    call    26b4h
2067 c9        ret     

2068 00        nop     
2069 3abf8b    ld      a,(8bbfh)
206c cb7f      bit     7,a
206e c45526    call    nz,2655h
2071 cdaa26    call    26aah
2074 217c6d    ld      hl,6d7ch
2077 cdf61d    call    1df6h
207a cd3426    call    2634h
207d 21946d    ld      hl,6d94h
2080 cdf61d    call    1df6h
2083 cd1327    call    2713h
2086 21a46d    ld      hl,6da4h
2089 cdf61d    call    1df6h
208c 0604      ld      b,04h
208e cdf426    call    26f4h
2091 cdb426    call    26b4h
2094 00        nop     
2095 cd4e26    call    264eh
2098 c9        ret     

2099 00        nop     
209a cdaa26    call    26aah
209d 218d51    ld      hl,518dh
20a0 cd8026    call    2680h
20a3 0604      ld      b,04h
20a5 cdf426    call    26f4h
20a8 cdb426    call    26b4h
20ab c9        ret     

20ac 00        nop     
20ad cdaa26    call    26aah
20b0 21a551    ld      hl,51a5h
20b3 cd8026    call    2680h
20b6 0604      ld      b,04h
20b8 cdf426    call    26f4h
20bb cdb426    call    26b4h
20be c9        ret     

20bf 00        nop     
20c0 cdaa26    call    26aah
20c3 21bd51    ld      hl,51bdh
20c6 cd8026    call    2680h
20c9 0604      ld      b,04h
20cb cdf426    call    26f4h
20ce cdb426    call    26b4h
20d1 c9        ret     

20d2 00        nop     
20d3 cdaa26    call    26aah
20d6 210252    ld      hl,5202h
20d9 cd8026    call    2680h
20dc 21594c    ld      hl,4c59h
20df cdfd39    call    39fdh
20e2 21d551    ld      hl,51d5h
20e5 cdfd39    call    39fdh
20e8 cd6428    call    2864h
20eb 211a49    ld      hl,491ah
20ee cd952f    call    2f95h
20f1 cd6428    call    2864h
20f4 211a52    ld      hl,521ah
20f7 cdfd39    call    39fdh
20fa 21594c    ld      hl,4c59h
20fd cdfd39    call    39fdh
2100 0604      ld      b,04h
2102 cdf426    call    26f4h
2105 cdb426    call    26b4h
2108 00        nop     
2109 c9        ret     

210a 00        nop     
210b cdb13f    call    3fb1h
210e dd21a780  ld      ix,80a7h
2112 cdfd27    call    27fdh
2115 cdc828    call    28c8h
2118 cd2a19    call    192ah
211b cd852c    call    2c85h
211e cd9a0f    call    0f9ah
2121 cd031c    call    1c03h
2124 cdaa26    call    26aah
2127 cd6322    call    2263h
212a 2014      jr      nz,2140h
212c 00        nop     
212d 219e6c    ld      hl,6c9eh
2130 cdf61d    call    1df6h
2133 21678b    ld      hl,8b67h
2136 7e        ld      a,(hl)
2137 3d        dec     a
2138 d605      sub     05h
213a 3822      jr      c,215eh
213c 3605      ld      (hl),05h
213e 181e      jr      215eh
2140 00        nop     
2141 21146d    ld      hl,6d14h
2144 fe0a      cp      0ah
2146 280e      jr      z,2156h
2148 21ae6d    ld      hl,6daeh
214b fe05      cp      05h
214d 2807      jr      z,2156h
214f 21ee6d    ld      hl,6deeh
2152 fe01      cp      01h
2154 2800      jr      z,2156h
2156 cdf61d    call    1df6h
2159 21678b    ld      hl,8b67h
215c 3613      ld      (hl),13h
215e cdbe26    call    26beh
2161 fd21148c  ld      iy,8c14h
2165 3e41      ld      a,41h
2167 fd77fe    ld      (iy-02h),a
216a 21aa8f    ld      hl,8faah
216d 22e38b    ld      (8be3h),hl
2170 216d8b    ld      hl,8b6dh
2173 116e8b    ld      de,8b6eh
2176 010e00    ld      bc,000eh
2179 3600      ld      (hl),00h
217b edb0      ldir    
217d 2ae38b    ld      hl,(8be3h)
2180 7e        ld      a,(hl)
2181 cdd810    call    10d8h
2184 77        ld      (hl),a
2185 4f        ld      c,a
2186 0600      ld      b,00h
2188 23        inc     hl
2189 116d8b    ld      de,8b6dh
218c edb0      ldir    
218e cd010d    call    0d01h
2191 2ae38b    ld      hl,(8be3h)
2194 46        ld      b,(hl)
2195 216d8b    ld      hl,8b6dh
2198 cdda1c    call    1cdah
219b cdf61c    call    1cf6h
219e cddc26    call    26dch
21a1 21128c    ld      hl,8c12h
21a4 cdfd39    call    39fdh
21a7 cd6428    call    2864h
21aa cde126    call    26e1h
21ad cd2610    call    1026h
21b0 cd6322    call    2263h
21b3 2ae38b    ld      hl,(8be3h)
21b6 7e        ld      a,(hl)
21b7 ccd71a    call    z,1ad7h
21ba fd21148c  ld      iy,8c14h
21be fd7efe    ld      a,(iy-02h)
21c1 cdbe26    call    26beh
21c4 3c        inc     a
21c5 fd77fe    ld      (iy-02h),a
21c8 cd6322    call    2263h
21cb cc5219    call    z,1952h
21ce 21678b    ld      hl,8b67h
21d1 35        dec     (hl)
21d2 caf521    jp      z,21f5h
21d5 7e        ld      a,(hl)
21d6 fe08      cp      08h
21d8 c2e121    jp      nz,21e1h
21db 21ba6c    ld      hl,6cbah
21de cdf61d    call    1df6h
21e1 2ae38b    ld      hl,(8be3h)
21e4 23        inc     hl
21e5 23        inc     hl
21e6 23        inc     hl
21e7 23        inc     hl
21e8 23        inc     hl
21e9 22e38b    ld      (8be3h),hl
21ec cd6322    call    2263h
21ef cc2a19    call    z,192ah
21f2 c37021    jp      2170h
21f5 00        nop     
21f6 cd491c    call    1c49h
21f9 cd6322    call    2263h
21fc 2009      jr      nz,2207h
21fe 21c26c    ld      hl,6cc2h
2201 cdf61d    call    1df6h
2204 c35322    jp      2253h
2207 213a6d    ld      hl,6d3ah
220a cdf61d    call    1df6h
220d 21ab8f    ld      hl,8fabh
2210 116d8b    ld      de,8b6dh
2213 010400    ld      bc,0004h
2216 edb0      ldir    
2218 3e57      ld      a,57h
221a 32128c    ld      (8c12h),a
221d 3a6c8b    ld      a,(8b6ch)
2220 cdd71a    call    1ad7h
2223 3a6c8b    ld      a,(8b6ch)
2226 21626d    ld      hl,6d62h
2229 fe0a      cp      0ah
222b 280e      jr      z,223bh
222d 21d46d    ld      hl,6dd4h
2230 fe05      cp      05h
2232 2807      jr      z,223bh
2234 21146e    ld      hl,6e14h
2237 fe01      cp      01h
2239 2800      jr      z,223bh
223b cdf61d    call    1df6h
223e 3a6c8b    ld      a,(8b6ch)
2241 3d        dec     a
2242 2806      jr      z,224ah
2244 47        ld      b,a
2245 cd2a19    call    192ah
2248 10fb      djnz    2245h
224a 3a6c8b    ld      a,(8b6ch)
224d 47        ld      b,a
224e cd5219    call    1952h
2251 10fb      djnz    224eh
2253 00        nop     
2254 21e46c    ld      hl,6ce4h
2257 cdf61d    call    1df6h
225a 0605      ld      b,05h
225c cdf426    call    26f4h
225f cdb426    call    26b4h
2262 c9        ret     

2263 3a6c8b    ld      a,(8b6ch)
2266 fe00      cp      00h
2268 c9        ret     

2269 00        nop     
226a cdaa26    call    26aah
226d cd6a26    call    266ah
2270 cddc26    call    26dch
2273 210a5c    ld      hl,5c0ah
2276 cdfd39    call    39fdh
2279 cde126    call    26e1h
227c 21225c    ld      hl,5c22h
227f cdfd39    call    39fdh
2282 210901    ld      hl,0109h
2285 cdfd39    call    39fdh
2288 cd6428    call    2864h
228b 21375c    ld      hl,5c37h
228e cdfd39    call    39fdh
2291 0610      ld      b,10h
2293 218380    ld      hl,8083h
2296 cdff39    call    39ffh
2299 cd6428    call    2864h
229c cdd526    call    26d5h
229f 0604      ld      b,04h
22a1 cdf426    call    26f4h
22a4 cdb426    call    26b4h
22a7 c9        ret     

22a8 00        nop     
22a9 cdaa26    call    26aah
22ac 211c6e    ld      hl,6e1ch
22af cdf61d    call    1df6h
22b2 cd5526    call    2655h
22b5 21386e    ld      hl,6e38h
22b8 cdf61d    call    1df6h
22bb cd3426    call    2634h
22be 21426e    ld      hl,6e42h
22c1 cdf61d    call    1df6h
22c4 cd2426    call    2624h
22c7 fd21128c  ld      iy,8c12h
22cb 3a5a80    ld      a,(805ah)
22ce cd2733    call    3327h
22d1 e5        push    hl
22d2 7c        ld      a,h
22d3 cd1434    call    3414h
22d6 fd7300    ld      (iy+00h),e
22d9 e1        pop     hl
22da 7d        ld      a,l
22db cd1434    call    3414h
22de fd7201    ld      (iy+01h),d
22e1 fd7302    ld      (iy+02h),e
22e4 fd360324  ld      (iy+03h),24h
22e8 214a6e    ld      hl,6e4ah
22eb cdf61d    call    1df6h
22ee 21626e    ld      hl,6e62h
22f1 cdf61d    call    1df6h
22f4 cd9f13    call    139fh
22f7 216c6e    ld      hl,6e6ch
22fa cdf61d    call    1df6h
22fd cd6c13    call    136ch
2300 21766e    ld      hl,6e76h
2303 cdf61d    call    1df6h
2306 cd4e26    call    264eh
2309 217e6e    ld      hl,6e7eh
230c cdf61d    call    1df6h
230f cd3426    call    2634h
2312 218c5c    ld      hl,5c8ch
2315 cdfd39    call    39fdh
2318 cde128    call    28e1h
231b cd3828    call    2838h
231e dd21cf80  ld      ix,80cfh
2322 dd360200  ld      (ix+02h),00h
2326 dd360320  ld      (ix+03h),20h
232a ddcb087e  bit     7,(ix+08h)
232e ca3523    jp      z,2335h
2331 dd360319  ld      (ix+03h),19h
2335 cd0528    call    2805h
2338 cd6428    call    2864h
233b 21db5c    ld      hl,5cdbh
233e cdfd39    call    39fdh
2341 cdc32c    call    2cc3h
2344 21cc5c    ld      hl,5ccch
2347 cdfd39    call    39fdh
234a cdae2c    call    2caeh
234d 21d35c    ld      hl,5cd3h
2350 cdfd39    call    39fdh
2353 cd220f    call    0f22h
2356 cd9f2c    call    2c9fh
2359 cd6428    call    2864h
235c 219f5c    ld      hl,5c9fh
235f cdfd39    call    39fdh
2362 cddc26    call    26dch
2365 cdc61c    call    1cc6h
2368 0611      ld      b,11h
236a 21128c    ld      hl,8c12h
236d cdff39    call    39ffh
2370 cdac1c    call    1cach
2373 0604      ld      b,04h
2375 21128c    ld      hl,8c12h
2378 cdff39    call    39ffh
237b cd6428    call    2864h
237e cde126    call    26e1h
2381 cd6428    call    2864h
2384 3ad380    ld      a,(80d3h)
2387 e607      and     07h
2389 fe04      cp      04h
238b 114580    ld      de,8045h
238e ca9923    jp      z,2399h
2391 fe07      cp      07h
2393 11488b    ld      de,8b48h
2396 ca9923    jp      z,2399h
2399 af        xor     a
239a 12        ld      (de),a
239b 13        inc     de
239c 213690    ld      hl,9036h
239f 010200    ld      bc,0002h
23a2 edb0      ldir    
23a4 cdef14    call    14efh
23a7 cde72a    call    2ae7h
23aa 3ad380    ld      a,(80d3h)
23ad e607      and     07h
23af fe04      cp      04h
23b1 cabc23    jp      z,23bch
23b4 fe07      cp      07h
23b6 ca6724    jp      z,2467h
23b9 c36724    jp      2467h
23bc cd6428    call    2864h
23bf 21c364    ld      hl,64c3h
23c2 cdfd39    call    39fdh
23c5 cde128    call    28e1h
23c8 21e864    ld      hl,64e8h
23cb cdfd39    call    39fdh
23ce 21f664    ld      hl,64f6h
23d1 cdfd39    call    39fdh
23d4 dd21cf80  ld      ix,80cfh
23d8 cd2b28    call    282bh
23db 210c65    ld      hl,650ch
23de cdfd39    call    39fdh
23e1 00        nop     
23e2 211765    ld      hl,6517h
23e5 cdfd39    call    39fdh
23e8 214165    ld      hl,6541h
23eb cdfd39    call    39fdh
23ee 215f65    ld      hl,655fh
23f1 cdfd39    call    39fdh
23f4 dd214580  ld      ix,8045h
23f8 cd3e2c    call    2c3eh
23fb 216965    ld      hl,6569h
23fe cdfd39    call    39fdh
2401 217165    ld      hl,6571h
2404 cdfd39    call    39fdh
2407 215f65    ld      hl,655fh
240a cdfd39    call    39fdh
240d dd21538b  ld      ix,8b53h
2411 cd3e2c    call    2c3eh
2414 218f65    ld      hl,658fh
2417 cdfd39    call    39fdh
241a 219765    ld      hl,6597h
241d cdfd39    call    39fdh
2420 215f65    ld      hl,655fh
2423 cdfd39    call    39fdh
2426 dd21508b  ld      ix,8b50h
242a cd3e2c    call    2c3eh
242d 218f65    ld      hl,658fh
2430 cdfd39    call    39fdh
2433 21b565    ld      hl,65b5h
2436 cdfd39    call    39fdh
2439 21e265    ld      hl,65e2h
243c cdfd39    call    39fdh
243f dd21598b  ld      ix,8b59h
2443 cd3e2c    call    2c3eh
2446 3ab58b    ld      a,(8bb5h)
2449 cd4a28    call    284ah
244c 21b565    ld      hl,65b5h
244f cdfd39    call    39fdh
2452 210466    ld      hl,6604h
2455 cdfd39    call    39fdh
2458 213166    ld      hl,6631h
245b cdfd39    call    39fdh
245e 215e66    ld      hl,665eh
2461 cdfd39    call    39fdh
2464 c30526    jp      2605h
2467 cd6428    call    2864h
246a 218b66    ld      hl,668bh
246d cdfd39    call    39fdh
2470 cde128    call    28e1h
2473 21e864    ld      hl,64e8h
2476 cdfd39    call    39fdh
2479 21f664    ld      hl,64f6h
247c cdfd39    call    39fdh
247f dd21cf80  ld      ix,80cfh
2483 cd2b28    call    282bh
2486 210c65    ld      hl,650ch
2489 cdfd39    call    39fdh
248c 211765    ld      hl,6517h
248f cdfd39    call    39fdh
2492 21b066    ld      hl,66b0h
2495 cdfd39    call    39fdh
2498 215f65    ld      hl,655fh
249b cdfd39    call    39fdh
249e dd21488b  ld      ix,8b48h
24a2 cd3e2c    call    2c3eh
24a5 216965    ld      hl,6569h
24a8 cdfd39    call    39fdh
24ab 21ce66    ld      hl,66ceh
24ae cdfd39    call    39fdh
24b1 215f65    ld      hl,655fh
24b4 cdfd39    call    39fdh
24b7 dd21568b  ld      ix,8b56h
24bb cd3e2c    call    2c3eh
24be 218f65    ld      hl,658fh
24c1 cdfd39    call    39fdh
24c4 21ec66    ld      hl,66ech
24c7 cdfd39    call    39fdh
24ca 215f65    ld      hl,655fh
24cd cdfd39    call    39fdh
24d0 dd214b8b  ld      ix,8b4bh
24d4 cd3e2c    call    2c3eh
24d7 218f65    ld      hl,658fh
24da cdfd39    call    39fdh
24dd 21b565    ld      hl,65b5h
24e0 cdfd39    call    39fdh
24e3 210a67    ld      hl,670ah
24e6 cdfd39    call    39fdh
24e9 dd215c8b  ld      ix,8b5ch
24ed cd3e2c    call    2c3eh
24f0 3ab68b    ld      a,(8bb6h)
24f3 cd4a28    call    284ah
24f6 21b565    ld      hl,65b5h
24f9 cdfd39    call    39fdh
24fc cd6428    call    2864h
24ff 212c67    ld      hl,672ch
2502 cdfd39    call    39fdh
2505 cde128    call    28e1h
2508 21e864    ld      hl,64e8h
250b cdfd39    call    39fdh
250e 215167    ld      hl,6751h
2511 cdfd39    call    39fdh
2514 dd21cf80  ld      ix,80cfh
2518 cd2b28    call    282bh
251b 216967    ld      hl,6769h
251e cdfd39    call    39fdh
2521 211765    ld      hl,6517h
2524 cdfd39    call    39fdh
2527 214165    ld      hl,6541h
252a cdfd39    call    39fdh
252d 216465    ld      hl,6564h
2530 cdfd39    call    39fdh
2533 dd214580  ld      ix,8045h
2537 cd3e2c    call    2c3eh
253a 216965    ld      hl,6569h
253d cdfd39    call    39fdh
2540 217165    ld      hl,6571h
2543 cdfd39    call    39fdh
2546 216465    ld      hl,6564h
2549 cdfd39    call    39fdh
254c dd21538b  ld      ix,8b53h
2550 cd3e2c    call    2c3eh
2553 218f65    ld      hl,658fh
2556 cdfd39    call    39fdh
2559 219765    ld      hl,6597h
255c cdfd39    call    39fdh
255f 216465    ld      hl,6564h
2562 cdfd39    call    39fdh
2565 dd21508b  ld      ix,8b50h
2569 cd3e2c    call    2c3eh
256c 218f65    ld      hl,658fh
256f cdfd39    call    39fdh
2572 21b066    ld      hl,66b0h
2575 cdfd39    call    39fdh
2578 216465    ld      hl,6564h
257b cdfd39    call    39fdh
257e dd21488b  ld      ix,8b48h
2582 cd3e2c    call    2c3eh
2585 216965    ld      hl,6569h
2588 cdfd39    call    39fdh
258b 21ce66    ld      hl,66ceh
258e cdfd39    call    39fdh
2591 216465    ld      hl,6564h
2594 cdfd39    call    39fdh
2597 dd21568b  ld      ix,8b56h
259b cd3e2c    call    2c3eh
259e 218f65    ld      hl,658fh
25a1 cdfd39    call    39fdh
25a4 21ec66    ld      hl,66ech
25a7 cdfd39    call    39fdh
25aa 216465    ld      hl,6564h
25ad cdfd39    call    39fdh
25b0 dd214b8b  ld      ix,8b4bh
25b4 cd3e2c    call    2c3eh
25b7 218f65    ld      hl,658fh
25ba cdfd39    call    39fdh
25bd 21b565    ld      hl,65b5h
25c0 cdfd39    call    39fdh
25c3 217267    ld      hl,6772h
25c6 cdfd39    call    39fdh
25c9 dd215f8b  ld      ix,8b5fh
25cd cd3e2c    call    2c3eh
25d0 3ab78b    ld      a,(8bb7h)
25d3 fe43      cp      43h
25d5 c2f025    jp      nz,25f0h
25d8 cd5028    call    2850h
25db 21b565    ld      hl,65b5h
25de cdfd39    call    39fdh
25e1 219467    ld      hl,6794h
25e4 cdfd39    call    39fdh
25e7 21c167    ld      hl,67c1h
25ea cdfd39    call    39fdh
25ed c30526    jp      2605h
25f0 cd5728    call    2857h
25f3 21b565    ld      hl,65b5h
25f6 cdfd39    call    39fdh
25f9 21ee67    ld      hl,67eeh
25fc cdfd39    call    39fdh
25ff 211b68    ld      hl,681bh
2602 cdfd39    call    39fdh
2605 218e6e    ld      hl,6e8eh
2608 cdf61d    call    1df6h
260b cd5526    call    2655h
260e cd2426    call    2624h
2611 cd4e26    call    264eh
2614 21b86e    ld      hl,6eb8h
2617 cdf61d    call    1df6h
261a 0604      ld      b,04h
261c cdf426    call    26f4h
261f cdb426    call    26b4h
2622 00        nop     
2623 c9        ret     

2624 00        nop     
2625 cdb53a    call    3ab5h
2628 21526e    ld      hl,6e52h
262b 3803      jr      c,2630h
262d 215a6e    ld      hl,6e5ah
2630 cdf61d    call    1df6h
2633 c9        ret     

2634 21795c    ld      hl,5c79h
2637 cdfd39    call    39fdh
263a cde128    call    28e1h
263d cd3828    call    2838h
2640 cdb13f    call    3fb1h
2643 dd21a780  ld      ix,80a7h
2647 cd0528    call    2805h
264a cd6428    call    2864h
264d c9        ret     

264e 00        nop     
264f 21c08b    ld      hl,8bc0h
2652 cbb6      res     6,(hl)
2654 c9        ret     

2655 00        nop     
2656 21c08b    ld      hl,8bc0h
2659 cbf6      set     6,(hl)
265b c9        ret     

265c 00        nop     
265d 21c08b    ld      hl,8bc0h
2660 cbbe      res     7,(hl)
2662 c9        ret     

2663 00        nop     
2664 21c08b    ld      hl,8bc0h
2667 cbfe      set     7,(hl)
2669 c9        ret     

266a 00        nop     
266b cdb13f    call    3fb1h
266e dd21a780  ld      ix,80a7h
2672 cdfd27    call    27fdh
2675 cdb728    call    28b7h
2678 00        nop     
2679 21746c    ld      hl,6c74h
267c cdf61d    call    1df6h
267f c9        ret     

2680 00        nop     
2681 e5        push    hl
2682 cd6a26    call    266ah
2685 cddc26    call    26dch
2688 e1        pop     hl
2689 cdfd39    call    39fdh
268c cde126    call    26e1h
268f 212f4c    ld      hl,4c2fh
2692 cdfd39    call    39fdh
2695 dd21cf80  ld      ix,80cfh
2699 cd0528    call    2805h
269c cd3828    call    2838h
269f dd21a780  ld      ix,80a7h
26a3 cd6428    call    2864h
26a6 cdd526    call    26d5h
26a9 c9        ret     

26aa 3abb8b    ld      a,(8bbbh)
26ad 32458b    ld      (8b45h),a
26b0 cde937    call    37e9h
26b3 c9        ret     

26b4 3a458b    ld      a,(8b45h)
26b7 32bb8b    ld      (8bbbh),a
26ba cdfe37    call    37feh
26bd c9        ret     

26be 00        nop     
26bf 21128c    ld      hl,8c12h
26c2 1806      jr      26cah
26c4 00        nop     
26c5 21418c    ld      hl,8c41h
26c8 1800      jr      26cah
26ca 5d        ld      e,l
26cb 54        ld      d,h
26cc 13        inc     de
26cd 012a00    ld      bc,002ah
26d0 3620      ld      (hl),20h
26d2 edb0      ldir    
26d4 c9        ret     

26d5 21864c    ld      hl,4c86h
26d8 cdfd39    call    39fdh
26db c9        ret     

26dc 00        nop     
26dd 3e30      ld      a,30h
26df 1803      jr      26e4h
26e1 00        nop     
26e2 3e00      ld      a,00h
26e4 f5        push    af
26e5 3e1b      ld      a,1bh
26e7 cd373a    call    3a37h
26ea 3e21      ld      a,21h
26ec cd373a    call    3a37h
26ef f1        pop     af
26f0 cd373a    call    3a37h
26f3 c9        ret     

26f4 00        nop     
26f5 cdf926    call    26f9h
26f8 c9        ret     

26f9 c5        push    bc
26fa cd6428    call    2864h
26fd c1        pop     bc
26fe 10f9      djnz    26f9h
2700 c9        ret     

2701 21754d    ld      hl,4d75h
2704 cdfd39    call    39fdh
2707 c3c227    jp      27c2h
270a 218d4d    ld      hl,4d8dh
270d cdfd39    call    39fdh
2710 c3c227    jp      27c2h
2713 00        nop     
2714 fd2100b0  ld      iy,0b000h
2718 fd22e58b  ld      (8be5h),iy
271c fde5      push    iy
271e fde5      push    iy
2720 e1        pop     hl
2721 7e        ld      a,(hl)
2722 feff      cp      0ffh
2724 ca5b27    jp      z,275bh
2727 fd21128c  ld      iy,8c12h
272b 0601      ld      b,01h
272d cd6c27    call    276ch
2730 0608      ld      b,08h
2732 cd6c27    call    276ch
2735 0606      ld      b,06h
2737 cd6c27    call    276ch
273a 0602      ld      b,02h
273c cd6c27    call    276ch
273f 0601      ld      b,01h
2741 cd6c27    call    276ch
2744 0601      ld      b,01h
2746 cd6c27    call    276ch
2749 fd36ff0d  ld      (iy-01h),0dh
274d fd36000a  ld      (iy+00h),0ah
2751 fd360124  ld      (iy+01h),24h
2755 21128c    ld      hl,8c12h
2758 cdfd39    call    39fdh
275b fde1      pop     iy
275d 111300    ld      de,0013h
2760 fd19      add     iy,de
2762 fde5      push    iy
2764 e1        pop     hl
2765 cdb51a    call    1ab5h
2768 d21827    jp      nc,2718h
276b c9        ret     

276c 7e        ld      a,(hl)
276d cdf733    call    33f7h
2770 fd7200    ld      (iy+00h),d
2773 fd7301    ld      (iy+01h),e
2776 fd23      inc     iy
2778 fd23      inc     iy
277a 23        inc     hl
277b 10ef      djnz    276ch
277d fd360020  ld      (iy+00h),20h
2781 fd23      inc     iy
2783 c9        ret     

2784 dde5      push    ix
2786 fde5      push    iy
2788 cde128    call    28e1h
278b 3e2d      ld      a,2dh
278d cd373a    call    3a37h
2790 fd2ae58b  ld      iy,(8be5h)
2794 fd6e0f    ld      l,(iy+0fh)
2797 fd6610    ld      h,(iy+10h)
279a cde10b    call    0be1h
279d fde5      push    iy
279f fd212b8c  ld      iy,8c2bh
27a3 cdf62c    call    2cf6h
27a6 fde1      pop     iy
27a8 3e2f      ld      a,2fh
27aa cd373a    call    3a37h
27ad fd7e11    ld      a,(iy+11h)
27b0 fe57      cp      57h
27b2 c2b827    jp      nz,27b8h
27b5 3a698b    ld      a,(8b69h)
27b8 cd373a    call    3a37h
27bb cd3828    call    2838h
27be fde1      pop     iy
27c0 dde1      pop     ix
27c2 dde5      push    ix
27c4 fde5      push    iy
27c6 fd2ae58b  ld      iy,(8be5h)
27ca dd21208b  ld      ix,8b20h
27ce fd7e09    ld      a,(iy+09h)
27d1 dd7702    ld      (ix+02h),a
27d4 fd7e0a    ld      a,(iy+0ah)
27d7 dd7703    ld      (ix+03h),a
27da fd7e0b    ld      a,(iy+0bh)
27dd dd7705    ld      (ix+05h),a
27e0 fd7e0c    ld      a,(iy+0ch)
27e3 dd7706    ld      (ix+06h),a
27e6 fd7e0d    ld      a,(iy+0dh)
27e9 dd7707    ld      (ix+07h),a
27ec fd7e0e    ld      a,(iy+0eh)
27ef dd7708    ld      (ix+08h),a
27f2 cd0528    call    2805h
27f5 cd6428    call    2864h
27f8 fde1      pop     iy
27fa dde1      pop     ix
27fc c9        ret     

27fd 00        nop     
27fe cd1528    call    2815h
2801 cd7a28    call    287ah
2804 c9        ret     

2805 00        nop     
2806 cd1528    call    2815h
2809 cd7a28    call    287ah
280c 21128c    ld      hl,8c12h
280f 0613      ld      b,13h
2811 cdff39    call    39ffh
2814 c9        ret     

2815 00        nop     
2816 215e70    ld      hl,705eh
2819 cda83c    call    3ca8h
281c cdbe26    call    26beh
281f 213981    ld      hl,8139h
2822 11128c    ld      de,8c12h
2825 010800    ld      bc,0008h
2828 edb0      ldir    
282a c9        ret     

282b 00        nop     
282c cd1528    call    2815h
282f 21128c    ld      hl,8c12h
2832 0608      ld      b,08h
2834 cdff39    call    39ffh
2837 c9        ret     

2838 3e20      ld      a,20h
283a cd373a    call    3a37h
283d c9        ret     

283e 3e0d      ld      a,0dh
2840 cd373a    call    3a37h
2843 c9        ret     

2844 3e0a      ld      a,0ah
2846 cd373a    call    3a37h
2849 c9        ret     

284a fe43      cp      43h
284c 2802      jr      z,2850h
284e 1807      jr      2857h
2850 218f65    ld      hl,658fh
2853 cdfd39    call    39fdh
2856 c9        ret     

2857 216965    ld      hl,6569h
285a cdfd39    call    39fdh
285d c9        ret     

285e cd3e28    call    283eh
2861 cd4428    call    2844h
2864 cd3e28    call    283eh
2867 cd4428    call    2844h
286a c9        ret     

286b cd7a28    call    287ah
286e 21128c    ld      hl,8c12h
2871 211b8c    ld      hl,8c1bh
2874 060a      ld      b,0ah
2876 cdff39    call    39ffh
2879 c9        ret     

287a 00        nop     
287b 215e70    ld      hl,705eh
287e cda83c    call    3ca8h
2881 fd21128c  ld      iy,8c12h
2885 fd360954  ld      (iy+09h),54h
2889 ddcb087e  bit     7,(ix+08h)
288d c29f28    jp      nz,289fh
2890 fd360a49  ld      (iy+0ah),49h
2894 fd360b4d  ld      (iy+0bh),4dh
2898 fd360c45  ld      (iy+0ch),45h
289c c3ab28    jp      28abh
289f fd360a69  ld      (iy+0ah),69h
28a3 fd360b6d  ld      (iy+0bh),6dh
28a7 fd360c65  ld      (iy+0ch),65h
28ab 213381    ld      hl,8133h
28ae 11208c    ld      de,8c20h
28b1 010500    ld      bc,0005h
28b4 edb0      ldir    
28b6 c9        ret     

28b7 21b34c    ld      hl,4cb3h
28ba 112b8c    ld      de,8c2bh
28bd 010c00    ld      bc,000ch
28c0 edb0      ldir    
28c2 fd21388c  ld      iy,8c38h
28c6 180f      jr      28d7h
28c8 215352    ld      hl,5253h
28cb 11278c    ld      de,8c27h
28ce 010b00    ld      bc,000bh
28d1 edb0      ldir    
28d3 fd21338c  ld      iy,8c33h
28d7 00        nop     
28d8 cd4b38    call    384bh
28db 2a3b80    ld      hl,(803bh)
28de c3f22c    jp      2cf2h
28e1 cdc828    call    28c8h
28e4 21338c    ld      hl,8c33h
28e7 0604      ld      b,04h
28e9 cdff39    call    39ffh
28ec c9        ret     

28ed 00        nop     
28ee 2a648b    ld      hl,(8b64h)
28f1 22818b    ld      (8b81h),hl
28f4 3a7b8b    ld      a,(8b7bh)
28f7 fe04      cp      04h
28f9 c20229    jp      nz,2902h
28fc 21085f    ld      hl,5f08h
28ff c3262a    jp      2a26h
2902 fe03      cp      03h
2904 c20d29    jp      nz,290dh
2907 21c85f    ld      hl,5fc8h
290a c3262a    jp      2a26h
290d fe02      cp      02h
290f c21829    jp      nz,2918h
2912 218860    ld      hl,6088h
2915 c3262a    jp      2a26h
2918 fe01      cp      01h
291a c22329    jp      nz,2923h
291d 217c63    ld      hl,637ch
2920 c3262a    jp      2a26h
2923 fe05      cp      05h
2925 c22e29    jp      nz,292eh
2928 216262    ld      hl,6262h
292b c3262a    jp      2a26h
292e 214861    ld      hl,6148h
2931 c3262a    jp      2a26h
2934 00        nop     
2935 3a7b8b    ld      a,(8b7bh)
2938 fe04      cp      04h
293a c25b29    jp      nz,295bh
293d 21535f    ld      hl,5f53h
2940 cd262a    call    2a26h
2943 2a838b    ld      hl,(8b83h)
2946 22818b    ld      (8b81h),hl
2949 217a5f    ld      hl,5f7ah
294c cd262a    call    2a26h
294f 2a858b    ld      hl,(8b85h)
2952 22818b    ld      (8b81h),hl
2955 21a15f    ld      hl,5fa1h
2958 c3262a    jp      2a26h
295b fe03      cp      03h
295d c27e29    jp      nz,297eh
2960 211360    ld      hl,6013h
2963 cd262a    call    2a26h
2966 2a838b    ld      hl,(8b83h)
2969 22818b    ld      (8b81h),hl
296c 213a60    ld      hl,603ah
296f cd262a    call    2a26h
2972 2a858b    ld      hl,(8b85h)
2975 22818b    ld      (8b81h),hl
2978 216160    ld      hl,6061h
297b c3262a    jp      2a26h
297e fe02      cp      02h
2980 c2a129    jp      nz,29a1h
2983 21d360    ld      hl,60d3h
2986 cd262a    call    2a26h
2989 2a838b    ld      hl,(8b83h)
298c 22818b    ld      (8b81h),hl
298f 21fa60    ld      hl,60fah
2992 cd262a    call    2a26h
2995 2a858b    ld      hl,(8b85h)
2998 22818b    ld      (8b81h),hl
299b 212161    ld      hl,6121h
299e c3262a    jp      2a26h
29a1 fe0a      cp      0ah
29a3 c2d029    jp      nz,29d0h
29a6 219f61    ld      hl,619fh
29a9 cd262a    call    2a26h
29ac 2a838b    ld      hl,(8b83h)
29af 22818b    ld      (8b81h),hl
29b2 21c661    ld      hl,61c6h
29b5 cd262a    call    2a26h
29b8 2a858b    ld      hl,(8b85h)
29bb 22818b    ld      (8b81h),hl
29be 21ed61    ld      hl,61edh
29c1 cd262a    call    2a26h
29c4 2a878b    ld      hl,(8b87h)
29c7 22818b    ld      (8b81h),hl
29ca 211462    ld      hl,6214h
29cd c3262a    jp      2a26h
29d0 fe05      cp      05h
29d2 c2ff29    jp      nz,29ffh
29d5 21b962    ld      hl,62b9h
29d8 cd262a    call    2a26h
29db 2a838b    ld      hl,(8b83h)
29de 22818b    ld      (8b81h),hl
29e1 21e062    ld      hl,62e0h
29e4 cd262a    call    2a26h
29e7 2a858b    ld      hl,(8b85h)
29ea 22818b    ld      (8b81h),hl
29ed 210763    ld      hl,6307h
29f0 cd262a    call    2a26h
29f3 2a878b    ld      hl,(8b87h)
29f6 22818b    ld      (8b81h),hl
29f9 212e63    ld      hl,632eh
29fc c3262a    jp      2a26h
29ff 21d363    ld      hl,63d3h
2a02 cd262a    call    2a26h
2a05 2a838b    ld      hl,(8b83h)
2a08 22818b    ld      (8b81h),hl
2a0b 21fa63    ld      hl,63fah
2a0e cd262a    call    2a26h
2a11 2a858b    ld      hl,(8b85h)
2a14 22818b    ld      (8b81h),hl
2a17 212164    ld      hl,6421h
2a1a cd262a    call    2a26h
2a1d 2a878b    ld      hl,(8b87h)
2a20 22818b    ld      (8b81h),hl
2a23 214864    ld      hl,6448h
2a26 cdfd39    call    39fdh
2a29 2a818b    ld      hl,(8b81h)
2a2c cd370f    call    0f37h
2a2f fde5      push    iy
2a31 fd212b8c  ld      iy,8c2bh
2a35 cdf62c    call    2cf6h
2a38 fde1      pop     iy
2a3a cd6428    call    2864h
2a3d c9        ret     

2a3e 00        nop     
2a3f 3a7b8b    ld      a,(8b7bh)
2a42 3d        dec     a
2a43 3d        dec     a
2a44 fe03      cp      03h
2a46 00        nop     
2a47 d2842a    jp      nc,2a84h
2a4a 210000    ld      hl,0000h
2a4d 3a7b8b    ld      a,(8b7bh)
2a50 fe02      cp      02h
2a52 c2712a    jp      nz,2a71h
2a55 2a818b    ld      hl,(8b81h)
2a58 111e00    ld      de,001eh
2a5b cdc435    call    35c4h
2a5e 2a9c8b    ld      hl,(8b9ch)
2a61 e5        push    hl
2a62 2a838b    ld      hl,(8b83h)
2a65 110f00    ld      de,000fh
2a68 cdc435    call    35c4h
2a6b ed5b9c8b  ld      de,(8b9ch)
2a6f e1        pop     hl
2a70 19        add     hl,de
2a71 e5        push    hl
2a72 2a858b    ld      hl,(8b85h)
2a75 110100    ld      de,0001h
2a78 cdc435    call    35c4h
2a7b ed5b9c8b  ld      de,(8b9ch)
2a7f e1        pop     hl
2a80 19        add     hl,de
2a81 c3c92a    jp      2ac9h
2a84 2a878b    ld      hl,(8b87h)
2a87 110100    ld      de,0001h
2a8a cdc435    call    35c4h
2a8d 2a9c8b    ld      hl,(8b9ch)
2a90 e5        push    hl
2a91 2a858b    ld      hl,(8b85h)
2a94 110300    ld      de,0003h
2a97 cdc435    call    35c4h
2a9a ed5b9c8b  ld      de,(8b9ch)
2a9e e1        pop     hl
2a9f 19        add     hl,de
2aa0 3a7b8b    ld      a,(8b7bh)
2aa3 fe01      cp      01h
2aa5 c2c02a    jp      nz,2ac0h
2aa8 e5        push    hl
2aa9 2a838b    ld      hl,(8b83h)
2aac 111e00    ld      de,001eh
2aaf cdc435    call    35c4h
2ab2 ed5b9c8b  ld      de,(8b9ch)
2ab6 e1        pop     hl
2ab7 19        add     hl,de
2ab8 3a7b8b    ld      a,(8b7bh)
2abb fe01      cp      01h
2abd cac92a    jp      z,2ac9h
2ac0 5f        ld      e,a
2ac1 1600      ld      d,00h
2ac3 cdc435    call    35c4h
2ac6 2a9c8b    ld      hl,(8b9ch)
2ac9 eb        ex      de,hl
2aca 3ad380    ld      a,(80d3h)
2acd e607      and     07h
2acf fe04      cp      04h
2ad1 214880    ld      hl,8048h
2ad4 2809      jr      z,2adfh
2ad6 fe07      cp      07h
2ad8 214e8b    ld      hl,8b4eh
2adb 2802      jr      z,2adfh
2add 2800      jr      z,2adfh
2adf 7e        ld      a,(hl)
2ae0 83        add     a,e
2ae1 77        ld      (hl),a
2ae2 23        inc     hl
2ae3 7e        ld      a,(hl)
2ae4 8a        adc     a,d
2ae5 77        ld      (hl),a
2ae6 c9        ret     

2ae7 00        nop     
2ae8 dde5      push    ix
2aea fde5      push    iy
2aec af        xor     a
2aed 324b8b    ld      (8b4bh),a
2af0 32508b    ld      (8b50h),a
2af3 2a4e8b    ld      hl,(8b4eh)
2af6 cd4233    call    3342h
2af9 224c8b    ld      (8b4ch),hl
2afc 2a4880    ld      hl,(8048h)
2aff cd4233    call    3342h
2b02 22518b    ld      (8b51h),hl
2b05 dd214580  ld      ix,8045h
2b09 fd21538b  ld      iy,8b53h
2b0d cdfb2b    call    2bfbh
2b10 dd21488b  ld      ix,8b48h
2b14 fd21568b  ld      iy,8b56h
2b18 cdfb2b    call    2bfbh
2b1b 214580    ld      hl,8045h
2b1e 11ac8b    ld      de,8bach
2b21 010300    ld      bc,0003h
2b24 edb0      ldir    
2b26 11538b    ld      de,8b53h
2b29 21ac8b    ld      hl,8bach
2b2c cd0733    call    3307h
2b2f 21508b    ld      hl,8b50h
2b32 11af8b    ld      de,8bafh
2b35 010300    ld      bc,0003h
2b38 edb0      ldir    
2b3a cdcb2b    call    2bcbh
2b3d 32b58b    ld      (8bb5h),a
2b40 21b28b    ld      hl,8bb2h
2b43 11598b    ld      de,8b59h
2b46 010300    ld      bc,0003h
2b49 edb0      ldir    
2b4b 21488b    ld      hl,8b48h
2b4e 11ac8b    ld      de,8bach
2b51 010300    ld      bc,0003h
2b54 edb0      ldir    
2b56 11568b    ld      de,8b56h
2b59 21ac8b    ld      hl,8bach
2b5c cd0733    call    3307h
2b5f 214b8b    ld      hl,8b4bh
2b62 11af8b    ld      de,8bafh
2b65 010300    ld      bc,0003h
2b68 edb0      ldir    
2b6a cdcb2b    call    2bcbh
2b6d 32b68b    ld      (8bb6h),a
2b70 21b28b    ld      hl,8bb2h
2b73 115c8b    ld      de,8b5ch
2b76 010300    ld      bc,0003h
2b79 edb0      ldir    
2b7b 214580    ld      hl,8045h
2b7e 11ac8b    ld      de,8bach
2b81 010300    ld      bc,0003h
2b84 edb0      ldir    
2b86 11538b    ld      de,8b53h
2b89 21ac8b    ld      hl,8bach
2b8c cd0733    call    3307h
2b8f 11488b    ld      de,8b48h
2b92 21ac8b    ld      hl,8bach
2b95 cd1833    call    3318h
2b98 11568b    ld      de,8b56h
2b9b 21ac8b    ld      hl,8bach
2b9e cd0733    call    3307h
2ba1 21508b    ld      hl,8b50h
2ba4 11af8b    ld      de,8bafh
2ba7 010300    ld      bc,0003h
2baa edb0      ldir    
2bac 114b8b    ld      de,8b4bh
2baf 21af8b    ld      hl,8bafh
2bb2 cd1833    call    3318h
2bb5 cdcb2b    call    2bcbh
2bb8 32b78b    ld      (8bb7h),a
2bbb 21b28b    ld      hl,8bb2h
2bbe 115f8b    ld      de,8b5fh
2bc1 010300    ld      bc,0003h
2bc4 edb0      ldir    
2bc6 fde1      pop     iy
2bc8 dde1      pop     ix
2bca c9        ret     

2bcb 00        nop     
2bcc 21af8b    ld      hl,8bafh
2bcf 11b28b    ld      de,8bb2h
2bd2 010300    ld      bc,0003h
2bd5 edb0      ldir    
2bd7 11ac8b    ld      de,8bach
2bda 21b28b    ld      hl,8bb2h
2bdd cd0733    call    3307h
2be0 3e43      ld      a,43h
2be2 3016      jr      nc,2bfah
2be4 21ac8b    ld      hl,8bach
2be7 11b28b    ld      de,8bb2h
2bea 010300    ld      bc,0003h
2bed edb0      ldir    
2bef 11af8b    ld      de,8bafh
2bf2 21b28b    ld      hl,8bb2h
2bf5 cd0733    call    3307h
2bf8 3e44      ld      a,44h
2bfa c9        ret     

2bfb dd6e00    ld      l,(ix+00h)
2bfe dd6601    ld      h,(ix+01h)
2c01 dd5e02    ld      e,(ix+02h)
2c04 cb3b      srl     e
2c06 cb1c      rr      h
2c08 cb1d      rr      l
2c0a cb3b      srl     e
2c0c cb1c      rr      h
2c0e cb1d      rr      l
2c10 cb3b      srl     e
2c12 cb1c      rr      h
2c14 cb1d      rr      l
2c16 cb3b      srl     e
2c18 cb1c      rr      h
2c1a cb1d      rr      l
2c1c 3e50      ld      a,50h
2c1e 85        add     a,l
2c1f 27        daa     
2c20 fd360000  ld      (iy+00h),00h
2c24 3e00      ld      a,00h
2c26 8c        adc     a,h
2c27 27        daa     
2c28 fd7701    ld      (iy+01h),a
2c2b 3e00      ld      a,00h
2c2d 8b        adc     a,e
2c2e 27        daa     
2c2f fd7702    ld      (iy+02h),a
2c32 c9        ret     

2c33 00        nop     
2c34 0603      ld      b,03h
2c36 3e00      ld      a,00h
2c38 ed6f      rld     
2c3a 23        inc     hl
2c3b 10fb      djnz    2c38h
2c3d c9        ret     

2c3e fde5      push    iy
2c40 fd21128c  ld      iy,8c12h
2c44 dd7e02    ld      a,(ix+02h)
2c47 cdf733    call    33f7h
2c4a 7a        ld      a,d
2c4b fe30      cp      30h
2c4d 2009      jr      nz,2c58h
2c4f 1620      ld      d,20h
2c51 7b        ld      a,e
2c52 fe30      cp      30h
2c54 2002      jr      nz,2c58h
2c56 1e20      ld      e,20h
2c58 fd7200    ld      (iy+00h),d
2c5b fd7301    ld      (iy+01h),e
2c5e dd7e01    ld      a,(ix+01h)
2c61 cdf733    call    33f7h
2c64 fd7e01    ld      a,(iy+01h)
2c67 fe20      cp      20h
2c69 2007      jr      nz,2c72h
2c6b 7a        ld      a,d
2c6c fe30      cp      30h
2c6e 2002      jr      nz,2c72h
2c70 1620      ld      d,20h
2c72 fd7202    ld      (iy+02h),d
2c75 fd7303    ld      (iy+03h),e
2c78 fd360424  ld      (iy+04h),24h
2c7c 21128c    ld      hl,8c12h
2c7f cdfd39    call    39fdh
2c82 fde1      pop     iy
2c84 c9        ret     

2c85 2a3d80    ld      hl,(803dh)
2c88 fd21388c  ld      iy,8c38h
2c8c fd36ff2d  ld      (iy-01h),2dh
2c90 c3f22c    jp      2cf2h
2c93 cd852c    call    2c85h
2c96 21388c    ld      hl,8c38h
2c99 0604      ld      b,04h
2c9b cdff39    call    39ffh
2c9e c9        ret     

2c9f 2a3690    ld      hl,(9036h)
2ca2 fde5      push    iy
2ca4 fd21268c  ld      iy,8c26h
2ca8 cdf62c    call    2cf6h
2cab fde1      pop     iy
2cad c9        ret     

2cae 3a4180    ld      a,(8041h)
2cb1 cde62c    call    2ce6h
2cb4 2a3f80    ld      hl,(803fh)
2cb7 fde5      push    iy
2cb9 fd21268c  ld      iy,8c26h
2cbd cdf62c    call    2cf6h
2cc0 fde1      pop     iy
2cc2 c9        ret     

2cc3 3a4480    ld      a,(8044h)
2cc6 cde62c    call    2ce6h
2cc9 2a4280    ld      hl,(8042h)
2ccc fde5      push    iy
2cce fd21268c  ld      iy,8c26h
2cd2 cdf62c    call    2cf6h
2cd5 fde1      pop     iy
2cd7 c9        ret     

2cd8 fd21128c  ld      iy,8c12h
2cdc cdf733    call    33f7h
2cdf fd7200    ld      (iy+00h),d
2ce2 fd7301    ld      (iy+01h),e
2ce5 c9        ret     

2ce6 cdd82c    call    2cd8h
2ce9 fde5      push    iy
2ceb e1        pop     hl
2cec 0602      ld      b,02h
2cee cdff39    call    39ffh
2cf1 c9        ret     

2cf2 cd022d    call    2d02h
2cf5 c9        ret     

2cf6 cdf22c    call    2cf2h
2cf9 fde5      push    iy
2cfb e1        pop     hl
2cfc 0604      ld      b,04h
2cfe cdff39    call    39ffh
2d01 c9        ret     

2d02 7c        ld      a,h
2d03 cdf733    call    33f7h
2d06 fd7200    ld      (iy+00h),d
2d09 fd7301    ld      (iy+01h),e
2d0c 7d        ld      a,l
2d0d cdf733    call    33f7h
2d10 fd7202    ld      (iy+02h),d
2d13 fd7303    ld      (iy+03h),e
2d16 fd360424  ld      (iy+04h),24h
2d1a c9        ret     

2d1b 21bf8b    ld      hl,8bbfh
2d1e cb86      res     0,(hl)
2d20 cd1611    call    1116h
2d23 da2b2d    jp      c,2d2bh
2d26 21bf8b    ld      hl,8bbfh
2d29 cbc6      set     0,(hl)
2d2b 00        nop     
2d2c c9        ret     

2d2d 210901    ld      hl,0109h
2d30 118380    ld      de,8083h
2d33 011000    ld      bc,0010h
2d36 edb0      ldir    
2d38 c9        ret     

2d39 32408b    ld      (8b40h),a
2d3c fe30      cp      30h
2d3e da462d    jp      c,2d46h
2d41 fe3a      cp      3ah
2d43 da4a2d    jp      c,2d4ah
2d46 af        xor     a
2d47 c34c2d    jp      2d4ch
2d4a f6ff      or      0ffh
2d4c 3a408b    ld      a,(8b40h)
2d4f c9        ret     

2d50 3a628b    ld      a,(8b62h)
2d53 3c        inc     a
2d54 47        ld      b,a
2d55 3a408b    ld      a,(8b40h)
2d58 21028c    ld      hl,8c02h
2d5b be        cp      (hl)
2d5c ca642d    jp      z,2d64h
2d5f 23        inc     hl
2d60 10f9      djnz    2d5bh
2d62 f6ff      or      0ffh
2d64 c9        ret     

2d65 3abf8b    ld      a,(8bbfh)
2d68 cb7f      bit     7,a
2d6a c8        ret     z

2d6b 219d48    ld      hl,489dh
2d6e cd352f    call    2f35h
2d71 cd3513    call    1335h
2d74 c9        ret     

2d75 3e44      ld      a,44h
2d77 cd5941    call    4159h
2d7a 3e4d      ld      a,4dh
2d7c cd5941    call    4159h
2d7f 3e50      ld      a,50h
2d81 cd5941    call    4159h
2d84 3e0d      ld      a,0dh
2d86 cd5941    call    4159h
2d89 3e0a      ld      a,0ah
2d8b cd5941    call    4159h
2d8e 210080    ld      hl,8000h
2d91 00        nop     
2d92 7e        ld      a,(hl)
2d93 e5        push    hl
2d94 cdf733    call    33f7h
2d97 7a        ld      a,d
2d98 d5        push    de
2d99 cd5941    call    4159h
2d9c d1        pop     de
2d9d 7b        ld      a,e
2d9e cd5941    call    4159h
2da1 3e20      ld      a,20h
2da3 cd5941    call    4159h
2da6 cd5941    call    4159h
2da9 e1        pop     hl
2daa 23        inc     hl
2dab 7c        ld      a,h
2dac fe00      cp      00h
2dae c2922d    jp      nz,2d92h
2db1 00        nop     
2db2 00        nop     
2db3 00        nop     
2db4 c3b12d    jp      2db1h
2db7 00        nop     
2db8 0608      ld      b,08h
2dba cd5c0f    call    0f5ch
2dbd c9        ret     

2dbe 00        nop     
2dbf a7        and     a
2dc0 cac82d    jp      z,2dc8h
2dc3 fe0f      cp      0fh
2dc5 daca2d    jp      c,2dcah
2dc8 3e0e      ld      a,0eh
2dca 32658b    ld      (8b65h),a
2dcd 3e00      ld      a,00h
2dcf 32668b    ld      (8b66h),a
2dd2 216d8b    ld      hl,8b6dh
2dd5 116e8b    ld      de,8b6eh
2dd8 010600    ld      bc,0006h
2ddb 3600      ld      (hl),00h
2ddd edb0      ldir    
2ddf fd216d8b  ld      iy,8b6dh
2de3 cdf12d    call    2df1h
2de6 3a668b    ld      a,(8b66h)
2de9 21658b    ld      hl,8b65h
2dec be        cp      (hl)
2ded c2e32d    jp      nz,2de3h
2df0 c9        ret     

2df1 00        nop     
2df2 cd522e    call    2e52h
2df5 2a5b80    ld      hl,(805bh)
2df8 37        scf     
2df9 11e9ff    ld      de,0ffe9h
2dfc ed52      sbc     hl,de
2dfe d2f12d    jp      nc,2df1h
2e01 2a5b80    ld      hl,(805bh)
2e04 2b        dec     hl
2e05 113905    ld      de,0539h
2e08 cd0335    call    3503h
2e0b 5d        ld      e,l
2e0c 1600      ld      d,00h
2e0e 210047    ld      hl,4700h
2e11 19        add     hl,de
2e12 7e        ld      a,(hl)
2e13 32408b    ld      (8b40h),a
2e16 3a668b    ld      a,(8b66h)
2e19 3c        inc     a
2e1a 47        ld      b,a
2e1b 3a408b    ld      a,(8b40h)
2e1e 216d8b    ld      hl,8b6dh
2e21 be        cp      (hl)
2e22 caf12d    jp      z,2df1h
2e25 23        inc     hl
2e26 10f9      djnz    2e21h
2e28 3a408b    ld      a,(8b40h)
2e2b fd7700    ld      (iy+00h),a
2e2e fd23      inc     iy
2e30 21668b    ld      hl,8b66h
2e33 34        inc     (hl)
2e34 c9        ret     

2e35 00        nop     
2e36 c5        push    bc
2e37 d5        push    de
2e38 e5        push    hl
2e39 cd522e    call    2e52h
2e3c ed5b5b80  ld      de,(805bh)
2e40 b7        or      a
2e41 e1        pop     hl
2e42 e5        push    hl
2e43 ed52      sbc     hl,de
2e45 da392e    jp      c,2e39h
2e48 e1        pop     hl
2e49 1b        dec     de
2e4a eb        ex      de,hl
2e4b d1        pop     de
2e4c cd0335    call    3503h
2e4f 7d        ld      a,l
2e50 c1        pop     bc
2e51 c9        ret     

2e52 2a5b80    ld      hl,(805bh)
2e55 7d        ld      a,l
2e56 b4        or      h
2e57 cc8b2e    call    z,2e8bh
2e5a 0608      ld      b,08h
2e5c 3e00      ld      a,00h
2e5e 2a5b80    ld      hl,(805bh)
2e61 cb7c      bit     7,h
2e63 ca672e    jp      z,2e67h
2e66 2f        cpl     
2e67 cb74      bit     6,h
2e69 ca6d2e    jp      z,2e6dh
2e6c 2f        cpl     
2e6d cb64      bit     4,h
2e6f ca732e    jp      z,2e73h
2e72 2f        cpl     
2e73 cb5d      bit     3,l
2e75 ca792e    jp      z,2e79h
2e78 2f        cpl     
2e79 07        rlca    
2e7a 215b80    ld      hl,805bh
2e7d cb16      rl      (hl)
2e7f 23        inc     hl
2e80 cb16      rl      (hl)
2e82 23        inc     hl
2e83 cb16      rl      (hl)
2e85 23        inc     hl
2e86 cb16      rl      (hl)
2e88 10d2      djnz    2e5ch
2e8a c9        ret     

2e8b 00        nop     
2e8c cdb13f    call    3fb1h
2e8f dd21a780  ld      ix,80a7h
2e93 3aaa80    ld      a,(80aah)
2e96 e63f      and     3fh
2e98 cdf932    call    32f9h
2e9b fe18      cp      18h
2e9d daa22e    jp      c,2ea2h
2ea0 3e17      ld      a,17h
2ea2 5f        ld      e,a
2ea3 1600      ld      d,00h
2ea5 213c00    ld      hl,003ch
2ea8 cdc435    call    35c4h
2eab 3aa980    ld      a,(80a9h)
2eae cdf932    call    32f9h
2eb1 5f        ld      e,a
2eb2 1600      ld      d,00h
2eb4 2a9c8b    ld      hl,(8b9ch)
2eb7 19        add     hl,de
2eb8 229c8b    ld      (8b9ch),hl
2ebb 113c00    ld      de,003ch
2ebe cdc435    call    35c4h
2ec1 3aa880    ld      a,(80a8h)
2ec4 cdf932    call    32f9h
2ec7 5f        ld      e,a
2ec8 1600      ld      d,00h
2eca 2a9c8b    ld      hl,(8b9ch)
2ecd 19        add     hl,de
2ece 229c8b    ld      (8b9ch),hl
2ed1 d2db2e    jp      nc,2edbh
2ed4 2a9e8b    ld      hl,(8b9eh)
2ed7 23        inc     hl
2ed8 229e8b    ld      (8b9eh),hl
2edb 2a9e8b    ld      hl,(8b9eh)
2ede e5        push    hl
2edf 2a9c8b    ld      hl,(8b9ch)
2ee2 116400    ld      de,0064h
2ee5 cdc435    call    35c4h
2ee8 e1        pop     hl
2ee9 ed5b9c8b  ld      de,(8b9ch)
2eed d5        push    de
2eee ed5b9e8b  ld      de,(8b9eh)
2ef2 d5        push    de
2ef3 116400    ld      de,0064h
2ef6 cdc435    call    35c4h
2ef9 2a9c8b    ld      hl,(8b9ch)
2efc d1        pop     de
2efd 19        add     hl,de
2efe 229e8b    ld      (8b9eh),hl
2f01 d1        pop     de
2f02 ed539c8b  ld      (8b9ch),de
2f06 3aa780    ld      a,(80a7h)
2f09 cdf932    call    32f9h
2f0c 5f        ld      e,a
2f0d 1600      ld      d,00h
2f0f 2a9c8b    ld      hl,(8b9ch)
2f12 19        add     hl,de
2f13 229c8b    ld      (8b9ch),hl
2f16 d2202f    jp      nc,2f20h
2f19 2a9e8b    ld      hl,(8b9eh)
2f1c 23        inc     hl
2f1d 229e8b    ld      (8b9eh),hl
2f20 2a9c8b    ld      hl,(8b9ch)
2f23 225b80    ld      (805bh),hl
2f26 2a9e8b    ld      hl,(8b9eh)
2f29 225d80    ld      (805dh),hl
2f2c 2a5b80    ld      hl,(805bh)
2f2f 7d        ld      a,l
2f30 b4        or      h
2f31 ca8b2e    jp      z,2e8bh
2f34 c9        ret     

2f35 00        nop     
2f36 c5        push    bc
2f37 0640      ld      b,40h
2f39 cd990e    call    0e99h
2f3c 7e        ld      a,(hl)
2f3d fe24      cp      24h
2f3f ca482f    jp      z,2f48h
2f42 cd5941    call    4159h
2f45 23        inc     hl
2f46 10f1      djnz    2f39h
2f48 c1        pop     bc
2f49 c9        ret     

2f4a 00        nop     
2f4b cd4b38    call    384bh
2f4e 3e5a      ld      a,5ah
2f50 322a80    ld      (802ah),a
2f53 7c        ld      a,h
2f54 e601      and     01h
2f56 67        ld      h,a
2f57 cddc32    call    32dch
2f5a 2600      ld      h,00h
2f5c 7d        ld      a,l
2f5d fec8      cp      0c8h
2f5f da622f    jp      c,2f62h
2f62 3a2a80    ld      a,(802ah)
2f65 fea1      cp      0a1h
2f67 da6c2f    jp      c,2f6ch
2f6a 3e00      ld      a,00h
2f6c fe1e      cp      1eh
2f6e d2732f    jp      nc,2f73h
2f71 3e1e      ld      a,1eh
2f73 5f        ld      e,a
2f74 1600      ld      d,00h
2f76 013c00    ld      bc,003ch
2f79 cd0b36    call    360bh
2f7c 113c00    ld      de,003ch
2f7f cd0335    call    3503h
2f82 7d        ld      a,l
2f83 fe0a      cp      0ah
2f85 da8a2f    jp      c,2f8ah
2f88 3e00      ld      a,00h
2f8a 00        nop     
2f8b cd2733    call    3327h
2f8e 55        ld      d,l
2f8f 7b        ld      a,e
2f90 cd2733    call    3327h
2f93 62        ld      h,d
2f94 c9        ret     

2f95 00        nop     
2f96 00        nop     
2f97 22a48b    ld      (8ba4h),hl
2f9a af        xor     a
2f9b 32aa8b    ld      (8baah),a
2f9e 00        nop     
2f9f cdbe26    call    26beh
2fa2 2aa48b    ld      hl,(8ba4h)
2fa5 5e        ld      e,(hl)
2fa6 23        inc     hl
2fa7 56        ld      d,(hl)
2fa8 ed53a68b  ld      (8ba6h),de
2fac 23        inc     hl
2fad 7e        ld      a,(hl)
2fae fe0b      cp      0bh
2fb0 dab52f    jp      c,2fb5h
2fb3 3e0a      ld      a,0ah
2fb5 32ab8b    ld      (8babh),a
2fb8 23        inc     hl
2fb9 11128c    ld      de,8c12h
2fbc 010c00    ld      bc,000ch
2fbf edb0      ldir    
2fc1 ed53a88b  ld      (8ba8h),de
2fc5 00        nop     
2fc6 2aa68b    ld      hl,(8ba6h)
2fc9 23        inc     hl
2fca 22a68b    ld      (8ba6h),hl
2fcd 2b        dec     hl
2fce 7e        ld      a,(hl)
2fcf cdf733    call    33f7h
2fd2 2aa88b    ld      hl,(8ba8h)
2fd5 23        inc     hl
2fd6 72        ld      (hl),d
2fd7 23        inc     hl
2fd8 73        ld      (hl),e
2fd9 23        inc     hl
2fda 22a88b    ld      (8ba8h),hl
2fdd 21ab8b    ld      hl,8babh
2fe0 35        dec     (hl)
2fe1 cae72f    jp      z,2fe7h
2fe4 c3c52f    jp      2fc5h
2fe7 21128c    ld      hl,8c12h
2fea 062a      ld      b,2ah
2fec cdff39    call    39ffh
2fef cd6428    call    2864h
2ff2 3aaa8b    ld      a,(8baah)
2ff5 3c        inc     a
2ff6 fe2a      cp      2ah
2ff8 d20b30    jp      nc,300bh
2ffb 32aa8b    ld      (8baah),a
2ffe 2aa48b    ld      hl,(8ba4h)
3001 110f00    ld      de,000fh
3004 19        add     hl,de
3005 22a48b    ld      (8ba4h),hl
3008 c39e2f    jp      2f9eh
300b c9        ret     

300c 00        nop     
300d 22a48b    ld      (8ba4h),hl
3010 00        nop     
3011 cdbe26    call    26beh
3014 2aa48b    ld      hl,(8ba4h)
3017 5e        ld      e,(hl)
3018 23        inc     hl
3019 56        ld      d,(hl)
301a 7a        ld      a,d
301b b3        or      e
301c ca7630    jp      z,3076h
301f ed53a68b  ld      (8ba6h),de
3023 23        inc     hl
3024 7e        ld      a,(hl)
3025 fe0b      cp      0bh
3027 da2c30    jp      c,302ch
302a 3e0a      ld      a,0ah
302c 32ab8b    ld      (8babh),a
302f 23        inc     hl
3030 11128c    ld      de,8c12h
3033 010c00    ld      bc,000ch
3036 edb0      ldir    
3038 ed53a88b  ld      (8ba8h),de
303c 00        nop     
303d 2aa68b    ld      hl,(8ba6h)
3040 23        inc     hl
3041 22a68b    ld      (8ba6h),hl
3044 2b        dec     hl
3045 7e        ld      a,(hl)
3046 cdf733    call    33f7h
3049 2aa88b    ld      hl,(8ba8h)
304c 23        inc     hl
304d 72        ld      (hl),d
304e 23        inc     hl
304f 73        ld      (hl),e
3050 23        inc     hl
3051 22a88b    ld      (8ba8h),hl
3054 21ab8b    ld      hl,8babh
3057 35        dec     (hl)
3058 ca5e30    jp      z,305eh
305b c33c30    jp      303ch
305e 21128c    ld      hl,8c12h
3061 062a      ld      b,2ah
3063 cdff39    call    39ffh
3066 cd6428    call    2864h
3069 2aa48b    ld      hl,(8ba4h)
306c 110f00    ld      de,000fh
306f 19        add     hl,de
3070 22a48b    ld      (8ba4h),hl
3073 c31030    jp      3010h
3076 c9        ret     

3077 00        nop     
3078 e603      and     03h
307a 21f254    ld      hl,54f2h
307d fe00      cp      00h
307f 2811      jr      z,3092h
3081 21b856    ld      hl,56b8h
3084 fe01      cp      01h
3086 280a      jr      z,3092h
3088 217e58    ld      hl,587eh
308b fe02      cp      02h
308d 2803      jr      z,3092h
308f 21445a    ld      hl,5a44h
3092 112584    ld      de,8425h
3095 060c      ld      b,0ch
3097 c5        push    bc
3098 012f00    ld      bc,002fh
309b cdc81b    call    1bc8h
309e cdd01b    call    1bd0h
30a1 c1        pop     bc
30a2 10f3      djnz    3097h
30a4 c9        ret     

30a5 00        nop     
30a6 cdd519    call    19d5h
30a9 cd3b32    call    323bh
30ac dab330    jp      c,30b3h
30af cdde10    call    10deh
30b2 c9        ret     

30b3 cd8017    call    1780h
30b6 cdfc12    call    12fch
30b9 cdd812    call    12d8h
30bc cde112    call    12e1h
30bf cda819    call    19a8h
30c2 cdd830    call    30d8h
30c5 217180    ld      hl,8071h
30c8 cb86      res     0,(hl)
30ca cd2d2d    call    2d2dh
30cd 21bf8b    ld      hl,8bbfh
30d0 cba6      res     4,(hl)
30d2 cbb6      res     6,(hl)
30d4 cd0c1b    call    1b0ch
30d7 c9        ret     

30d8 00        nop     
30d9 dde5      push    ix
30db dd21ed80  ld      ix,80edh
30df cdea12    call    12eah
30e2 ddcb08be  res     7,(ix+08h)
30e6 dd360321  ld      (ix+03h),21h
30ea dd360230  ld      (ix+02h),30h
30ee cd9831    call    3198h
30f1 c2fc30    jp      nz,30fch
30f4 ddcb08fe  set     7,(ix+08h)
30f8 dd360320  ld      (ix+03h),20h
30fc cd4a2f    call    2f4ah
30ff 7d        ld      a,l
3100 fe60      cp      60h
3102 da0731    jp      c,3107h
3105 2e00      ld      l,00h
3107 7c        ld      a,h
3108 fe24      cp      24h
310a da0f31    jp      c,310fh
310d 2600      ld      h,00h
310f cd4331    call    3143h
3112 cd1713    call    1317h
3115 cd2013    call    1320h
3118 3e01      ld      a,01h
311a 325a80    ld      (805ah),a
311d dde1      pop     ix
311f c9        ret     

3120 00        nop     
3121 215200    ld      hl,0052h
3124 c32b31    jp      312bh
3127 00        nop     
3128 210200    ld      hl,0002h
312b 3ac18b    ld      a,(8bc1h)
312e cb57      bit     2,a
3130 c0        ret     nz

3131 3ac28b    ld      a,(8bc2h)
3134 cb77      bit     6,a
3136 c0        ret     nz

3137 dde5      push    ix
3139 dd21ed80  ld      ix,80edh
313d cd4331    call    3143h
3140 dde1      pop     ix
3142 c9        ret     

3143 7d        ld      a,l
3144 dd8602    add     a,(ix+02h)
3147 00        nop     
3148 27        daa     
3149 dd7702    ld      (ix+02h),a
314c fe60      cp      60h
314e da5c31    jp      c,315ch
3151 d660      sub     60h
3153 27        daa     
3154 dd7702    ld      (ix+02h),a
3157 3e01      ld      a,01h
3159 84        add     a,h
315a 27        daa     
315b 67        ld      h,a
315c 7c        ld      a,h
315d dd8603    add     a,(ix+03h)
3160 27        daa     
3161 dd7703    ld      (ix+03h),a
3164 fe24      cp      24h
3166 da8d31    jp      c,318dh
3169 d624      sub     24h
316b 27        daa     
316c dd7703    ld      (ix+03h),a
316f dd7e04    ld      a,(ix+04h)
3172 e607      and     07h
3174 c601      add     a,01h
3176 27        daa     
3177 fe08      cp      08h
3179 da7e31    jp      c,317eh
317c 3e01      ld      a,01h
317e dd7704    ld      (ix+04h),a
3181 3e01      ld      a,01h
3183 dd8605    add     a,(ix+05h)
3186 27        daa     
3187 dd7705    ld      (ix+05h),a
318a cd1d18    call    181dh
318d ddcb04e6  set     4,(ix+04h)
3191 dde5      push    ix
3193 e1        pop     hl
3194 cdc236    call    36c2h
3197 c9        ret     

3198 00        nop     
3199 dd7e06    ld      a,(ix+06h)
319c e61f      and     1fh
319e fe03      cp      03h
31a0 cab131    jp      z,31b1h
31a3 dac431    jp      c,31c4h
31a6 fe10      cp      10h
31a8 caba31    jp      z,31bah
31ab dac031    jp      c,31c0h
31ae c3c431    jp      31c4h
31b1 cdc731    call    31c7h
31b4 cac431    jp      z,31c4h
31b7 c3c031    jp      31c0h
31ba cdc731    call    31c7h
31bd c2c431    jp      nz,31c4h
31c0 af        xor     a
31c1 c3c631    jp      31c6h
31c4 f6ff      or      0ffh
31c6 c9        ret     

31c7 00        nop     
31c8 dd7e05    ld      a,(ix+05h)
31cb fe25      cp      25h
31cd daf231    jp      c,31f2h
31d0 dd7e04    ld      a,(ix+04h)
31d3 e607      and     07h
31d5 47        ld      b,a
31d6 fe01      cp      01h
31d8 cae831    jp      z,31e8h
31db dd7e05    ld      a,(ix+05h)
31de 90        sub     b
31df 27        daa     
31e0 fe24      cp      24h
31e2 daf231    jp      c,31f2h
31e5 c3f631    jp      31f6h
31e8 dd7e03    ld      a,(ix+03h)
31eb e63f      and     3fh
31ed fe01      cp      01h
31ef d2f631    jp      nc,31f6h
31f2 af        xor     a
31f3 c3f831    jp      31f8h
31f6 f6ff      or      0ffh
31f8 c9        ret     

31f9 00        nop     
31fa 3abf8b    ld      a,(8bbfh)
31fd cb7f      bit     7,a
31ff c23732    jp      nz,3237h
3202 3ac28b    ld      a,(8bc2h)
3205 cb77      bit     6,a
3207 c23732    jp      nz,3237h
320a 3ac18b    ld      a,(8bc1h)
320d cb57      bit     2,a
320f c23732    jp      nz,3237h
3212 3abf8b    ld      a,(8bbfh)
3215 cb77      bit     6,a
3217 ca3a32    jp      z,323ah
321a 21bf8b    ld      hl,8bbfh
321d cb46      bit     0,(hl)
321f ca3a32    jp      z,323ah
3222 cd8a11    call    118ah
3225 ca2b32    jp      z,322bh
3228 c33a32    jp      323ah
322b 21a780    ld      hl,80a7h
322e 11ed80    ld      de,80edh
3231 cde510    call    10e5h
3234 d23a32    jp      nc,323ah
3237 cd420d    call    0d42h
323a c9        ret     

323b 00        nop     
323c dd21a780  ld      ix,80a7h
3240 c37832    jp      3278h
3243 00        nop     
3244 dd21b180  ld      ix,80b1h
3248 c37832    jp      3278h
324b 00        nop     
324c dd21bb80  ld      ix,80bbh
3250 c37832    jp      3278h
3253 00        nop     
3254 dd21c580  ld      ix,80c5h
3258 c37832    jp      3278h
325b 00        nop     
325c dd21cf80  ld      ix,80cfh
3260 c37832    jp      3278h
3263 00        nop     
3264 dd21ed80  ld      ix,80edh
3268 c37832    jp      3278h
326b 00        nop     
326c dd21f780  ld      ix,80f7h
3270 c37832    jp      3278h
3273 00        nop     
3274 dd210181  ld      ix,8101h
3278 cd923b    call    3b92h
327b c9        ret     

327c 218380    ld      hl,8083h
327f 110901    ld      de,0109h
3282 0610      ld      b,10h
3284 1a        ld      a,(de)
3285 be        cp      (hl)
3286 c28d32    jp      nz,328dh
3289 13        inc     de
328a 23        inc     hl
328b 10f7      djnz    3284h
328d c9        ret     

328e 00        nop     
328f 00        nop     
3290 c9        ret     

3291 00        nop     
3292 21bf8b    ld      hl,8bbfh
3295 cb66      bit     4,(hl)
3297 c2a732    jp      nz,32a7h
329a cbe6      set     4,(hl)
329c 0607      ld      b,07h
329e cd5c0f    call    0f5ch
32a1 cd6922    call    2269h
32a4 cdb139    call    39b1h
32a7 c9        ret     

32a8 dd7e03    ld      a,(ix+03h)
32ab e63f      and     3fh
32ad dd7703    ld      (ix+03h),a
32b0 dd7e04    ld      a,(ix+04h)
32b3 e607      and     07h
32b5 dd7704    ld      (ix+04h),a
32b8 dd7e08    ld      a,(ix+08h)
32bb e63f      and     3fh
32bd dd7708    ld      (ix+08h),a
32c0 c9        ret     

32c1 cda832    call    32a8h
32c4 dd7e04    ld      a,(ix+04h)
32c7 e600      and     00h
32c9 dd7704    ld      (ix+04h),a
32cc dd7e07    ld      a,(ix+07h)
32cf fe90      cp      90h
32d1 3e20      ld      a,20h
32d3 dad832    jp      c,32d8h
32d6 3e19      ld      a,19h
32d8 cd903c    call    3c90h
32db c9        ret     

32dc 7d        ld      a,l
32dd cdf932    call    32f9h
32e0 5f        ld      e,a
32e1 7c        ld      a,h
32e2 cdf932    call    32f9h
32e5 6f        ld      l,a
32e6 af        xor     a
32e7 67        ld      h,a
32e8 57        ld      d,a
32e9 29        add     hl,hl
32ea 29        add     hl,hl
32eb e5        push    hl
32ec 19        add     hl,de
32ed eb        ex      de,hl
32ee e1        pop     hl
32ef 29        add     hl,hl
32f0 29        add     hl,hl
32f1 29        add     hl,hl
32f2 e5        push    hl
32f3 19        add     hl,de
32f4 eb        ex      de,hl
32f5 e1        pop     hl
32f6 29        add     hl,hl
32f7 19        add     hl,de
32f8 c9        ret     

32f9 47        ld      b,a
32fa e6f0      and     0f0h
32fc 0f        rrca    
32fd 4f        ld      c,a
32fe 0f        rrca    
32ff 0f        rrca    
3300 81        add     a,c
3301 4f        ld      c,a
3302 78        ld      a,b
3303 e60f      and     0fh
3305 81        add     a,c
3306 c9        ret     

3307 0603      ld      b,03h
3309 eb        ex      de,hl
330a b7        or      a
330b 1a        ld      a,(de)
330c 9e        sbc     a,(hl)
330d 27        daa     
330e 12        ld      (de),a
330f 23        inc     hl
3310 13        inc     de
3311 10f8      djnz    330bh
3313 d21733    jp      nc,3317h
3316 37        scf     
3317 c9        ret     

3318 0603      ld      b,03h
331a b7        or      a
331b 1a        ld      a,(de)
331c 8e        adc     a,(hl)
331d 27        daa     
331e 77        ld      (hl),a
331f 23        inc     hl
3320 13        inc     de
3321 10f8      djnz    331bh
3323 d22633    jp      nc,3326h
3326 c9        ret     

3327 26ff      ld      h,0ffh
3329 24        inc     h
332a d664      sub     64h
332c 30fb      jr      nc,3329h
332e c664      add     a,64h
3330 2eff      ld      l,0ffh
3332 2c        inc     l
3333 d60a      sub     0ah
3335 30fb      jr      nc,3332h
3337 c60a      add     a,0ah
3339 4f        ld      c,a
333a 7d        ld      a,l
333b 07        rlca    
333c 07        rlca    
333d 07        rlca    
333e 07        rlca    
333f b1        or      c
3340 6f        ld      l,a
3341 c9        ret     

3342 7c        ld      a,h
3343 b7        or      a
3344 f24b33    jp      p,334bh
3347 111027    ld      de,2710h
334a 19        add     hl,de
334b 3eff      ld      a,0ffh
334d 011027    ld      bc,2710h
3350 a7        and     a
3351 3c        inc     a
3352 ed42      sbc     hl,bc
3354 30fb      jr      nc,3351h
3356 09        add     hl,bc
3357 3eff      ld      a,0ffh
3359 01e803    ld      bc,03e8h
335c a7        and     a
335d 3c        inc     a
335e ed42      sbc     hl,bc
3360 30fb      jr      nc,335dh
3362 09        add     hl,bc
3363 07        rlca    
3364 07        rlca    
3365 07        rlca    
3366 07        rlca    
3367 57        ld      d,a
3368 3eff      ld      a,0ffh
336a 016400    ld      bc,0064h
336d a7        and     a
336e 3c        inc     a
336f ed42      sbc     hl,bc
3371 30fb      jr      nc,336eh
3373 09        add     hl,bc
3374 b2        or      d
3375 57        ld      d,a
3376 1eff      ld      e,0ffh
3378 7d        ld      a,l
3379 1c        inc     e
337a d60a      sub     0ah
337c 30fb      jr      nc,3379h
337e c60a      add     a,0ah
3380 4f        ld      c,a
3381 7b        ld      a,e
3382 07        rlca    
3383 07        rlca    
3384 07        rlca    
3385 07        rlca    
3386 b1        or      c
3387 5f        ld      e,a
3388 eb        ex      de,hl
3389 c9        ret     

338a 22908b    ld      (8b90h),hl
338d eb        ex      de,hl
338e af        xor     a
338f 32928b    ld      (8b92h),a
3392 7c        ld      a,h
3393 32938b    ld      (8b93h),a
3396 b7        or      a
3397 f2a133    jp      p,33a1h
339a eb        ex      de,hl
339b 210000    ld      hl,0000h
339e b7        or      a
339f ed52      sbc     hl,de
33a1 1e00      ld      e,00h
33a3 0610      ld      b,10h
33a5 b7        or      a
33a6 cb15      rl      l
33a8 cb14      rl      h
33aa cb13      rl      e
33ac 7b        ld      a,e
33ad d60a      sub     0ah
33af 3f        ccf     
33b0 d2b433    jp      nc,33b4h
33b3 5f        ld      e,a
33b4 10f0      djnz    33a6h
33b6 cb15      rl      l
33b8 cb14      rl      h
33ba 7b        ld      a,e
33bb c630      add     a,30h
33bd cdd233    call    33d2h
33c0 7c        ld      a,h
33c1 b5        or      l
33c2 c2a133    jp      nz,33a1h
33c5 3a938b    ld      a,(8b93h)
33c8 b7        or      a
33c9 f2d133    jp      p,33d1h
33cc 3e2d      ld      a,2dh
33ce cdd233    call    33d2h
33d1 c9        ret     

33d2 e5        push    hl
33d3 f5        push    af
33d4 2a908b    ld      hl,(8b90h)
33d7 54        ld      d,h
33d8 5d        ld      e,l
33d9 13        inc     de
33da ed53908b  ld      (8b90h),de
33de 3a928b    ld      a,(8b92h)
33e1 b7        or      a
33e2 caea33    jp      z,33eah
33e5 4f        ld      c,a
33e6 0600      ld      b,00h
33e8 edb8      lddr    
33ea 3a928b    ld      a,(8b92h)
33ed 3c        inc     a
33ee 32928b    ld      (8b92h),a
33f1 77        ld      (hl),a
33f2 eb        ex      de,hl
33f3 f1        pop     af
33f4 77        ld      (hl),a
33f5 e1        pop     hl
33f6 c9        ret     

33f7 f5        push    af
33f8 e6f0      and     0f0h
33fa 0f        rrca    
33fb 0f        rrca    
33fc 0f        rrca    
33fd 0f        rrca    
33fe cd0a34    call    340ah
3401 57        ld      d,a
3402 f1        pop     af
3403 e60f      and     0fh
3405 cd0a34    call    340ah
3408 5f        ld      e,a
3409 c9        ret     

340a fe0a      cp      0ah
340c da1134    jp      c,3411h
340f c607      add     a,07h
3411 c630      add     a,30h
3413 c9        ret     

3414 f5        push    af
3415 e6f0      and     0f0h
3417 0f        rrca    
3418 0f        rrca    
3419 0f        rrca    
341a 0f        rrca    
341b c630      add     a,30h
341d 57        ld      d,a
341e f1        pop     af
341f e60f      and     0fh
3421 c630      add     a,30h
3423 5f        ld      e,a
3424 c9        ret     

3425 b7        or      a
3426 ed52      sbc     hl,de
3428 e0        ret     po

3429 7c        ld      a,h
342a 1f        rra     
342b ee40      xor     40h
342d 37        scf     
342e 8f        adc     a,a
342f c9        ret     

3430 7c        ld      a,h
3431 a7        and     a
3432 fa5134    jp      m,3451h
3435 e5        push    hl
3436 117f0c    ld      de,0c7fh
3439 a7        and     a
343a ed52      sbc     hl,de
343c e1        pop     hl
343d f25534    jp      p,3455h
3440 e5        push    hl
3441 e5        push    hl
3442 d1        pop     de
3443 01e803    ld      bc,03e8h
3446 cd0b36    call    360bh
3449 d1        pop     de
344a 01e803    ld      bc,03e8h
344d cd0b36    call    360bh
3450 c9        ret     

3451 210000    ld      hl,0000h
3454 c9        ret     

3455 21ff7f    ld      hl,7fffh
3458 c9        ret     

3459 11948b    ld      de,8b94h
345c 21978b    ld      hl,8b97h
345f 0602      ld      b,02h
3461 b7        or      a
3462 1a        ld      a,(de)
3463 9e        sbc     a,(hl)
3464 27        daa     
3465 12        ld      (de),a
3466 23        inc     hl
3467 13        inc     de
3468 10f8      djnz    3462h
346a d27134    jp      nc,3471h
346d d640      sub     40h
346f 1b        dec     de
3470 12        ld      (de),a
3471 c9        ret     

3472 46        ld      b,(hl)
3473 23        inc     hl
3474 af        xor     a
3475 32938b    ld      (8b93h),a
3478 110000    ld      de,0000h
347b b0        or      b
347c cac534    jp      z,34c5h
347f 7e        ld      a,(hl)
3480 fe2d      cp      2dh
3482 c28d34    jp      nz,348dh
3485 3eff      ld      a,0ffh
3487 32938b    ld      (8b93h),a
348a c39234    jp      3492h
348d fe2b      cp      2bh
348f c39834    jp      3498h
3492 23        inc     hl
3493 05        dec     b
3494 cac534    jp      z,34c5h
3497 7e        ld      a,(hl)
3498 d630      sub     30h
349a dac534    jp      c,34c5h
349d fe0a      cp      0ah
349f d2c534    jp      nc,34c5h
34a2 4f        ld      c,a
34a3 e5        push    hl
34a4 eb        ex      de,hl
34a5 29        add     hl,hl
34a6 5d        ld      e,l
34a7 54        ld      d,h
34a8 29        add     hl,hl
34a9 29        add     hl,hl
34aa 19        add     hl,de
34ab 59        ld      e,c
34ac 1600      ld      d,00h
34ae 19        add     hl,de
34af eb        ex      de,hl
34b0 e1        pop     hl
34b1 23        inc     hl
34b2 10e3      djnz    3497h
34b4 eb        ex      de,hl
34b5 3a938b    ld      a,(8b93h)
34b8 b7        or      a
34b9 cac334    jp      z,34c3h
34bc eb        ex      de,hl
34bd 210000    ld      hl,0000h
34c0 b7        or      a
34c1 ed52      sbc     hl,de
34c3 b7        or      a
34c4 c9        ret     

34c5 eb        ex      de,hl
34c6 37        scf     
34c7 c9        ret     

34c8 7c        ld      a,h
34c9 32a28b    ld      (8ba2h),a
34cc aa        xor     d
34cd 32a08b    ld      (8ba0h),a
34d0 7a        ld      a,d
34d1 b7        or      a
34d2 f2db34    jp      p,34dbh
34d5 97        sub     a
34d6 93        sub     e
34d7 5f        ld      e,a
34d8 9f        sbc     a,a
34d9 92        sub     d
34da 57        ld      d,a
34db 7c        ld      a,h
34dc b7        or      a
34dd f2e634    jp      p,34e6h
34e0 97        sub     a
34e1 95        sub     l
34e2 6f        ld      l,a
34e3 9f        sbc     a,a
34e4 94        sub     h
34e5 67        ld      h,a
34e6 cd0335    call    3503h
34e9 d8        ret     c

34ea 3aa08b    ld      a,(8ba0h)
34ed b7        or      a
34ee f2f734    jp      p,34f7h
34f1 97        sub     a
34f2 95        sub     l
34f3 6f        ld      l,a
34f4 9f        sbc     a,a
34f5 94        sub     h
34f6 67        ld      h,a
34f7 3aa28b    ld      a,(8ba2h)
34fa b7        or      a
34fb f0        ret     p

34fc 97        sub     a
34fd 93        sub     e
34fe 5f        ld      e,a
34ff 9f        sbc     a,a
3500 92        sub     d
3501 57        ld      d,a
3502 c9        ret     

3503 7b        ld      a,e
3504 b2        or      d
3505 c20c35    jp      nz,350ch
3508 37        scf     
3509 c32e35    jp      352eh
350c 4d        ld      c,l
350d 7c        ld      a,h
350e 210000    ld      hl,0000h
3511 0610      ld      b,10h
3513 b7        or      a
3514 cb11      rl      c
3516 17        rla     
3517 cb15      rl      l
3519 cb14      rl      h
351b e5        push    hl
351c ed52      sbc     hl,de
351e 3f        ccf     
351f da2335    jp      c,3523h
3522 e3        ex      (sp),hl
3523 33        inc     sp
3524 33        inc     sp
3525 10ed      djnz    3514h
3527 eb        ex      de,hl
3528 cb11      rl      c
352a 69        ld      l,c
352b 17        rla     
352c 67        ld      h,a
352d b7        or      a
352e c9        ret     

352f 7b        ld      a,e
3530 b2        or      d
3531 2007      jr      nz,353ah
3533 210000    ld      hl,0000h
3536 54        ld      d,h
3537 5d        ld      e,l
3538 37        scf     
3539 c9        ret     

353a 210000    ld      hl,0000h
353d 229a8b    ld      (8b9ah),hl
3540 0620      ld      b,20h
3542 b7        or      a
3543 2a9c8b    ld      hl,(8b9ch)
3546 cb15      rl      l
3548 cb14      rl      h
354a 229c8b    ld      (8b9ch),hl
354d 2a9e8b    ld      hl,(8b9eh)
3550 cb15      rl      l
3552 cb14      rl      h
3554 229e8b    ld      (8b9eh),hl
3557 2a9a8b    ld      hl,(8b9ah)
355a cb15      rl      l
355c cb14      rl      h
355e 229a8b    ld      (8b9ah),hl
3561 ed52      sbc     hl,de
3563 3f        ccf     
3564 3003      jr      nc,3569h
3566 229a8b    ld      (8b9ah),hl
3569 10d8      djnz    3543h
356b 2a9c8b    ld      hl,(8b9ch)
356e cb15      rl      l
3570 cb14      rl      h
3572 229c8b    ld      (8b9ch),hl
3575 2a9e8b    ld      hl,(8b9eh)
3578 cb15      rl      l
357a cb14      rl      h
357c 229e8b    ld      (8b9eh),hl
357f 2a9c8b    ld      hl,(8b9ch)
3582 b7        or      a
3583 ed5b9a8b  ld      de,(8b9ah)
3587 c9        ret     

3588 110100    ld      de,0001h
358b 013200    ld      bc,0032h
358e cd0b36    call    360bh
3591 ed5b9a8b  ld      de,(8b9ah)
3595 d5        push    de
3596 29        add     hl,hl
3597 eb        ex      de,hl
3598 21b235    ld      hl,35b2h
359b 19        add     hl,de
359c 4e        ld      c,(hl)
359d 23        inc     hl
359e 46        ld      b,(hl)
359f 23        inc     hl
35a0 5e        ld      e,(hl)
35a1 23        inc     hl
35a2 56        ld      d,(hl)
35a3 eb        ex      de,hl
35a4 a7        and     a
35a5 ed42      sbc     hl,bc
35a7 d1        pop     de
35a8 c5        push    bc
35a9 013200    ld      bc,0032h
35ac cd0b36    call    360bh
35af c1        pop     bc
35b0 09        add     hl,bc
35b1 c9        ret     

35b2 00        nop     
35b3 00        nop     
35b4 b4        or      h
35b5 0b        dec     bc
35b6 ff        rst     38h
35b7 08        ex      af,af'
35b8 69        ld      l,c
35b9 07        rlca    
35ba 49        ld      c,c
35bb 066a      ld      b,6ah
35bd 05        dec     b
35be b4        or      h
35bf 04        inc     b
35c0 1a        ld      a,(de)
35c1 04        inc     b
35c2 94        sub     h
35c3 03        inc     bc
35c4 4d        ld      c,l
35c5 44        ld      b,h
35c6 210000    ld      hl,0000h
35c9 229c8b    ld      (8b9ch),hl
35cc 229e8b    ld      (8b9eh),hl
35cf 3e0f      ld      a,0fh
35d1 cb23      sla     e
35d3 cb12      rl      d
35d5 3010      jr      nc,35e7h
35d7 2a9c8b    ld      hl,(8b9ch)
35da 09        add     hl,bc
35db 229c8b    ld      (8b9ch),hl
35de 3007      jr      nc,35e7h
35e0 2a9e8b    ld      hl,(8b9eh)
35e3 23        inc     hl
35e4 229e8b    ld      (8b9eh),hl
35e7 2a9c8b    ld      hl,(8b9ch)
35ea 29        add     hl,hl
35eb 229c8b    ld      (8b9ch),hl
35ee 2a9e8b    ld      hl,(8b9eh)
35f1 ed6a      adc     hl,hl
35f3 229e8b    ld      (8b9eh),hl
35f6 3d        dec     a
35f7 20d8      jr      nz,35d1h
35f9 b2        or      d
35fa f0        ret     p

35fb 2a9c8b    ld      hl,(8b9ch)
35fe 09        add     hl,bc
35ff 229c8b    ld      (8b9ch),hl
3602 d0        ret     nc

3603 2a9e8b    ld      hl,(8b9eh)
3606 23        inc     hl
3607 229e8b    ld      (8b9eh),hl
360a c9        ret     

360b 7a        ld      a,d
360c ac        xor     h
360d 32a28b    ld      (8ba2h),a
3610 a8        xor     b
3611 32a08b    ld      (8ba0h),a
3614 78        ld      a,b
3615 b7        or      a
3616 f21f36    jp      p,361fh
3619 97        sub     a
361a 91        sub     c
361b 4f        ld      c,a
361c 9f        sbc     a,a
361d 90        sub     b
361e 47        ld      b,a
361f 7a        ld      a,d
3620 b7        or      a
3621 f22a36    jp      p,362ah
3624 97        sub     a
3625 93        sub     e
3626 5f        ld      e,a
3627 9f        sbc     a,a
3628 92        sub     d
3629 57        ld      d,a
362a 7c        ld      a,h
362b b7        or      a
362c f23536    jp      p,3635h
362f 97        sub     a
3630 95        sub     l
3631 6f        ld      l,a
3632 9f        sbc     a,a
3633 94        sub     h
3634 67        ld      h,a
3635 c5        push    bc
3636 cdc435    call    35c4h
3639 d1        pop     de
363a cd2f35    call    352fh
363d 3aa08b    ld      a,(8ba0h)
3640 b7        or      a
3641 f24a36    jp      p,364ah
3644 97        sub     a
3645 95        sub     l
3646 6f        ld      l,a
3647 9f        sbc     a,a
3648 94        sub     h
3649 67        ld      h,a
364a 3aa28b    ld      a,(8ba2h)
364d b7        or      a
364e f0        ret     p

364f 97        sub     a
3650 93        sub     e
3651 5f        ld      e,a
3652 9f        sbc     a,a
3653 92        sub     d
3654 57        ld      d,a
3655 c9        ret     

3656 7b        ld      a,e
3657 e60f      and     0fh
3659 5f        ld      e,a
365a 7a        ld      a,d
365b e60f      and     0fh
365d 07        rlca    
365e 07        rlca    
365f 07        rlca    
3660 07        rlca    
3661 b3        or      e
3662 c9        ret     

3663 0602      ld      b,02h
3665 b7        or      a
3666 1a        ld      a,(de)
3667 9e        sbc     a,(hl)
3668 27        daa     
3669 d26f36    jp      nc,366fh
366c d640      sub     40h
366e 37        scf     
366f 12        ld      (de),a
3670 23        inc     hl
3671 13        inc     de
3672 10f2      djnz    3666h
3674 1a        ld      a,(de)
3675 9e        sbc     a,(hl)
3676 27        daa     
3677 d27c36    jp      nc,367ch
367a d676      sub     76h
367c 12        ld      (de),a
367d c9        ret     

367e 217a80    ld      hl,807ah
3681 11c06e    ld      de,6ec0h
3684 0608      ld      b,08h
3686 1a        ld      a,(de)
3687 be        cp      (hl)
3688 c28f36    jp      nz,368fh
368b 13        inc     de
368c 23        inc     hl
368d 10f7      djnz    3686h
368f c9        ret     

3690 0608      ld      b,08h
3692 af        xor     a
3693 86        add     a,(hl)
3694 23        inc     hl
3695 10fc      djnz    3693h
3697 ed44      neg     
3699 23        inc     hl
369a be        cp      (hl)
369b c9        ret     

369c 21c06e    ld      hl,6ec0h
369f 117a80    ld      de,807ah
36a2 010800    ld      bc,0008h
36a5 edb0      ldir    
36a7 cd7e36    call    367eh
36aa cab636    jp      z,36b6h
36ad 21c86e    ld      hl,6ec8h
36b0 cdb139    call    39b1h
36b3 cdfe36    call    36feh
36b6 c9        ret     

36b7 cd9c36    call    369ch
36ba 3ac06e    ld      a,(6ec0h)
36bd 2f        cpl     
36be 327a80    ld      (807ah),a
36c1 c9        ret     

36c2 0608      ld      b,08h
36c4 af        xor     a
36c5 86        add     a,(hl)
36c6 23        inc     hl
36c7 10fc      djnz    36c5h
36c9 ed44      neg     
36cb 23        inc     hl
36cc 77        ld      (hl),a
36cd c9        ret     

36ce 210500    ld      hl,0005h
36d1 c31c37    jp      371ch
36d4 210a00    ld      hl,000ah
36d7 c31c37    jp      371ch
36da 211900    ld      hl,0019h
36dd c31c37    jp      371ch
36e0 211900    ld      hl,0019h
36e3 c31c37    jp      371ch
36e6 216400    ld      hl,0064h
36e9 c31c37    jp      371ch
36ec 21c800    ld      hl,00c8h
36ef c31c37    jp      371ch
36f2 21fa00    ld      hl,00fah
36f5 c31c37    jp      371ch
36f8 21f401    ld      hl,01f4h
36fb c31c37    jp      371ch
36fe 21e803    ld      hl,03e8h
3701 c31c37    jp      371ch
3704 21c800    ld      hl,00c8h
3707 c32f37    jp      372fh
370a 21d007    ld      hl,07d0h
370d c31c37    jp      371ch
3710 218813    ld      hl,1388h
3713 c31c37    jp      371ch
3716 21fa00    ld      hl,00fah
3719 c32f37    jp      372fh
371c c5        push    bc
371d 01a500    ld      bc,00a5h
3720 0b        dec     bc
3721 78        ld      a,b
3722 b1        or      c
3723 c22037    jp      nz,3720h
3726 03        inc     bc
3727 2b        dec     hl
3728 7c        ld      a,h
3729 b5        or      l
372a c21d37    jp      nz,371dh
372d c1        pop     bc
372e c9        ret     

372f c5        push    bc
3730 010200    ld      bc,0002h
3733 0b        dec     bc
3734 e5        push    hl
3735 c5        push    bc
3736 cd3039    call    3930h
3739 c1        pop     bc
373a e1        pop     hl
373b c24a37    jp      nz,374ah
373e 78        ld      a,b
373f b1        or      c
3740 c23337    jp      nz,3733h
3743 03        inc     bc
3744 2b        dec     hl
3745 7c        ld      a,h
3746 b5        or      l
3747 c23037    jp      nz,3730h
374a c1        pop     bc
374b c9        ret     

374c e5        push    hl
374d 2a5090    ld      hl,(9050h)
3750 7c        ld      a,h
3751 b5        or      l
3752 ca5937    jp      z,3759h
3755 2b        dec     hl
3756 225090    ld      (9050h),hl
3759 e1        pop     hl
375a c9        ret     

375b e5        push    hl
375c 21e803    ld      hl,03e8h
375f 225090    ld      (9050h),hl
3762 e1        pop     hl
3763 c9        ret     

3764 e5        push    hl
3765 d5        push    de
3766 57        ld      d,a
3767 2a5090    ld      hl,(9050h)
376a 7c        ld      a,h
376b b5        or      l
376c 7a        ld      a,d
376d d1        pop     de
376e e1        pop     hl
376f c9        ret     

3770 e5        push    hl
3771 2a5290    ld      hl,(9052h)
3774 7c        ld      a,h
3775 b5        or      l
3776 ca7d37    jp      z,377dh
3779 2b        dec     hl
377a 225290    ld      (9052h),hl
377d e1        pop     hl
377e c9        ret     

377f e5        push    hl
3780 21e803    ld      hl,03e8h
3783 225290    ld      (9052h),hl
3786 e1        pop     hl
3787 c9        ret     

3788 e5        push    hl
3789 d5        push    de
378a 57        ld      d,a
378b 2a5290    ld      hl,(9052h)
378e 7c        ld      a,h
378f b5        or      l
3790 7a        ld      a,d
3791 d1        pop     de
3792 e1        pop     hl
3793 c9        ret     

3794 e5        push    hl
3795 2a5490    ld      hl,(9054h)
3798 7c        ld      a,h
3799 b5        or      l
379a caa737    jp      z,37a7h
379d 2b        dec     hl
379e 225490    ld      (9054h),hl
37a1 210100    ld      hl,0001h
37a4 cd1c37    call    371ch
37a7 e1        pop     hl
37a8 c9        ret     

37a9 e5        push    hl
37aa 218813    ld      hl,1388h
37ad 225490    ld      (9054h),hl
37b0 e1        pop     hl
37b1 c9        ret     

37b2 e5        push    hl
37b3 d5        push    de
37b4 57        ld      d,a
37b5 2a5490    ld      hl,(9054h)
37b8 7c        ld      a,h
37b9 b5        or      l
37ba 7a        ld      a,d
37bb d1        pop     de
37bc e1        pop     hl
37bd c9        ret     

37be e5        push    hl
37bf 2a4e90    ld      hl,(904eh)
37c2 7c        ld      a,h
37c3 b5        or      l
37c4 cad337    jp      z,37d3h
37c7 2b        dec     hl
37c8 224e90    ld      (904eh),hl
37cb 210500    ld      hl,0005h
37ce d5        push    de
37cf cd1c37    call    371ch
37d2 d1        pop     de
37d3 e1        pop     hl
37d4 c9        ret     

37d5 e5        push    hl
37d6 210004    ld      hl,0400h
37d9 c3dc37    jp      37dch
37dc 224e90    ld      (904eh),hl
37df e1        pop     hl
37e0 c9        ret     

37e1 e5        push    hl
37e2 2a4e90    ld      hl,(904eh)
37e5 7c        ld      a,h
37e6 b5        or      l
37e7 e1        pop     hl
37e8 c9        ret     

37e9 3abb8b    ld      a,(8bbbh)
37ec cbcf      set     1,a
37ee 32bb8b    ld      (8bbbh),a
37f1 0e07      ld      c,07h
37f3 c33038    jp      3830h
37f6 3abb8b    ld      a,(8bbbh)
37f9 ee01      xor     01h
37fb 32bb8b    ld      (8bbbh),a
37fe 0e05      ld      c,05h
3800 cd3038    call    3830h
3803 3abb8b    ld      a,(8bbbh)
3806 cb47      bit     0,a
3808 c41438    call    nz,3814h
380b 3abb8b    ld      a,(8bbbh)
380e cb4f      bit     1,a
3810 c4e937    call    nz,37e9h
3813 c9        ret     

3814 3abb8b    ld      a,(8bbbh)
3817 cbc7      set     0,a
3819 32bb8b    ld      (8bbbh),a
381c 0e06      ld      c,06h
381e c33038    jp      3830h
3821 3abb8b    ld      a,(8bbbh)
3824 cb87      res     0,a
3826 cb8f      res     1,a
3828 32bb8b    ld      (8bbbh),a
382b 0e05      ld      c,05h
382d c33038    jp      3830h
3830 3a3e8b    ld      a,(8b3eh)
3833 e6f0      and     0f0h
3835 b1        or      c
3836 d336      out     (36h),a
3838 cbdf      set     3,a
383a d336      out     (36h),a
383c f5        push    af
383d cdce36    call    36ceh
3840 f1        pop     af
3841 cb9f      res     3,a
3843 d336      out     (36h),a
3845 3a3e8b    ld      a,(8b3eh)
3848 d336      out     (36h),a
384a c9        ret     

384b 0603      ld      b,03h
384d 214490    ld      hl,9044h
3850 0e08      ld      c,08h
3852 3a3e8b    ld      a,(8b3eh)
3855 e6f0      and     0f0h
3857 b1        or      c
3858 cb5f      bit     3,a
385a ca6338    jp      z,3863h
385d cb9f      res     3,a
385f d336      out     (36h),a
3861 cbdf      set     3,a
3863 d336      out     (36h),a
3865 db35      in      a,(35h)
3867 cdbb39    call    39bbh
386a 77        ld      (hl),a
386b 23        inc     hl
386c 0c        inc     c
386d 10e3      djnz    3852h
386f 3a3e8b    ld      a,(8b3eh)
3872 d336      out     (36h),a
3874 2a4490    ld      hl,(9044h)
3877 223b80    ld      (803bh),hl
387a c9        ret     

387b f6ff      or      0ffh
387d c9        ret     

387e 0602      ld      b,02h
3880 c3bf38    jp      38bfh
3883 060c      ld      b,0ch
3885 c3bf38    jp      38bfh
3888 0644      ld      b,44h
388a c3bf38    jp      38bfh
388d 0680      ld      b,80h
388f c3ba38    jp      38bah
3892 0640      ld      b,40h
3894 c3ba38    jp      38bah
3897 0620      ld      b,20h
3899 c3ba38    jp      38bah
389c 0610      ld      b,10h
389e c3ba38    jp      38bah
38a1 0608      ld      b,08h
38a3 c3ba38    jp      38bah
38a6 0604      ld      b,04h
38a8 c3ba38    jp      38bah
38ab 0602      ld      b,02h
38ad c3ba38    jp      38bah
38b0 0601      ld      b,01h
38b2 c3ba38    jp      38bah
38b5 0607      ld      b,07h
38b7 c3ba38    jp      38bah
38ba 3e0a      ld      a,0ah
38bc c3c138    jp      38c1h
38bf 3e07      ld      a,07h
38c1 cdcd38    call    38cdh
38c4 a0        and     b
38c5 f5        push    af
38c6 3e07      ld      a,07h
38c8 cdcd38    call    38cdh
38cb f1        pop     af
38cc c9        ret     

38cd c5        push    bc
38ce 47        ld      b,a
38cf 3a3e8b    ld      a,(8b3eh)
38d2 e6f0      and     0f0h
38d4 b0        or      b
38d5 323e8b    ld      (8b3eh),a
38d8 d336      out     (36h),a
38da db35      in      a,(35h)
38dc c1        pop     bc
38dd c9        ret     

38de cd3e39    call    393eh
38e1 213c90    ld      hl,903ch
38e4 7e        ld      a,(hl)
38e5 f6fe      or      0feh
38e7 fefe      cp      0feh
38e9 c22e39    jp      nz,392eh
38ec c32b39    jp      392bh
38ef cd3e39    call    393eh
38f2 213f90    ld      hl,903fh
38f5 7e        ld      a,(hl)
38f6 f6fb      or      0fbh
38f8 fefb      cp      0fbh
38fa c22e39    jp      nz,392eh
38fd c32b39    jp      392bh
3900 cd3e39    call    393eh
3903 214390    ld      hl,9043h
3906 7e        ld      a,(hl)
3907 f67f      or      7fh
3909 fe7f      cp      7fh
390b c22e39    jp      nz,392eh
390e c32b39    jp      392bh
3911 cd3e39    call    393eh
3914 3a3d90    ld      a,(903dh)
3917 e6e0      and     0e0h
3919 fec0      cp      0c0h
391b c22e39    jp      nz,392eh
391e 3a3f90    ld      a,(903fh)
3921 e6e0      and     0e0h
3923 fe20      cp      20h
3925 c22e39    jp      nz,392eh
3928 c32b39    jp      392bh
392b f6ff      or      0ffh
392d c9        ret     

392e af        xor     a
392f c9        ret     

3930 00        nop     
3931 cd3e39    call    393eh
3934 cd6539    call    3965h
3937 ca3d39    jp      z,393dh
393a cd7939    call    3979h
393d c9        ret     

393e 00        nop     
393f 0608      ld      b,08h
3941 213c90    ld      hl,903ch
3944 0e00      ld      c,00h
3946 3a3e8b    ld      a,(8b3eh)
3949 e6f0      and     0f0h
394b b1        or      c
394c d336      out     (36h),a
394e db35      in      a,(35h)
3950 cdbb39    call    39bbh
3953 77        ld      (hl),a
3954 23        inc     hl
3955 0c        inc     c
3956 10ee      djnz    3946h
3958 3a3e8b    ld      a,(8b3eh)
395b d336      out     (36h),a
395d 214390    ld      hl,9043h
3960 7e        ld      a,(hl)
3961 f603      or      03h
3963 77        ld      (hl),a
3964 c9        ret     

3965 00        nop     
3966 0608      ld      b,08h
3968 213c90    ld      hl,903ch
396b 3eff      ld      a,0ffh
396d a6        and     (hl)
396e 23        inc     hl
396f 10fc      djnz    396dh
3971 eeff      xor     0ffh
3973 ca7839    jp      z,3978h
3976 f6ff      or      0ffh
3978 c9        ret     

3979 af        xor     a
397a 323b90    ld      (903bh),a
397d 0608      ld      b,08h
397f 213c90    ld      hl,903ch
3982 57        ld      d,a
3983 7e        ld      a,(hl)
3984 57        ld      d,a
3985 feff      cp      0ffh
3987 c29939    jp      nz,3999h
398a 3a3b90    ld      a,(903bh)
398d c608      add     a,08h
398f 323b90    ld      (903bh),a
3992 23        inc     hl
3993 10ee      djnz    3983h
3995 af        xor     a
3996 c3ad39    jp      39adh
3999 213b90    ld      hl,903bh
399c 7a        ld      a,d
399d 17        rla     
399e d2a539    jp      nc,39a5h
39a1 34        inc     (hl)
39a2 c39d39    jp      399dh
39a5 3a3b90    ld      a,(903bh)
39a8 323a90    ld      (903ah),a
39ab f6ff      or      0ffh
39ad c9        ret     

39ae cdda36    call    36dah
39b1 cd3e39    call    393eh
39b4 cd6539    call    3965h
39b7 c2b139    jp      nz,39b1h
39ba c9        ret     

39bb e5        push    hl
39bc c5        push    bc
39bd 57        ld      d,a
39be cdce36    call    36ceh
39c1 db35      in      a,(35h)
39c3 ba        cp      d
39c4 c2bd39    jp      nz,39bdh
39c7 c1        pop     bc
39c8 e1        pop     hl
39c9 c9        ret     

39ca 00        nop     
39cb cde90c    call    0ce9h
39ce 21f26e    ld      hl,6ef2h
39d1 3a3a90    ld      a,(903ah)
39d4 4f        ld      c,a
39d5 0600      ld      b,00h
39d7 09        add     hl,bc
39d8 7e        ld      a,(hl)
39d9 c9        ret     

39da cdde39    call    39deh
39dd c9        ret     

39de 3eff      ld      a,0ffh
39e0 21028c    ld      hl,8c02h
39e3 11038c    ld      de,8c03h
39e6 010600    ld      bc,0006h
39e9 77        ld      (hl),a
39ea edb0      ldir    
39ec c9        ret     

39ed 00        nop     
39ee cdb10e    call    0eb1h
39f1 3e00      ld      a,00h
39f3 cd373a    call    3a37h
39f6 21326f    ld      hl,6f32h
39f9 cdfd39    call    39fdh
39fc c9        ret     

39fd 0640      ld      b,40h
39ff c5        push    bc
3a00 e5        push    hl
3a01 cdb53a    call    3ab5h
3a04 dca73a    call    c,3aa7h
3a07 e1        pop     hl
3a08 c1        pop     bc
3a09 e5        push    hl
3a0a 7e        ld      a,(hl)
3a0b fe24      cp      24h
3a0d ca183a    jp      z,3a18h
3a10 c5        push    bc
3a11 cd373a    call    3a37h
3a14 23        inc     hl
3a15 c1        pop     bc
3a16 10f2      djnz    3a0ah
3a18 e1        pop     hl
3a19 c9        ret     

3a1a 064c      ld      b,4ch
3a1c fe20      cp      20h
3a1e d0        ret     nc

3a1f fe0a      cp      0ah
3a21 c8        ret     z

3a22 fe0d      cp      0dh
3a24 c8        ret     z

3a25 062a      ld      b,2ah
3a27 fe1b      cp      1bh
3a29 ca353a    jp      z,3a35h
3a2c 06a3      ld      b,0a3h
3a2e fe9c      cp      9ch
3a30 ca353a    jp      z,3a35h
3a33 067e      ld      b,7eh
3a35 78        ld      a,b
3a36 c9        ret     

3a37 00        nop     
3a38 00        nop     
3a39 f5        push    af
3a3a e5        push    hl
3a3b c5        push    bc
3a3c d5        push    de
3a3d f5        push    af
3a3e 3abf8b    ld      a,(8bbfh)
3a41 cb7f      bit     7,a
3a43 c2513a    jp      nz,3a51h
3a46 3ac08b    ld      a,(8bc0h)
3a49 cb7f      bit     7,a
3a4b ca693a    jp      z,3a69h
3a4e c3603a    jp      3a60h
3a51 3ac28b    ld      a,(8bc2h)
3a54 cb77      bit     6,a
3a56 2008      jr      nz,3a60h
3a58 f1        pop     af
3a59 f5        push    af
3a5a cd1a3a    call    3a1ah
3a5d cd5941    call    4159h
3a60 cdcc3a    call    3acch
3a63 c4ce36    call    nz,36ceh
3a66 c38d3a    jp      3a8dh
3a69 cdb53a    call    3ab5h
3a6c d2753a    jp      nc,3a75h
3a6f cda73a    call    3aa7h
3a72 c3693a    jp      3a69h
3a75 cda937    call    37a9h
3a78 cdcc3a    call    3acch
3a7b ca8d3a    jp      z,3a8dh
3a7e cd9437    call    3794h
3a81 cdb237    call    37b2h
3a84 c2783a    jp      nz,3a78h
3a87 cdae3a    call    3aaeh
3a8a c3693a    jp      3a69h
3a8d f1        pop     af
3a8e 21c08b    ld      hl,8bc0h
3a91 cb76      bit     6,(hl)
3a93 ccce41    call    z,41ceh
3a96 c3a23a    jp      3aa2h
3a99 f1        pop     af
3a9a 21c08b    ld      hl,8bc0h
3a9d cb76      bit     6,(hl)
3a9f cc6342    call    z,4263h
3aa2 d1        pop     de
3aa3 c1        pop     bc
3aa4 e1        pop     hl
3aa5 f1        pop     af
3aa6 c9        ret     

3aa7 00        nop     
3aa8 0603      ld      b,03h
3aaa cd5c0f    call    0f5ch
3aad c9        ret     

3aae 00        nop     
3aaf 0606      ld      b,06h
3ab1 cd5c0f    call    0f5ch
3ab4 c9        ret     

3ab5 00        nop     
3ab6 e5        push    hl
3ab7 cd1341    call    4113h
3aba 37        scf     
3abb c2bf3a    jp      nz,3abfh
3abe 3f        ccf     
3abf e1        pop     hl
3ac0 f5        push    af
3ac1 21c08b    ld      hl,8bc0h
3ac4 cbc6      set     0,(hl)
3ac6 3802      jr      c,3acah
3ac8 cb86      res     0,(hl)
3aca f1        pop     af
3acb c9        ret     

3acc 00        nop     
3acd cd0641    call    4106h
3ad0 c9        ret     

3ad1 f5        push    af
3ad2 c3e23a    jp      3ae2h
3ad5 c3dc3a    jp      3adch
3ad8 f5        push    af
3ad9 c3e23a    jp      3ae2h
3adc 211000    ld      hl,0010h
3adf c3fc3a    jp      3afch
3ae2 210400    ld      hl,0004h
3ae5 c3fc3a    jp      3afch
3ae8 f5        push    af
3ae9 c3f93a    jp      3af9h
3aec c3f33a    jp      3af3h
3aef f5        push    af
3af0 c3f93a    jp      3af9h
3af3 212100    ld      hl,0021h
3af6 c3fc3a    jp      3afch
3af9 210800    ld      hl,0008h
3afc c5        push    bc
3afd 010f00    ld      bc,000fh
3b00 0b        dec     bc
3b01 78        ld      a,b
3b02 b1        or      c
3b03 c2003b    jp      nz,3b00h
3b06 03        inc     bc
3b07 2b        dec     hl
3b08 7c        ld      a,h
3b09 b5        or      l
3b0a c2fd3a    jp      nz,3afdh
3b0d c1        pop     bc
3b0e f1        pop     af
3b0f 7f        ld      a,a
3b10 7f        ld      a,a
3b11 7f        ld      a,a
3b12 00        nop     
3b13 c9        ret     

3b14 00        nop     
3b15 fde5      push    iy
3b17 dd21a780  ld      ix,80a7h
3b1b fd21028c  ld      iy,8c02h
3b1f cdb13f    call    3fb1h
3b22 af        xor     a
3b23 dd7700    ld      (ix+00h),a
3b26 dd7701    ld      (ix+01h),a
3b29 ddcb08be  res     7,(ix+08h)
3b2d fd7e00    ld      a,(iy+00h)
3b30 dd7707    ld      (ix+07h),a
3b33 fe90      cp      90h
3b35 3e20      ld      a,20h
3b37 da3c3b    jp      c,3b3ch
3b3a 3e19      ld      a,19h
3b3c cd903c    call    3c90h
3b3f fd7e01    ld      a,(iy+01h)
3b42 dd7706    ld      (ix+06h),a
3b45 fd7e02    ld      a,(iy+02h)
3b48 dd7705    ld      (ix+05h),a
3b4b fd7e03    ld      a,(iy+03h)
3b4e dd7703    ld      (ix+03h),a
3b51 fd7e04    ld      a,(iy+04h)
3b54 dd7702    ld      (ix+02h),a
3b57 cd923b    call    3b92h
3b5a d2603b    jp      nc,3b60h
3b5d cd6a3b    call    3b6ah
3b60 fde1      pop     iy
3b62 c9        ret     

3b63 cdb13f    call    3fb1h
3b66 cd7e3b    call    3b7eh
3b69 c9        ret     

3b6a dd21a780  ld      ix,80a7h
3b6e ddcb03be  res     7,(ix+03h)
3b72 ddcb04ae  res     5,(ix+04h)
3b76 ddcb04e6  set     4,(ix+04h)
3b7a cdb53f    call    3fb5h
3b7d c9        ret     

3b7e dd21a780  ld      ix,80a7h
3b82 ddcb03be  res     7,(ix+03h)
3b86 ddcb04ee  set     5,(ix+04h)
3b8a ddcb04e6  set     4,(ix+04h)
3b8e cdb53f    call    3fb5h
3b91 c9        ret     

3b92 3e03      ld      a,03h
3b94 325890    ld      (9058h),a
3b97 dd7e03    ld      a,(ix+03h)
3b9a fe24      cp      24h
3b9c d2ea3b    jp      nc,3beah
3b9f 3e02      ld      a,02h
3ba1 325890    ld      (9058h),a
3ba4 dd7e02    ld      a,(ix+02h)
3ba7 fe60      cp      60h
3ba9 d2ea3b    jp      nc,3beah
3bac dd7e04    ld      a,(ix+04h)
3baf e607      and     07h
3bb1 c2b53b    jp      nz,3bb5h
3bb4 3c        inc     a
3bb5 cbe7      set     4,a
3bb7 dd7704    ld      (ix+04h),a
3bba 3e05      ld      a,05h
3bbc 325890    ld      (9058h),a
3bbf dd7e05    ld      a,(ix+05h)
3bc2 3d        dec     a
3bc3 fe31      cp      31h
3bc5 d2ea3b    jp      nc,3beah
3bc8 3e06      ld      a,06h
3bca 325890    ld      (9058h),a
3bcd dd7e06    ld      a,(ix+06h)
3bd0 3d        dec     a
3bd1 fe12      cp      12h
3bd3 d2ea3b    jp      nc,3beah
3bd6 3e05      ld      a,05h
3bd8 325890    ld      (9058h),a
3bdb cdeb3b    call    3bebh
3bde d2ea3b    jp      nc,3beah
3be1 cd253f    call    3f25h
3be4 3e00      ld      a,00h
3be6 325890    ld      (9058h),a
3be9 37        scf     
3bea c9        ret     

3beb dd7e08    ld      a,(ix+08h)
3bee e63f      and     3fh
3bf0 57        ld      d,a
3bf1 dd5e07    ld      e,(ix+07h)
3bf4 dd7e06    ld      a,(ix+06h)
3bf7 cdff3b    call    3bffh
3bfa dd7e05    ld      a,(ix+05h)
3bfd b8        cp      b
3bfe c9        ret     

3bff fe02      cp      02h
3c01 ca143c    jp      z,3c14h
3c04 0631      ld      b,31h
3c06 fe08      cp      08h
3c08 da0c3c    jp      c,3c0ch
3c0b 3c        inc     a
3c0c cb47      bit     0,a
3c0e ca283c    jp      z,3c28h
3c11 c3233c    jp      3c23h
3c14 0629      ld      b,29h
3c16 7b        ld      a,e
3c17 cb67      bit     4,a
3c19 ca1e3c    jp      z,3c1eh
3c1c c602      add     a,02h
3c1e e603      and     03h
3c20 c2283c    jp      nz,3c28h
3c23 78        ld      a,b
3c24 c601      add     a,01h
3c26 27        daa     
3c27 47        ld      b,a
3c28 c9        ret     

3c29 cdb13f    call    3fb1h
3c2c cda43c    call    3ca4h
3c2f c9        ret     

3c30 dd21a780  ld      ix,80a7h
3c34 fd212f81  ld      iy,812fh
3c38 af        xor     a
3c39 dd7700    ld      (ix+00h),a
3c3c dd7701    ld      (ix+01h),a
3c3f fd5607    ld      d,(iy+07h)
3c42 fd5e08    ld      e,(iy+08h)
3c45 cd5636    call    3656h
3c48 dd7702    ld      (ix+02h),a
3c4b fd5604    ld      d,(iy+04h)
3c4e fd5e05    ld      e,(iy+05h)
3c51 cd5636    call    3656h
3c54 dd7703    ld      (ix+03h),a
3c57 ddcb04ae  res     5,(ix+04h)
3c5b ddcb04e6  set     4,(ix+04h)
3c5f fd560a    ld      d,(iy+0ah)
3c62 fd5e0b    ld      e,(iy+0bh)
3c65 cd5636    call    3656h
3c68 dd7705    ld      (ix+05h),a
3c6b fd560d    ld      d,(iy+0dh)
3c6e fd5e0e    ld      e,(iy+0eh)
3c71 cd5636    call    3656h
3c74 dd7706    ld      (ix+06h),a
3c77 fd5610    ld      d,(iy+10h)
3c7a fd5e11    ld      e,(iy+11h)
3c7d cd5636    call    3656h
3c80 cd903c    call    3c90h
3c83 fd5612    ld      d,(iy+12h)
3c86 fd5e13    ld      e,(iy+13h)
3c89 cd5636    call    3656h
3c8c dd7707    ld      (ix+07h),a
3c8f c9        ret     

3c90 e63f      and     3fh
3c92 47        ld      b,a
3c93 dd7e08    ld      a,(ix+08h)
3c96 e6c0      and     0c0h
3c98 b0        or      b
3c99 dd7708    ld      (ix+08h),a
3c9c c9        ret     

3c9d dd21208b  ld      ix,8b20h
3ca1 c3a83c    jp      3ca8h
3ca4 dd21a780  ld      ix,80a7h
3ca8 22e98b    ld      (8be9h),hl
3cab dde5      push    ix
3cad dde5      push    ix
3caf e1        pop     hl
3cb0 11348b    ld      de,8b34h
3cb3 010a00    ld      bc,000ah
3cb6 edb0      ldir    
3cb8 dd21348b  ld      ix,8b34h
3cbc cda73e    call    3ea7h
3cbf fd213381  ld      iy,8133h
3cc3 2ae98b    ld      hl,(8be9h)
3cc6 7e        ld      a,(hl)
3cc7 22e98b    ld      (8be9h),hl
3cca fe24      cp      24h
3ccc ca113e    jp      z,3e11h
3ccf fe31      cp      31h
3cd1 dade3c    jp      c,3cdeh
3cd4 fe39      cp      39h
3cd6 d2de3c    jp      nc,3cdeh
3cd9 d630      sub     30h
3cdb c3013d    jp      3d01h
3cde fe41      cp      41h
3ce0 daed3c    jp      c,3cedh
3ce3 fe4e      cp      4eh
3ce5 d2ed3c    jp      nc,3cedh
3ce8 d638      sub     38h
3cea c3013d    jp      3d01h
3ced fe41      cp      41h
3cef dafc3c    jp      c,3cfch
3cf2 fe4e      cp      4eh
3cf4 d2fc3c    jp      nc,3cfch
3cf7 d638      sub     38h
3cf9 c3013d    jp      3d01h
3cfc 32408b    ld      (8b40h),a
3cff 3e00      ld      a,00h
3d01 87        add     a,a
3d02 5f        ld      e,a
3d03 1600      ld      d,00h
3d05 21586f    ld      hl,6f58h
3d08 19        add     hl,de
3d09 5e        ld      e,(hl)
3d0a 23        inc     hl
3d0b 56        ld      d,(hl)
3d0c eb        ex      de,hl
3d0d e9        jp      (hl)
3d0e 3a408b    ld      a,(8b40h)
3d11 cb7f      bit     7,a
3d13 ca2f3e    jp      z,3e2fh
3d16 ddcb0146  bit     0,(ix+01h)
3d1a cbbf      res     7,a
3d1c ca2f3e    jp      z,3e2fh
3d1f 3e20      ld      a,20h
3d21 c32f3e    jp      3e2fh
3d24 2ae98b    ld      hl,(8be9h)
3d27 23        inc     hl
3d28 c3c63c    jp      3cc6h
3d2b dd7e05    ld      a,(ix+05h)
3d2e c33b3e    jp      3e3bh
3d31 dd7e06    ld      a,(ix+06h)
3d34 c33b3e    jp      3e3bh
3d37 cd893e    call    3e89h
3d3a c3273e    jp      3e27h
3d3d dd7e08    ld      a,(ix+08h)
3d40 e63f      and     3fh
3d42 cd473e    call    3e47h
3d45 dd7e07    ld      a,(ix+07h)
3d48 c3353e    jp      3e35h
3d4b cd893e    call    3e89h
3d4e c31d3e    jp      3e1dh
3d51 dd7e05    ld      a,(ix+05h)
3d54 c3353e    jp      3e35h
3d57 dd7e06    ld      a,(ix+06h)
3d5a c3353e    jp      3e35h
3d5d dd7e03    ld      a,(ix+03h)
3d60 e63f      and     3fh
3d62 c3353e    jp      3e35h
3d65 dd7e03    ld      a,(ix+03h)
3d68 e63f      and     3fh
3d6a c26f3d    jp      nz,3d6fh
3d6d 3e24      ld      a,24h
3d6f fe13      cp      13h
3d71 da773d    jp      c,3d77h
3d74 d612      sub     12h
3d76 27        daa     
3d77 c3353e    jp      3e35h
3d7a dd7e02    ld      a,(ix+02h)
3d7d c3353e    jp      3e35h
3d80 214070    ld      hl,7040h
3d83 dd7e03    ld      a,(ix+03h)
3d86 e63f      and     3fh
3d88 fe12      cp      12h
3d8a da903d    jp      c,3d90h
3d8d 214270    ld      hl,7042h
3d90 c3183e    jp      3e18h
3d93 214470    ld      hl,7044h
3d96 dd7e03    ld      a,(ix+03h)
3d99 e63f      and     3fh
3d9b fe12      cp      12h
3d9d daa33d    jp      c,3da3h
3da0 214870    ld      hl,7048h
3da3 c3223e    jp      3e22h
3da6 214c70    ld      hl,704ch
3da9 dd7e03    ld      a,(ix+03h)
3dac e63f      and     3fh
3dae fe12      cp      12h
3db0 dab63d    jp      c,3db6h
3db3 214e70    ld      hl,704eh
3db6 c3183e    jp      3e18h
3db9 215070    ld      hl,7050h
3dbc dd7e03    ld      a,(ix+03h)
3dbf e63f      and     3fh
3dc1 fe12      cp      12h
3dc3 dac93d    jp      c,3dc9h
3dc6 215470    ld      hl,7054h
3dc9 c3223e    jp      3e22h
3dcc cd703e    call    3e70h
3dcf c3273e    jp      3e27h
3dd2 cd703e    call    3e70h
3dd5 c31d3e    jp      3e1dh
3dd8 dd7e05    ld      a,(ix+05h)
3ddb e60f      and     0fh
3ddd c2e23d    jp      nz,3de2h
3de0 3e0a      ld      a,0ah
3de2 3d        dec     a
3de3 fe04      cp      04h
3de5 daea3d    jp      c,3deah
3de8 3e03      ld      a,03h
3dea 87        add     a,a
3deb 4f        ld      c,a
3dec 0600      ld      b,00h
3dee 213870    ld      hl,7038h
3df1 09        add     hl,bc
3df2 c3183e    jp      3e18h
3df5 dd7e01    ld      a,(ix+01h)
3df8 c3353e    jp      3e35h
3dfb dd7e00    ld      a,(ix+00h)
3dfe c3353e    jp      3e35h
3e01 215b70    ld      hl,705bh
3e04 ddcb087e  bit     7,(ix+08h)
3e08 ca0e3e    jp      z,3e0eh
3e0b 215870    ld      hl,7058h
3e0e c31d3e    jp      3e1dh
3e11 fd360024  ld      (iy+00h),24h
3e15 dde1      pop     ix
3e17 c9        ret     

3e18 0602      ld      b,02h
3e1a c3293e    jp      3e29h
3e1d 0603      ld      b,03h
3e1f c3293e    jp      3e29h
3e22 0604      ld      b,04h
3e24 c3293e    jp      3e29h
3e27 0609      ld      b,09h
3e29 cd613e    call    3e61h
3e2c c3243d    jp      3d24h
3e2f cd413e    call    3e41h
3e32 c3243d    jp      3d24h
3e35 cd473e    call    3e47h
3e38 c3243d    jp      3d24h
3e3b cd4d3e    call    3e4dh
3e3e c3243d    jp      3d24h
3e41 fd7700    ld      (iy+00h),a
3e44 c35e3e    jp      3e5eh
3e47 cd1434    call    3414h
3e4a c3563e    jp      3e56h
3e4d cd1434    call    3414h
3e50 7a        ld      a,d
3e51 fe30      cp      30h
3e53 ca5b3e    jp      z,3e5bh
3e56 fd7200    ld      (iy+00h),d
3e59 fd23      inc     iy
3e5b fd7300    ld      (iy+00h),e
3e5e fd23      inc     iy
3e60 c9        ret     

3e61 7e        ld      a,(hl)
3e62 23        inc     hl
3e63 fe20      cp      20h
3e65 ca6f3e    jp      z,3e6fh
3e68 fd7700    ld      (iy+00h),a
3e6b fd23      inc     iy
3e6d 10f2      djnz    3e61h
3e6f c9        ret     

3e70 dd7e04    ld      a,(ix+04h)
3e73 e607      and     07h
3e75 3d        dec     a
3e76 fe07      cp      07h
3e78 da7c3e    jp      c,3e7ch
3e7b af        xor     a
3e7c 4f        ld      c,a
3e7d 87        add     a,a
3e7e 87        add     a,a
3e7f 87        add     a,a
3e80 81        add     a,c
3e81 4f        ld      c,a
3e82 0600      ld      b,00h
3e84 218d6f    ld      hl,6f8dh
3e87 09        add     hl,bc
3e88 c9        ret     

3e89 dd7e06    ld      a,(ix+06h)
3e8c fe10      cp      10h
3e8e da933e    jp      c,3e93h
3e91 d606      sub     06h
3e93 3d        dec     a
3e94 fe0c      cp      0ch
3e96 da9a3e    jp      c,3e9ah
3e99 af        xor     a
3e9a 4f        ld      c,a
3e9b 87        add     a,a
3e9c 87        add     a,a
3e9d 87        add     a,a
3e9e 81        add     a,c
3e9f 4f        ld      c,a
3ea0 0600      ld      b,00h
3ea2 21cc6f    ld      hl,6fcch
3ea5 09        add     hl,bc
3ea6 c9        ret     

3ea7 dd7e07    ld      a,(ix+07h)
3eaa fe90      cp      90h
3eac 3e20      ld      a,20h
3eae dab33e    jp      c,3eb3h
3eb1 3e19      ld      a,19h
3eb3 cd903c    call    3c90h
3eb6 cb7f      bit     7,a
3eb8 ca243f    jp      z,3f24h
3ebb dd7e03    ld      a,(ix+03h)
3ebe e63f      and     3fh
3ec0 c601      add     a,01h
3ec2 27        daa     
3ec3 dd7703    ld      (ix+03h),a
3ec6 fe24      cp      24h
3ec8 da243f    jp      c,3f24h
3ecb dd360300  ld      (ix+03h),00h
3ecf dd7e04    ld      a,(ix+04h)
3ed2 e607      and     07h
3ed4 3c        inc     a
3ed5 fe08      cp      08h
3ed7 dadc3e    jp      c,3edch
3eda 3e01      ld      a,01h
3edc 47        ld      b,a
3edd dd7e04    ld      a,(ix+04h)
3ee0 e630      and     30h
3ee2 b0        or      b
3ee3 dd7704    ld      (ix+04h),a
3ee6 dd7e05    ld      a,(ix+05h)
3ee9 c601      add     a,01h
3eeb 27        daa     
3eec dd7705    ld      (ix+05h),a
3eef cdeb3b    call    3bebh
3ef2 da243f    jp      c,3f24h
3ef5 dd360501  ld      (ix+05h),01h
3ef9 dd7e06    ld      a,(ix+06h)
3efc c601      add     a,01h
3efe 27        daa     
3eff dd7706    ld      (ix+06h),a
3f02 fe0d      cp      0dh
3f04 da243f    jp      c,3f24h
3f07 dd360601  ld      (ix+06h),01h
3f0b dd7e07    ld      a,(ix+07h)
3f0e c601      add     a,01h
3f10 27        daa     
3f11 dd7707    ld      (ix+07h),a
3f14 fe00      cp      00h
3f16 c2243f    jp      nz,3f24h
3f19 dd7e08    ld      a,(ix+08h)
3f1c f63f      or      3fh
3f1e c601      add     a,01h
3f20 27        daa     
3f21 cd903c    call    3c90h
3f24 c9        ret     

3f25 fd212690  ld      iy,9026h
3f29 dd7e05    ld      a,(ix+05h)
3f2c cdf932    call    32f9h
3f2f fd7700    ld      (iy+00h),a
3f32 dd6e07    ld      l,(ix+07h)
3f35 dd7e08    ld      a,(ix+08h)
3f38 e63f      and     3fh
3f3a 67        ld      h,a
3f3b cddc32    call    32dch
3f3e dd7e06    ld      a,(ix+06h)
3f41 cdf932    call    32f9h
3f44 fe03      cp      03h
3f46 d24c3f    jp      nc,3f4ch
3f49 c60c      add     a,0ch
3f4b 2b        dec     hl
3f4c fd7701    ld      (iy+01h),a
3f4f fd7502    ld      (iy+02h),l
3f52 fd7403    ld      (iy+03h),h
3f55 117d00    ld      de,007dh
3f58 016400    ld      bc,0064h
3f5b cd0b36    call    360bh
3f5e e5        push    hl
3f5f fd7e01    ld      a,(iy+01h)
3f62 3c        inc     a
3f63 6f        ld      l,a
3f64 2600      ld      h,00h
3f66 111a00    ld      de,001ah
3f69 010a00    ld      bc,000ah
3f6c cd0b36    call    360bh
3f6f e5        push    hl
3f70 fd6e02    ld      l,(iy+02h)
3f73 fd6603    ld      h,(iy+03h)
3f76 116400    ld      de,0064h
3f79 cd0335    call    3503h
3f7c e5        push    hl
3f7d fd6e02    ld      l,(iy+02h)
3f80 fd6603    ld      h,(iy+03h)
3f83 119001    ld      de,0190h
3f86 cd0335    call    3503h
3f89 2b        dec     hl
3f8a d1        pop     de
3f8b a7        and     a
3f8c ed52      sbc     hl,de
3f8e d1        pop     de
3f8f 19        add     hl,de
3f90 d1        pop     de
3f91 19        add     hl,de
3f92 fd5e00    ld      e,(iy+00h)
3f95 1600      ld      d,00h
3f97 19        add     hl,de
3f98 110700    ld      de,0007h
3f9b cd0335    call    3503h
3f9e 7b        ld      a,e
3f9f fe07      cp      07h
3fa1 daa53f    jp      c,3fa5h
3fa4 af        xor     a
3fa5 3c        inc     a
3fa6 5f        ld      e,a
3fa7 dd7e04    ld      a,(ix+04h)
3faa e6f8      and     0f8h
3fac b3        or      e
3fad dd7704    ld      (ix+04h),a
3fb0 c9        ret     

3fb1 af        xor     a
3fb2 cac73f    jp      z,3fc7h
3fb5 af        xor     a
3fb6 3d        dec     a
3fb7 ed5ba780  ld      de,(80a7h)
3fbb 2aa980    ld      hl,(80a9h)
3fbe d9        exx     
3fbf ed5bab80  ld      de,(80abh)
3fc3 2aad80    ld      hl,(80adh)
3fc6 d9        exx     
3fc7 08        ex      af,af'
3fc8 3a1f8b    ld      a,(8b1fh)
3fcb 0e02      ld      c,02h
3fcd 0608      ld      b,08h
3fcf 3ec5      ld      a,0c5h
3fd1 321f8b    ld      (8b1fh),a
3fd4 0f        rrca    
3fd5 10fa      djnz    3fd1h
3fd7 0608      ld      b,08h
3fd9 3e3a      ld      a,3ah
3fdb 321f8b    ld      (8b1fh),a
3fde 0f        rrca    
3fdf 10fa      djnz    3fdbh
3fe1 0608      ld      b,08h
3fe3 3ea3      ld      a,0a3h
3fe5 321f8b    ld      (8b1fh),a
3fe8 0f        rrca    
3fe9 10fa      djnz    3fe5h
3feb 0608      ld      b,08h
3fed 3e5c      ld      a,5ch
3fef 321f8b    ld      (8b1fh),a
3ff2 0f        rrca    
3ff3 10fa      djnz    3fefh
3ff5 0d        dec     c
3ff6 c2cd3f    jp      nz,3fcdh
3ff9 08        ex      af,af'
3ffa ca2e40    jp      z,402eh
3ffd 0608      ld      b,08h
3fff 7b        ld      a,e
4000 321f8b    ld      (8b1fh),a
4003 0f        rrca    
4004 10fa      djnz    4000h
4006 0608      ld      b,08h
4008 7a        ld      a,d
4009 321f8b    ld      (8b1fh),a
400c 0f        rrca    
400d 10fa      djnz    4009h
400f 0608      ld      b,08h
4011 7d        ld      a,l
4012 321f8b    ld      (8b1fh),a
4015 0f        rrca    
4016 10fa      djnz    4012h
4018 0608      ld      b,08h
401a 7c        ld      a,h
401b 321f8b    ld      (8b1fh),a
401e 0f        rrca    
401f 10fa      djnz    401bh
4021 0d        dec     c
4022 79        ld      a,c
4023 d9        exx     
4024 4f        ld      c,a
4025 c2fd3f    jp      nz,3ffdh
4028 3a1f8b    ld      a,(8b1fh)
402b c3dc40    jp      40dch
402e 0608      ld      b,08h
4030 79        ld      a,c
4031 e6fe      and     0feh
4033 4f        ld      c,a
4034 3a1f8b    ld      a,(8b1fh)
4037 e601      and     01h
4039 b1        or      c
403a 0f        rrca    
403b 4f        ld      c,a
403c 10f2      djnz    4030h
403e 5f        ld      e,a
403f 0608      ld      b,08h
4041 79        ld      a,c
4042 e6fe      and     0feh
4044 4f        ld      c,a
4045 3a1f8b    ld      a,(8b1fh)
4048 e601      and     01h
404a b1        or      c
404b 0f        rrca    
404c 4f        ld      c,a
404d 10f2      djnz    4041h
404f 57        ld      d,a
4050 0608      ld      b,08h
4052 79        ld      a,c
4053 e6fe      and     0feh
4055 4f        ld      c,a
4056 3a1f8b    ld      a,(8b1fh)
4059 e601      and     01h
405b b1        or      c
405c 0f        rrca    
405d 4f        ld      c,a
405e 10f2      djnz    4052h
4060 6f        ld      l,a
4061 0608      ld      b,08h
4063 79        ld      a,c
4064 e6fe      and     0feh
4066 4f        ld      c,a
4067 3a1f8b    ld      a,(8b1fh)
406a e601      and     01h
406c b1        or      c
406d 0f        rrca    
406e 4f        ld      c,a
406f 10f2      djnz    4063h
4071 67        ld      h,a
4072 d9        exx     
4073 0608      ld      b,08h
4075 79        ld      a,c
4076 e6fe      and     0feh
4078 4f        ld      c,a
4079 3a1f8b    ld      a,(8b1fh)
407c e601      and     01h
407e b1        or      c
407f 0f        rrca    
4080 4f        ld      c,a
4081 10f2      djnz    4075h
4083 5f        ld      e,a
4084 0608      ld      b,08h
4086 79        ld      a,c
4087 e6fe      and     0feh
4089 4f        ld      c,a
408a 3a1f8b    ld      a,(8b1fh)
408d e601      and     01h
408f b1        or      c
4090 0f        rrca    
4091 4f        ld      c,a
4092 10f2      djnz    4086h
4094 57        ld      d,a
4095 0608      ld      b,08h
4097 79        ld      a,c
4098 e6fe      and     0feh
409a 4f        ld      c,a
409b 3a1f8b    ld      a,(8b1fh)
409e e601      and     01h
40a0 b1        or      c
40a1 0f        rrca    
40a2 4f        ld      c,a
40a3 10f2      djnz    4097h
40a5 6f        ld      l,a
40a6 0608      ld      b,08h
40a8 79        ld      a,c
40a9 e6fe      and     0feh
40ab 4f        ld      c,a
40ac 3a1f8b    ld      a,(8b1fh)
40af e601      and     01h
40b1 b1        or      c
40b2 0f        rrca    
40b3 4f        ld      c,a
40b4 10f2      djnz    40a8h
40b6 67        ld      h,a
40b7 ed53ab80  ld      (80abh),de
40bb 22ad80    ld      (80adh),hl
40be d9        exx     
40bf ed53a780  ld      (80a7h),de
40c3 22a980    ld      (80a9h),hl
40c6 fe90      cp      90h
40c8 3e20      ld      a,20h
40ca dacf40    jp      c,40cfh
40cd 3e19      ld      a,19h
40cf dd21a780  ld      ix,80a7h
40d3 cd903c    call    3c90h
40d6 21a780    ld      hl,80a7h
40d9 cdc236    call    36c2h
40dc af        xor     a
40dd 010000    ld      bc,0000h
40e0 110000    ld      de,0000h
40e3 210000    ld      hl,0000h
40e6 08        ex      af,af'
40e7 d9        exx     
40e8 c9        ret     

40e9 166a      ld      d,6ah
40eb c3f040    jp      40f0h
40ee 16ea      ld      d,0eah
40f0 0e61      ld      c,61h
40f2 3e05      ld      a,05h
40f4 ed79      out     (c),a
40f6 ed51      out     (c),d
40f8 c9        ret     

40f9 00        nop     
40fa 0e61      ld      c,61h
40fc 3e10      ld      a,10h
40fe ed79      out     (c),a
4100 ed78      in      a,(c)
4102 2f        cpl     
4103 e608      and     08h
4105 c9        ret     

4106 00        nop     
4107 0e63      ld      c,63h
4109 3e10      ld      a,10h
410b ed79      out     (c),a
410d ed78      in      a,(c)
410f 2f        cpl     
4110 e608      and     08h
4112 c9        ret     

4113 00        nop     
4114 0e63      ld      c,63h
4116 3e10      ld      a,10h
4118 ed79      out     (c),a
411a ed78      in      a,(c)
411c 2f        cpl     
411d e620      and     20h
411f c9        ret     

4120 00        nop     
4121 c5        push    bc
4122 d5        push    de
4123 e5        push    hl
4124 21bf8b    ld      hl,8bbfh
4127 cbae      res     5,(hl)
4129 cd5b37    call    375bh
412c 06ff      ld      b,0ffh
412e cd6437    call    3764h
4131 ca4841    jp      z,4148h
4134 cd2e42    call    422eh
4137 c24241    jp      nz,4142h
413a 10f2      djnz    412eh
413c cd4c37    call    374ch
413f c32c41    jp      412ch
4142 cd3e42    call    423eh
4145 c35241    jp      4152h
4148 cd7e41    call    417eh
414b 21bf8b    ld      hl,8bbfh
414e cbee      set     5,(hl)
4150 3e24      ld      a,24h
4152 32438b    ld      (8b43h),a
4155 e1        pop     hl
4156 d1        pop     de
4157 c1        pop     bc
4158 c9        ret     

4159 00        nop     
415a f5        push    af
415b c5        push    bc
415c d5        push    de
415d e5        push    hl
415e f5        push    af
415f cda937    call    37a9h
4162 cd4942    call    4249h
4165 280e      jr      z,4175h
4167 cd9437    call    3794h
416a cdb237    call    37b2h
416d 20f3      jr      nz,4162h
416f cd8441    call    4184h
4172 f1        pop     af
4173 1804      jr      4179h
4175 f1        pop     af
4176 cd5e42    call    425eh
4179 e1        pop     hl
417a d1        pop     de
417b c1        pop     bc
417c f1        pop     af
417d c9        ret     

417e 00        nop     
417f 060a      ld      b,0ah
4181 c35c0f    jp      0f5ch
4184 00        nop     
4185 060b      ld      b,0bh
4187 c35c0f    jp      0f5ch
418a 00        nop     
418b 060c      ld      b,0ch
418d c35c0f    jp      0f5ch
4190 00        nop     
4191 060d      ld      b,0dh
4193 c35c0f    jp      0f5ch
4196 c5        push    bc
4197 d5        push    de
4198 e5        push    hl
4199 21bf8b    ld      hl,8bbfh
419c cbae      res     5,(hl)
419e cd7f37    call    377fh
41a1 06ff      ld      b,0ffh
41a3 cd8837    call    3788h
41a6 cabd41    jp      z,41bdh
41a9 cd3342    call    4233h
41ac c2b741    jp      nz,41b7h
41af 10f2      djnz    41a3h
41b1 cd7037    call    3770h
41b4 c3a141    jp      41a1h
41b7 cd4342    call    4243h
41ba c3c741    jp      41c7h
41bd cd8a41    call    418ah
41c0 21bf8b    ld      hl,8bbfh
41c3 cbee      set     5,(hl)
41c5 3e24      ld      a,24h
41c7 32448b    ld      (8b44h),a
41ca e1        pop     hl
41cb d1        pop     de
41cc c1        pop     bc
41cd c9        ret     

41ce 00        nop     
41cf f5        push    af
41d0 c5        push    bc
41d1 d5        push    de
41d2 e5        push    hl
41d3 f5        push    af
41d4 cda937    call    37a9h
41d7 cd4e42    call    424eh
41da caed41    jp      z,41edh
41dd cd9437    call    3794h
41e0 cdb237    call    37b2h
41e3 c2d741    jp      nz,41d7h
41e6 cd9041    call    4190h
41e9 f1        pop     af
41ea c3f141    jp      41f1h
41ed f1        pop     af
41ee cd6342    call    4263h
41f1 e1        pop     hl
41f2 d1        pop     de
41f3 c1        pop     bc
41f4 f1        pop     af
41f5 c9        ret     

41f6 1810      jr      4208h
41f8 04        inc     b
41f9 4c        ld      c,h
41fa 03        inc     bc
41fb c1        pop     bc
41fc 05        dec     b
41fd 6a        ld      l,d
41fe 1001      djnz    4201h
4200 00        nop     
4201 1810      jr      4213h
4203 02        ld      (bc),a
4204 00        nop     
4205 04        inc     b
4206 4c        ld      c,h
4207 03        inc     bc
4208 c1        pop     bc
4209 05        dec     b
420a 6a        ld      l,d
420b 1001      djnz    420eh
420d 00        nop     
420e 060b      ld      b,0bh
4210 0e61      ld      c,61h
4212 21f641    ld      hl,41f6h
4215 edb3      otir    
4217 060d      ld      b,0dh
4219 0e63      ld      c,63h
421b 210142    ld      hl,4201h
421e edb3      otir    
4220 3e00      ld      a,00h
4222 cd5e42    call    425eh
4225 cde636    call    36e6h
4228 3e00      ld      a,00h
422a cd6342    call    4263h
422d c9        ret     

422e 0e61      ld      c,61h
4230 c33542    jp      4235h
4233 0e63      ld      c,63h
4235 3e10      ld      a,10h
4237 ed79      out     (c),a
4239 ed78      in      a,(c)
423b e601      and     01h
423d c9        ret     

423e 0e61      ld      c,61h
4240 c34542    jp      4245h
4243 0e63      ld      c,63h
4245 0d        dec     c
4246 ed78      in      a,(c)
4248 c9        ret     

4249 0e61      ld      c,61h
424b c35342    jp      4253h
424e 0e63      ld      c,63h
4250 c35342    jp      4253h
4253 3e10      ld      a,10h
4255 ed79      out     (c),a
4257 ed78      in      a,(c)
4259 e604      and     04h
425b ee04      xor     04h
425d c9        ret     

425e 0e61      ld      c,61h
4260 c36842    jp      4268h
4263 0e63      ld      c,63h
4265 c36842    jp      4268h
4268 57        ld      d,a
4269 0d        dec     c
426a 7a        ld      a,d
426b ed79      out     (c),a
426d c9        ret     

426e c9        ret     

426f 00        nop     
4270 cdb139    call    39b1h
4273 cde043    call    43e0h
4276 2816      jr      z,428eh
4278 cdb72d    call    2db7h
427b cd9c36    call    369ch
427e cda530    call    30a5h
4281 3e02      ld      a,02h
4283 3e03      ld      a,03h
4285 cd7730    call    3077h
4288 cd6d11    call    116dh
428b cd8b2e    call    2e8bh
428e c9        ret     

428f 00        nop     
4290 0603      ld      b,03h
4292 cd5c0f    call    0f5ch
4295 0602      ld      b,02h
4297 cd5c0f    call    0f5ch
429a 0601      ld      b,01h
429c cd5c0f    call    0f5ch
429f cdb139    call    39b1h
42a2 cd1438    call    3814h
42a5 cdf836    call    36f8h
42a8 cdb139    call    39b1h
42ab cd2138    call    3821h
42ae c9        ret     

42af 00        nop     
42b0 00        nop     
42b1 0601      ld      b,01h
42b3 cd5c0f    call    0f5ch
42b6 0602      ld      b,02h
42b8 cd5c0f    call    0f5ch
42bb 0603      ld      b,03h
42bd cd5c0f    call    0f5ch
42c0 cdb139    call    39b1h
42c3 cd1438    call    3814h
42c6 00        nop     
42c7 cd3039    call    3930h
42ca c2d042    jp      nz,42d0h
42cd c3c642    jp      42c6h
42d0 cdca39    call    39cah
42d3 32408b    ld      (8b40h),a
42d6 fe34      cp      34h
42d8 ca752d    jp      z,2d75h
42db fe37      cp      37h
42dd cc2d2d    call    z,2d2dh
42e0 cdb139    call    39b1h
42e3 cd2138    call    3821h
42e6 c9        ret     

42e7 00        nop     
42e8 00        nop     
42e9 00        nop     
42ea cdf836    call    36f8h
42ed 3ea9      ld      a,0a9h
42ef d333      out     (33h),a
42f1 3e8a      ld      a,8ah
42f3 d337      out     (37h),a
42f5 3e5f      ld      a,5fh
42f7 d334      out     (34h),a
42f9 323f8b    ld      (8b3fh),a
42fc 3ef7      ld      a,0f7h
42fe 323e8b    ld      (8b3eh),a
4301 cdcd38    call    38cdh
4304 00        nop     
4305 00        nop     
4306 00        nop     
4307 cd0e42    call    420eh
430a cd990e    call    0e99h
430d cdb10e    call    0eb1h
4310 c9        ret     

4311 cd1438    call    3814h
4314 cdd70c    call    0cd7h
4317 210001    ld      hl,0100h
431a cd1c37    call    371ch
431d cde10c    call    0ce1h
4320 214000    ld      hl,0040h
4323 cd1c37    call    371ch
4326 cdd70c    call    0cd7h
4329 218000    ld      hl,0080h
432c cd1c37    call    371ch
432f cde10c    call    0ce1h
4332 214000    ld      hl,0040h
4335 cd1c37    call    371ch
4338 cdd70c    call    0cd7h
433b 218000    ld      hl,0080h
433e cd1c37    call    371ch
4341 cde10c    call    0ce1h
4344 214000    ld      hl,0040h
4347 cd1c37    call    371ch
434a cdd70c    call    0cd7h
434d 210001    ld      hl,0100h
4350 cd1c37    call    371ch
4353 cde10c    call    0ce1h
4356 214000    ld      hl,0040h
4359 cd1c37    call    371ch
435c cdd70c    call    0cd7h
435f 210001    ld      hl,0100h
4362 cd1c37    call    371ch
4365 cde10c    call    0ce1h
4368 21c000    ld      hl,00c0h
436b cd1c37    call    371ch
436e cdd70c    call    0cd7h
4371 210001    ld      hl,0100h
4374 cd1c37    call    371ch
4377 cde10c    call    0ce1h
437a 214000    ld      hl,0040h
437d cd1c37    call    371ch
4380 cdd70c    call    0cd7h
4383 210001    ld      hl,0100h
4386 cd1c37    call    371ch
4389 cde10c    call    0ce1h
438c cdf836    call    36f8h
438f cd2138    call    3821h
4392 c9        ret     

4393 00        nop     
4394 cd7610    call    1076h
4397 cde043    call    43e0h
439a caa343    jp      z,43a3h
439d cdb72d    call    2db7h
43a0 c30001    jp      0100h
43a3 cd6e42    call    426eh
43a6 cdfb19    call    19fbh
43a9 cd9f1a    call    1a9fh
43ac cdaa1a    call    1aaah
43af cdd816    call    16d8h
43b2 cdf836    call    36f8h
43b5 cded39    call    39edh
43b8 cdb53a    call    3ab5h
43bb d2c443    jp      nc,43c4h
43be cda73a    call    3aa7h
43c1 c30001    jp      0100h
43c4 cd9a1e    call    1e9ah
43c7 cd3b32    call    323bh
43ca dad343    jp      c,43d3h
43cd cdde10    call    10deh
43d0 c30001    jp      0100h
43d3 cdbd12    call    12bdh
43d6 cdc612    call    12c6h
43d9 cd0e13    call    130eh
43dc cd1b2d    call    2d1bh
43df c9        ret     

43e0 00        nop     
43e1 21b98b    ld      hl,8bb9h
43e4 cb86      res     0,(hl)
43e6 cd7e36    call    367eh
43e9 2805      jr      z,43f0h
43eb 21b98b    ld      hl,8bb9h
43ee cbc6      set     0,(hl)
43f0 c9        ret     

43f1 00        nop     
43f2 ff        rst     38h
43f3 ff        rst     38h
43f4 ff        rst     38h
43f5 ff        rst     38h
43f6 ff        rst     38h
43f7 ff        rst     38h
43f8 ff        rst     38h
43f9 ff        rst     38h
43fa ff        rst     38h
43fb ff        rst     38h
43fc ff        rst     38h
43fd ff        rst     38h
43fe ff        rst     38h
43ff ff        rst     38h
4400 ff        rst     38h
4401 ff        rst     38h
4402 ff        rst     38h
4403 ff        rst     38h
4404 ff        rst     38h
4405 ff        rst     38h
4406 ff        rst     38h
4407 ff        rst     38h
4408 ff        rst     38h
4409 ff        rst     38h
440a ff        rst     38h
440b ff        rst     38h
440c ff        rst     38h
440d ff        rst     38h
440e ff        rst     38h
440f ff        rst     38h
4410 ff        rst     38h
4411 ff        rst     38h
4412 ff        rst     38h
4413 ff        rst     38h
4414 ff        rst     38h
4415 ff        rst     38h
4416 ff        rst     38h
4417 ff        rst     38h
4418 ff        rst     38h
4419 ff        rst     38h
441a ff        rst     38h
441b ff        rst     38h
441c ff        rst     38h
441d ff        rst     38h
441e ff        rst     38h
441f ff        rst     38h
4420 ff        rst     38h
4421 ff        rst     38h
4422 ff        rst     38h
4423 ff        rst     38h
4424 ff        rst     38h
4425 ff        rst     38h
4426 ff        rst     38h
4427 ff        rst     38h
4428 ff        rst     38h
4429 ff        rst     38h
442a ff        rst     38h
442b ff        rst     38h
442c ff        rst     38h
442d ff        rst     38h
442e ff        rst     38h
442f ff        rst     38h
4430 ff        rst     38h
4431 ff        rst     38h
4432 ff        rst     38h
4433 ff        rst     38h
4434 ff        rst     38h
4435 ff        rst     38h
4436 ff        rst     38h
4437 ff        rst     38h
4438 ff        rst     38h
4439 ff        rst     38h
443a ff        rst     38h
443b ff        rst     38h
443c ff        rst     38h
443d ff        rst     38h
443e ff        rst     38h
443f ff        rst     38h
4440 ff        rst     38h
4441 ff        rst     38h
4442 ff        rst     38h
4443 ff        rst     38h
4444 ff        rst     38h
4445 ff        rst     38h
4446 ff        rst     38h
4447 ff        rst     38h
4448 ff        rst     38h
4449 ff        rst     38h
444a ff        rst     38h
444b ff        rst     38h
444c ff        rst     38h
444d ff        rst     38h
444e ff        rst     38h
444f ff        rst     38h
4450 ff        rst     38h
4451 ff        rst     38h
4452 ff        rst     38h
4453 ff        rst     38h
4454 ff        rst     38h
4455 ff        rst     38h
4456 ff        rst     38h
4457 ff        rst     38h
4458 ff        rst     38h
4459 ff        rst     38h
445a ff        rst     38h
445b ff        rst     38h
445c ff        rst     38h
445d ff        rst     38h
445e ff        rst     38h
445f ff        rst     38h
4460 ff        rst     38h
4461 ff        rst     38h
4462 ff        rst     38h
4463 ff        rst     38h
4464 ff        rst     38h
4465 ff        rst     38h
4466 ff        rst     38h
4467 ff        rst     38h
4468 ff        rst     38h
4469 ff        rst     38h
446a ff        rst     38h
446b ff        rst     38h
446c ff        rst     38h
446d ff        rst     38h
446e ff        rst     38h
446f ff        rst     38h
4470 ff        rst     38h
4471 ff        rst     38h
4472 ff        rst     38h
4473 ff        rst     38h
4474 ff        rst     38h
4475 ff        rst     38h
4476 ff        rst     38h
4477 ff        rst     38h
4478 ff        rst     38h
4479 ff        rst     38h
447a ff        rst     38h
447b ff        rst     38h
447c ff        rst     38h
447d ff        rst     38h
447e ff        rst     38h
447f ff        rst     38h
4480 ff        rst     38h
4481 ff        rst     38h
4482 ff        rst     38h
4483 ff        rst     38h
4484 ff        rst     38h
4485 ff        rst     38h
4486 ff        rst     38h
4487 ff        rst     38h
4488 ff        rst     38h
4489 ff        rst     38h
448a ff        rst     38h
448b ff        rst     38h
448c ff        rst     38h
448d ff        rst     38h
448e ff        rst     38h
448f ff        rst     38h
4490 ff        rst     38h
4491 ff        rst     38h
4492 ff        rst     38h
4493 ff        rst     38h
4494 ff        rst     38h
4495 ff        rst     38h
4496 ff        rst     38h
4497 ff        rst     38h
4498 ff        rst     38h
4499 ff        rst     38h
449a ff        rst     38h
449b ff        rst     38h
449c ff        rst     38h
449d ff        rst     38h
449e ff        rst     38h
449f ff        rst     38h
44a0 ff        rst     38h
44a1 ff        rst     38h
44a2 ff        rst     38h
44a3 ff        rst     38h
44a4 ff        rst     38h
44a5 ff        rst     38h
44a6 ff        rst     38h
44a7 ff        rst     38h
44a8 ff        rst     38h
44a9 ff        rst     38h
44aa ff        rst     38h
44ab ff        rst     38h
44ac ff        rst     38h
44ad ff        rst     38h
44ae ff        rst     38h
44af ff        rst     38h
44b0 ff        rst     38h
44b1 ff        rst     38h
44b2 ff        rst     38h
44b3 ff        rst     38h
44b4 ff        rst     38h
44b5 ff        rst     38h
44b6 ff        rst     38h
44b7 ff        rst     38h
44b8 ff        rst     38h
44b9 ff        rst     38h
44ba ff        rst     38h
44bb ff        rst     38h
44bc ff        rst     38h
44bd ff        rst     38h
44be ff        rst     38h
44bf ff        rst     38h
44c0 ff        rst     38h
44c1 ff        rst     38h
44c2 ff        rst     38h
44c3 ff        rst     38h
44c4 ff        rst     38h
44c5 ff        rst     38h
44c6 ff        rst     38h
44c7 ff        rst     38h
44c8 ff        rst     38h
44c9 ff        rst     38h
44ca ff        rst     38h
44cb ff        rst     38h
44cc ff        rst     38h
44cd ff        rst     38h
44ce ff        rst     38h
44cf ff        rst     38h
44d0 ff        rst     38h
44d1 ff        rst     38h
44d2 ff        rst     38h
44d3 ff        rst     38h
44d4 ff        rst     38h
44d5 ff        rst     38h
44d6 ff        rst     38h
44d7 ff        rst     38h
44d8 ff        rst     38h
44d9 ff        rst     38h
44da ff        rst     38h
44db ff        rst     38h
44dc ff        rst     38h
44dd ff        rst     38h
44de ff        rst     38h
44df ff        rst     38h
44e0 ff        rst     38h
44e1 ff        rst     38h
44e2 ff        rst     38h
44e3 ff        rst     38h
44e4 ff        rst     38h
44e5 ff        rst     38h
44e6 ff        rst     38h
44e7 ff        rst     38h
44e8 ff        rst     38h
44e9 ff        rst     38h
44ea ff        rst     38h
44eb ff        rst     38h
44ec ff        rst     38h
44ed ff        rst     38h
44ee ff        rst     38h
44ef ff        rst     38h
44f0 ff        rst     38h
44f1 ff        rst     38h
44f2 ff        rst     38h
44f3 ff        rst     38h
44f4 ff        rst     38h
44f5 ff        rst     38h
44f6 ff        rst     38h
44f7 ff        rst     38h
44f8 ff        rst     38h
44f9 ff        rst     38h
44fa ff        rst     38h
44fb ff        rst     38h
44fc ff        rst     38h
44fd ff        rst     38h
44fe ff        rst     38h
44ff ff        rst     38h
4500 ff        rst     38h
4501 ff        rst     38h
4502 ff        rst     38h
4503 ff        rst     38h
4504 ff        rst     38h
4505 ff        rst     38h
4506 ff        rst     38h
4507 ff        rst     38h
4508 ff        rst     38h
4509 ff        rst     38h
450a ff        rst     38h
450b ff        rst     38h
450c ff        rst     38h
450d ff        rst     38h
450e ff        rst     38h
450f ff        rst     38h
4510 ff        rst     38h
4511 ff        rst     38h
4512 ff        rst     38h
4513 ff        rst     38h
4514 ff        rst     38h
4515 ff        rst     38h
4516 ff        rst     38h
4517 ff        rst     38h
4518 ff        rst     38h
4519 ff        rst     38h
451a ff        rst     38h
451b ff        rst     38h
451c ff        rst     38h
451d ff        rst     38h
451e ff        rst     38h
451f ff        rst     38h
4520 ff        rst     38h
4521 ff        rst     38h
4522 ff        rst     38h
4523 ff        rst     38h
4524 ff        rst     38h
4525 ff        rst     38h
4526 ff        rst     38h
4527 ff        rst     38h
4528 ff        rst     38h
4529 ff        rst     38h
452a ff        rst     38h
452b ff        rst     38h
452c ff        rst     38h
452d ff        rst     38h
452e ff        rst     38h
452f ff        rst     38h
4530 ff        rst     38h
4531 ff        rst     38h
4532 ff        rst     38h
4533 ff        rst     38h
4534 ff        rst     38h
4535 ff        rst     38h
4536 ff        rst     38h
4537 ff        rst     38h
4538 ff        rst     38h
4539 ff        rst     38h
453a ff        rst     38h
453b ff        rst     38h
453c ff        rst     38h
453d ff        rst     38h
453e ff        rst     38h
453f ff        rst     38h
4540 ff        rst     38h
4541 ff        rst     38h
4542 ff        rst     38h
4543 ff        rst     38h
4544 ff        rst     38h
4545 ff        rst     38h
4546 ff        rst     38h
4547 ff        rst     38h
4548 ff        rst     38h
4549 ff        rst     38h
454a ff        rst     38h
454b ff        rst     38h
454c ff        rst     38h
454d ff        rst     38h
454e ff        rst     38h
454f ff        rst     38h
4550 ff        rst     38h
4551 ff        rst     38h
4552 ff        rst     38h
4553 ff        rst     38h
4554 ff        rst     38h
4555 ff        rst     38h
4556 ff        rst     38h
4557 ff        rst     38h
4558 ff        rst     38h
4559 ff        rst     38h
455a ff        rst     38h
455b ff        rst     38h
455c ff        rst     38h
455d ff        rst     38h
455e ff        rst     38h
455f ff        rst     38h
4560 ff        rst     38h
4561 ff        rst     38h
4562 ff        rst     38h
4563 ff        rst     38h
4564 ff        rst     38h
4565 ff        rst     38h
4566 ff        rst     38h
4567 ff        rst     38h
4568 ff        rst     38h
4569 ff        rst     38h
456a ff        rst     38h
456b ff        rst     38h
456c ff        rst     38h
456d ff        rst     38h
456e ff        rst     38h
456f ff        rst     38h
4570 ff        rst     38h
4571 ff        rst     38h
4572 ff        rst     38h
4573 ff        rst     38h
4574 ff        rst     38h
4575 ff        rst     38h
4576 ff        rst     38h
4577 ff        rst     38h
4578 ff        rst     38h
4579 ff        rst     38h
457a ff        rst     38h
457b ff        rst     38h
457c ff        rst     38h
457d ff        rst     38h
457e ff        rst     38h
457f ff        rst     38h
4580 ff        rst     38h
4581 ff        rst     38h
4582 ff        rst     38h
4583 ff        rst     38h
4584 ff        rst     38h
4585 ff        rst     38h
4586 ff        rst     38h
4587 ff        rst     38h
4588 ff        rst     38h
4589 ff        rst     38h
458a ff        rst     38h
458b ff        rst     38h
458c ff        rst     38h
458d ff        rst     38h
458e ff        rst     38h
458f ff        rst     38h
4590 ff        rst     38h
4591 ff        rst     38h
4592 ff        rst     38h
4593 ff        rst     38h
4594 ff        rst     38h
4595 ff        rst     38h
4596 ff        rst     38h
4597 ff        rst     38h
4598 ff        rst     38h
4599 ff        rst     38h
459a ff        rst     38h
459b ff        rst     38h
459c ff        rst     38h
459d ff        rst     38h
459e ff        rst     38h
459f ff        rst     38h
45a0 ff        rst     38h
45a1 ff        rst     38h
45a2 ff        rst     38h
45a3 ff        rst     38h
45a4 ff        rst     38h
45a5 ff        rst     38h
45a6 ff        rst     38h
45a7 ff        rst     38h
45a8 ff        rst     38h
45a9 ff        rst     38h
45aa ff        rst     38h
45ab ff        rst     38h
45ac ff        rst     38h
45ad ff        rst     38h
45ae ff        rst     38h
45af ff        rst     38h
45b0 ff        rst     38h
45b1 ff        rst     38h
45b2 ff        rst     38h
45b3 ff        rst     38h
45b4 ff        rst     38h
45b5 ff        rst     38h
45b6 ff        rst     38h
45b7 ff        rst     38h
45b8 ff        rst     38h
45b9 ff        rst     38h
45ba ff        rst     38h
45bb ff        rst     38h
45bc ff        rst     38h
45bd ff        rst     38h
45be ff        rst     38h
45bf ff        rst     38h
45c0 ff        rst     38h
45c1 ff        rst     38h
45c2 ff        rst     38h
45c3 ff        rst     38h
45c4 ff        rst     38h
45c5 ff        rst     38h
45c6 ff        rst     38h
45c7 ff        rst     38h
45c8 ff        rst     38h
45c9 ff        rst     38h
45ca ff        rst     38h
45cb ff        rst     38h
45cc ff        rst     38h
45cd ff        rst     38h
45ce ff        rst     38h
45cf ff        rst     38h
45d0 ff        rst     38h
45d1 ff        rst     38h
45d2 ff        rst     38h
45d3 ff        rst     38h
45d4 ff        rst     38h
45d5 ff        rst     38h
45d6 ff        rst     38h
45d7 ff        rst     38h
45d8 ff        rst     38h
45d9 ff        rst     38h
45da ff        rst     38h
45db ff        rst     38h
45dc ff        rst     38h
45dd ff        rst     38h
45de ff        rst     38h
45df ff        rst     38h
45e0 ff        rst     38h
45e1 ff        rst     38h
45e2 ff        rst     38h
45e3 ff        rst     38h
45e4 ff        rst     38h
45e5 ff        rst     38h
45e6 ff        rst     38h
45e7 ff        rst     38h
45e8 ff        rst     38h
45e9 ff        rst     38h
45ea ff        rst     38h
45eb ff        rst     38h
45ec ff        rst     38h
45ed ff        rst     38h
45ee ff        rst     38h
45ef ff        rst     38h
45f0 ff        rst     38h
45f1 ff        rst     38h
45f2 ff        rst     38h
45f3 ff        rst     38h
45f4 ff        rst     38h
45f5 ff        rst     38h
45f6 ff        rst     38h
45f7 ff        rst     38h
45f8 ff        rst     38h
45f9 ff        rst     38h
45fa ff        rst     38h
45fb ff        rst     38h
45fc ff        rst     38h
45fd ff        rst     38h
45fe ff        rst     38h
45ff ff        rst     38h
4600 ff        rst     38h
4601 ff        rst     38h
4602 ff        rst     38h
4603 ff        rst     38h
4604 ff        rst     38h
4605 ff        rst     38h
4606 ff        rst     38h
4607 ff        rst     38h
4608 ff        rst     38h
4609 ff        rst     38h
460a ff        rst     38h
460b ff        rst     38h
460c ff        rst     38h
460d ff        rst     38h
460e ff        rst     38h
460f ff        rst     38h
4610 ff        rst     38h
4611 ff        rst     38h
4612 ff        rst     38h
4613 ff        rst     38h
4614 ff        rst     38h
4615 ff        rst     38h
4616 ff        rst     38h
4617 ff        rst     38h
4618 ff        rst     38h
4619 ff        rst     38h
461a ff        rst     38h
461b ff        rst     38h
461c ff        rst     38h
461d ff        rst     38h
461e ff        rst     38h
461f ff        rst     38h
4620 ff        rst     38h
4621 ff        rst     38h
4622 ff        rst     38h
4623 ff        rst     38h
4624 ff        rst     38h
4625 ff        rst     38h
4626 ff        rst     38h
4627 ff        rst     38h
4628 ff        rst     38h
4629 ff        rst     38h
462a ff        rst     38h
462b ff        rst     38h
462c ff        rst     38h
462d ff        rst     38h
462e ff        rst     38h
462f ff        rst     38h
4630 ff        rst     38h
4631 ff        rst     38h
4632 ff        rst     38h
4633 ff        rst     38h
4634 ff        rst     38h
4635 ff        rst     38h
4636 ff        rst     38h
4637 ff        rst     38h
4638 ff        rst     38h
4639 ff        rst     38h
463a ff        rst     38h
463b ff        rst     38h
463c ff        rst     38h
463d ff        rst     38h
463e ff        rst     38h
463f ff        rst     38h
4640 ff        rst     38h
4641 ff        rst     38h
4642 ff        rst     38h
4643 ff        rst     38h
4644 ff        rst     38h
4645 ff        rst     38h
4646 ff        rst     38h
4647 ff        rst     38h
4648 ff        rst     38h
4649 ff        rst     38h
464a ff        rst     38h
464b ff        rst     38h
464c ff        rst     38h
464d ff        rst     38h
464e ff        rst     38h
464f ff        rst     38h
4650 ff        rst     38h
4651 ff        rst     38h
4652 ff        rst     38h
4653 ff        rst     38h
4654 ff        rst     38h
4655 ff        rst     38h
4656 ff        rst     38h
4657 ff        rst     38h
4658 ff        rst     38h
4659 ff        rst     38h
465a ff        rst     38h
465b ff        rst     38h
465c ff        rst     38h
465d ff        rst     38h
465e ff        rst     38h
465f ff        rst     38h
4660 ff        rst     38h
4661 ff        rst     38h
4662 ff        rst     38h
4663 ff        rst     38h
4664 ff        rst     38h
4665 ff        rst     38h
4666 ff        rst     38h
4667 ff        rst     38h
4668 ff        rst     38h
4669 ff        rst     38h
466a ff        rst     38h
466b ff        rst     38h
466c ff        rst     38h
466d ff        rst     38h
466e ff        rst     38h
466f ff        rst     38h
4670 ff        rst     38h
4671 ff        rst     38h
4672 ff        rst     38h
4673 ff        rst     38h
4674 ff        rst     38h
4675 ff        rst     38h
4676 ff        rst     38h
4677 ff        rst     38h
4678 ff        rst     38h
4679 ff        rst     38h
467a ff        rst     38h
467b ff        rst     38h
467c ff        rst     38h
467d ff        rst     38h
467e ff        rst     38h
467f ff        rst     38h
4680 ff        rst     38h
4681 ff        rst     38h
4682 ff        rst     38h
4683 ff        rst     38h
4684 ff        rst     38h
4685 ff        rst     38h
4686 ff        rst     38h
4687 ff        rst     38h
4688 ff        rst     38h
4689 ff        rst     38h
468a ff        rst     38h
468b ff        rst     38h
468c ff        rst     38h
468d ff        rst     38h
468e ff        rst     38h
468f ff        rst     38h
4690 ff        rst     38h
4691 ff        rst     38h
4692 ff        rst     38h
4693 ff        rst     38h
4694 ff        rst     38h
4695 ff        rst     38h
4696 ff        rst     38h
4697 ff        rst     38h
4698 ff        rst     38h
4699 ff        rst     38h
469a ff        rst     38h
469b ff        rst     38h
469c ff        rst     38h
469d ff        rst     38h
469e ff        rst     38h
469f ff        rst     38h
46a0 ff        rst     38h
46a1 ff        rst     38h
46a2 ff        rst     38h
46a3 ff        rst     38h
46a4 ff        rst     38h
46a5 ff        rst     38h
46a6 ff        rst     38h
46a7 ff        rst     38h
46a8 ff        rst     38h
46a9 ff        rst     38h
46aa ff        rst     38h
46ab ff        rst     38h
46ac ff        rst     38h
46ad ff        rst     38h
46ae ff        rst     38h
46af ff        rst     38h
46b0 ff        rst     38h
46b1 ff        rst     38h
46b2 ff        rst     38h
46b3 ff        rst     38h
46b4 ff        rst     38h
46b5 ff        rst     38h
46b6 ff        rst     38h
46b7 ff        rst     38h
46b8 ff        rst     38h
46b9 ff        rst     38h
46ba ff        rst     38h
46bb ff        rst     38h
46bc ff        rst     38h
46bd ff        rst     38h
46be ff        rst     38h
46bf ff        rst     38h
46c0 ff        rst     38h
46c1 ff        rst     38h
46c2 ff        rst     38h
46c3 ff        rst     38h
46c4 ff        rst     38h
46c5 ff        rst     38h
46c6 ff        rst     38h
46c7 ff        rst     38h
46c8 ff        rst     38h
46c9 ff        rst     38h
46ca ff        rst     38h
46cb ff        rst     38h
46cc ff        rst     38h
46cd ff        rst     38h
46ce ff        rst     38h
46cf ff        rst     38h
46d0 ff        rst     38h
46d1 ff        rst     38h
46d2 ff        rst     38h
46d3 ff        rst     38h
46d4 ff        rst     38h
46d5 ff        rst     38h
46d6 ff        rst     38h
46d7 ff        rst     38h
46d8 ff        rst     38h
46d9 ff        rst     38h
46da ff        rst     38h
46db ff        rst     38h
46dc ff        rst     38h
46dd ff        rst     38h
46de ff        rst     38h
46df ff        rst     38h
46e0 ff        rst     38h
46e1 ff        rst     38h
46e2 ff        rst     38h
46e3 ff        rst     38h
46e4 ff        rst     38h
46e5 ff        rst     38h
46e6 ff        rst     38h
46e7 ff        rst     38h
46e8 ff        rst     38h
46e9 ff        rst     38h
46ea ff        rst     38h
46eb ff        rst     38h
46ec ff        rst     38h
46ed ff        rst     38h
46ee ff        rst     38h
46ef ff        rst     38h
46f0 ff        rst     38h
46f1 ff        rst     38h
46f2 ff        rst     38h
46f3 ff        rst     38h
46f4 ff        rst     38h
46f5 ff        rst     38h
46f6 ff        rst     38h
46f7 ff        rst     38h
46f8 ff        rst     38h
46f9 ff        rst     38h
46fa ff        rst     38h
46fb ff        rst     38h
46fc ff        rst     38h
46fd ff        rst     38h
46fe ff        rst     38h
46ff ff        rst     38h
4700 03        inc     bc
4701 14        inc     d
4702 1617      ld      d,17h
4704 24        inc     h
4705 214222    ld      hl,2242h
4708 010631    ld      bc,3106h
470b 02        ld      (bc),a
470c 27        daa     
470d 33        inc     sp
470e 48        ld      c,b
470f 07        rlca    
4710 05        dec     b
4711 1018      djnz    472bh
4713 2011      jr      nz,4726h
4715 37        scf     
4716 47        ld      b,a
4717 3630      ld      (hl),30h
4719 324140    ld      (4041h),a
471c 29        add     hl,hl
471d 34        inc     (hl)
471e 44        ld      b,h
471f 13        inc     de
4720 3846      jr      c,4768h
4722 23        inc     hl
4723 09        add     hl,bc
4724 39        add     hl,sp
4725 25        dec     h
4726 2608      ld      h,08h
4728 35        dec     (hl)
4729 15        dec     d
472a 43        ld      b,e
472b 49        ld      c,c
472c 12        ld      (de),a
472d 2819      jr      z,4748h
472f 04        inc     b
4730 45        ld      b,l
4731 1647      ld      d,47h
4733 322718    ld      (1827h),a
4736 39        add     hl,sp
4737 3049      jr      nc,4782h
4739 44        ld      b,h
473a 25        dec     h
473b 3640      ld      (hl),40h
473d 00        nop     
473e 08        ex      af,af'
473f 41        ld      b,c
4740 24        inc     h
4741 13        inc     de
4742 05        dec     b
4743 45        ld      b,l
4744 15        dec     d
4745 311048    ld      sp,4810h
4748 03        inc     bc
4749 220033    ld      (3300h),hl
474c 04        inc     b
474d 23        inc     hl
474e 34        inc     (hl)
474f 09        add     hl,bc
4750 2006      jr      nz,4758h
4752 37        scf     
4753 14        inc     d
4754 2617      ld      h,17h
4756 110001    ld      de,0100h
4759 46        ld      b,(hl)
475a 29        add     hl,hl
475b 07        rlca    
475c 42        ld      b,d
475d 19        add     hl,de
475e 2802      jr      z,4762h
4760 35        dec     (hl)
4761 43        ld      b,e
4762 12        ld      (de),a
4763 213800    ld      hl,0038h
4766 010b10    ld      bc,100bh
4769 15        dec     d
476a 1f        rra     
476b 24        inc     h
476c 2e38      ld      l,38h
476e 4c        ld      c,h
476f 02        ld      (bc),a
4770 0611      ld      b,11h
4772 1625      ld      d,25h
4774 29        add     hl,hl
4775 33        inc     sp
4776 3d        dec     a
4777 51        ld      d,c
4778 03        inc     bc
4779 07        rlca    
477a 0c        inc     c
477b 17        rla     
477c 1a        ld      a,(de)
477d 2a2f42    ld      hl,(422fh)
4780 56        ld      d,(hl)
4781 04        inc     b
4782 08        ex      af,af'
4783 0d        dec     c
4784 12        ld      (de),a
4785 1b        dec     de
4786 2034      jr      nz,47bch
4788 47        ld      b,a
4789 5b        ld      e,e
478a 00        nop     
478b 00        nop     
478c c7        rst     00h
478d 60        ld      h,b
478e af        xor     a
478f 60        ld      h,b
4790 bb        cp      e
4791 60        ld      h,b
4792 00        nop     
4793 00        nop     
4794 07        rlca    
4795 60        ld      h,b
4796 ef        rst     28h
4797 5f        ld      e,a
4798 fb        ei      
4799 5f        ld      e,a
479a 00        nop     
479b 00        nop     
479c 47        ld      b,a
479d 5f        ld      e,a
479e 2f        cpl     
479f 5f        ld      e,a
47a0 3b        dec     sp
47a1 5f        ld      e,a
47a2 c7        rst     00h
47a3 63        ld      h,e
47a4 bb        cp      e
47a5 63        ld      h,e
47a6 af        xor     a
47a7 63        ld      h,e
47a8 a3        and     e
47a9 63        ld      h,e
47aa ad        xor     l
47ab 62        ld      h,d
47ac a1        and     c
47ad 62        ld      h,d
47ae 95        sub     l
47af 62        ld      h,d
47b0 89        adc     a,c
47b1 62        ld      h,d
47b2 93        sub     e
47b3 61        ld      h,c
47b4 87        add     a,a
47b5 61        ld      h,c
47b6 7b        ld      a,e
47b7 61        ld      h,c
47b8 6f        ld      l,a
47b9 61        ld      h,c
47ba 41        ld      b,c
47bb 54        ld      d,h
47bc 2646      ld      h,46h
47be 0d        dec     c
47bf 24        inc     h
47c0 41        ld      b,c
47c1 54        ld      d,h
47c2 48        ld      c,b
47c3 300d      jr      nc,47d2h
47c5 24        inc     h
47c6 41        ld      b,c
47c7 54        ld      d,h
47c8 53        ld      d,e
47c9 303d      jr      nc,4808h
47cb 300d      jr      nc,47dah
47cd 24        inc     h
47ce 41        ld      b,c
47cf 54        ld      d,h
47d0 53        ld      d,e
47d1 31323d    ld      sp,3d32h
47d4 34        inc     (hl)
47d5 300d      jr      nc,47e4h
47d7 24        inc     h
47d8 41        ld      b,c
47d9 54        ld      d,h
47da 44        ld      b,h
47db 54        ld      d,h
47dc 24        inc     h
47dd 39        add     hl,sp
47de 2c        inc     l
47df 24        inc     h
47e0 3038      jr      nc,481ah
47e2 3030      jr      nc,4814h
47e4 2037      jr      nz,481dh
47e6 33        inc     sp
47e7 312034    ld      sp,3420h
47ea 37        scf     
47eb 37        scf     
47ec 35        dec     (hl)
47ed 0d        dec     c
47ee 24        inc     h
47ef 3038      jr      nc,4829h
47f1 3030      jr      nc,4823h
47f3 2030      jr      nz,4825h
47f5 323820    ld      (2038h),a
47f8 33        inc     sp
47f9 323138    ld      (3831h),a
47fc 0d        dec     c
47fd 24        inc     h
47fe 3038      jr      nc,4838h
4800 3030      jr      nc,4832h
4802 2031      jr      nz,4835h
4804 3639      ld      (hl),39h
4806 2033      jr      nz,483bh
4808 35        dec     (hl)
4809 39        add     hl,sp
480a 360d      ld      (hl),0dh
480c 24        inc     h
480d 3038      jr      nc,4847h
480f 3030      jr      nc,4841h
4811 2031      jr      nz,4844h
4813 3639      ld      (hl),39h
4815 2033      jr      nz,484ah
4817 3835      jr      c,484eh
4819 37        scf     
481a 0d        dec     c
481b 24        inc     h
481c 3031      jr      nc,484fh
481e 35        dec     (hl)
481f 312036    ld      sp,3620h
4822 34        inc     (hl)
4823 33        inc     sp
4824 2031      jr      nz,4857h
4826 34        inc     (hl)
4827 3837      jr      c,4860h
4829 0d        dec     c
482a 24        inc     h
482b 3031      jr      nc,485eh
482d 35        dec     (hl)
482e 312036    ld      sp,3620h
4831 34        inc     (hl)
4832 33        inc     sp
4833 2031      jr      nz,4866h
4835 34        inc     (hl)
4836 3837      jr      c,486fh
4838 0d        dec     c
4839 24        inc     h
483a 3031      jr      nc,486dh
483c 35        dec     (hl)
483d 312036    ld      sp,3620h
4840 34        inc     (hl)
4841 33        inc     sp
4842 2031      jr      nz,4875h
4844 34        inc     (hl)
4845 3837      jr      c,487eh
4847 0d        dec     c
4848 24        inc     h
4849 3038      jr      nc,4883h
484b 3030      jr      nc,487dh
484d 2031      jr      nz,4880h
484f 3639      ld      (hl),39h
4851 2030      jr      nz,4883h
4853 323836    ld      (3638h),a
4856 0d        dec     c
4857 24        inc     h
4858 41        ld      b,c
4859 54        ld      d,h
485a 5a        ld      e,d
485b 0d        dec     c
485c 24        inc     h
485d 0d        dec     c
485e 0a        ld      a,(bc)
485f 45        ld      b,l
4860 72        ld      (hl),d
4861 72        ld      (hl),d
4862 6f        ld      l,a
4863 72        ld      (hl),d
4864 200d      jr      nz,4873h
4866 0a        ld      a,(bc)
4867 24        inc     h
4868 0d        dec     c
4869 0a        ld      a,(bc)
486a 4f        ld      c,a
486b 6b        ld      l,e
486c 61        ld      h,c
486d 79        ld      a,c
486e 200d      jr      nz,487dh
4870 0a        ld      a,(bc)
4871 24        inc     h
4872 0d        dec     c
4873 0a        ld      a,(bc)
4874 52        ld      d,d
4875 65        ld      h,l
4876 61        ld      h,c
4877 64        ld      h,h
4878 79        ld      a,c
4879 200d      jr      nz,4888h
487b 0a        ld      a,(bc)
487c 24        inc     h
487d 0d        dec     c
487e 0a        ld      a,(bc)
487f 42        ld      b,d
4880 43        ld      b,e
4881 4c        ld      c,h
4882 3032      jr      nc,48b6h
4884 2053      jr      nz,48d9h
4886 69        ld      l,c
4887 74        ld      (hl),h
4888 65        ld      h,l
4889 2024      jr      nz,48afh
488b 0d        dec     c
488c 0a        ld      a,(bc)
488d 2043      jr      nz,48d2h
488f 61        ld      h,c
4890 6c        ld      l,h
4891 6c        ld      l,h
4892 69        ld      l,c
4893 6e        ld      l,(hl)
4894 67        ld      h,a
4895 2e2e      ld      l,2eh
4897 2e0d      ld      l,0dh
4899 0a        ld      a,(bc)
489a 24        inc     h
489b 0d        dec     c
489c 0a        ld      a,(bc)
489d 0d        dec     c
489e 0a        ld      a,(bc)
489f 24        inc     h
48a0 3c        inc     a
48a1 90        sub     b
48a2 014b30    ld      bc,304bh
48a5 3020      jr      nc,48c7h
48a7 2e2e      ld      l,2eh
48a9 2e2e      ld      l,2eh
48ab 2e33      ld      l,33h
48ad 32313d    ld      (3d31h),a
48b0 90        sub     b
48b1 014b30    ld      bc,304bh
48b4 31202e    ld      sp,2e20h
48b7 2e2e      ld      l,2eh
48b9 2e2e      ld      l,2eh
48bb 3635      ld      (hl),35h
48bd 34        inc     (hl)
48be 3e90      ld      a,90h
48c0 014b30    ld      bc,304bh
48c3 32202e    ld      (2e20h),a
48c6 2e2e      ld      l,2eh
48c8 2e2e      ld      l,2eh
48ca 39        add     hl,sp
48cb 3837      jr      c,4904h
48cd 3f        ccf     
48ce 90        sub     b
48cf 014b30    ld      bc,304bh
48d2 33        inc     sp
48d3 202e      jr      nz,4903h
48d5 2e2e      ld      l,2eh
48d7 2e2e      ld      l,2eh
48d9 23        inc     hl
48da 302a      jr      nc,4906h
48dc 40        ld      b,b
48dd 90        sub     b
48de 014b30    ld      bc,304bh
48e1 34        inc     (hl)
48e2 202e      jr      nz,4912h
48e4 2e2e      ld      l,2eh
48e6 2e2e      ld      l,2eh
48e8 2e2e      ld      l,2eh
48ea 2e41      ld      l,41h
48ec 90        sub     b
48ed 014b30    ld      bc,304bh
48f0 35        dec     (hl)
48f1 202e      jr      nz,4921h
48f3 2e2e      ld      l,2eh
48f5 2e2e      ld      l,2eh
48f7 2e2e      ld      l,2eh
48f9 2e42      ld      l,42h
48fb 90        sub     b
48fc 014b30    ld      bc,304bh
48ff 3620      ld      (hl),20h
4901 2e2e      ld      l,2eh
4903 2e2e      ld      l,2eh
4905 2e2e      ld      l,2eh
4907 2e2e      ld      l,2eh
4909 43        ld      b,e
490a 90        sub     b
490b 014b30    ld      bc,304bh
490e 37        scf     
490f 2043      jr      nz,4954h
4911 50        ld      d,b
4912 52        ld      d,d
4913 59        ld      e,c
4914 47        ld      b,a
4915 53        ld      d,e
4916 2e2e      ld      l,2eh
4918 00        nop     
4919 00        nop     
491a a7        and     a
491b 80        add     a,b
491c 0a        ld      a,(bc)
491d 4d        ld      c,l
491e 43        ld      b,e
491f 52        ld      d,d
4920 45        ld      b,l
4921 47        ld      b,a
4922 312e2e    ld      sp,2e2eh
4925 2e2e      ld      l,2eh
4927 2e2e      ld      l,2eh
4929 b1        or      c
492a 80        add     a,b
492b 0a        ld      a,(bc)
492c 4d        ld      c,l
492d 43        ld      b,e
492e 52        ld      d,d
492f 45        ld      b,l
4930 47        ld      b,a
4931 322e2e    ld      (2e2eh),a
4934 2e2e      ld      l,2eh
4936 2e2e      ld      l,2eh
4938 bb        cp      e
4939 80        add     a,b
493a 0a        ld      a,(bc)
493b 4d        ld      c,l
493c 43        ld      b,e
493d 52        ld      d,d
493e 45        ld      b,l
493f 47        ld      b,a
4940 33        inc     sp
4941 2e2e      ld      l,2eh
4943 2e2e      ld      l,2eh
4945 2e2e      ld      l,2eh
4947 c5        push    bc
4948 80        add     a,b
4949 0a        ld      a,(bc)
494a 4d        ld      c,l
494b 43        ld      b,e
494c 52        ld      d,d
494d 45        ld      b,l
494e 47        ld      b,a
494f 34        inc     (hl)
4950 2e2e      ld      l,2eh
4952 2e2e      ld      l,2eh
4954 2e2e      ld      l,2eh
4956 cf        rst     08h
4957 80        add     a,b
4958 0a        ld      a,(bc)
4959 4d        ld      c,l
495a 43        ld      b,e
495b 52        ld      d,d
495c 45        ld      b,l
495d 47        ld      b,a
495e 35        dec     (hl)
495f 2e2e      ld      l,2eh
4961 2e2e      ld      l,2eh
4963 2e2e      ld      l,2eh
4965 d9        exx     
4966 80        add     a,b
4967 0a        ld      a,(bc)
4968 4d        ld      c,l
4969 43        ld      b,e
496a 52        ld      d,d
496b 45        ld      b,l
496c 47        ld      b,a
496d 362e      ld      (hl),2eh
496f 2e2e      ld      l,2eh
4971 2e2e      ld      l,2eh
4973 2ee3      ld      l,0e3h
4975 80        add     a,b
4976 0a        ld      a,(bc)
4977 4d        ld      c,l
4978 43        ld      b,e
4979 52        ld      d,d
497a 45        ld      b,l
497b 47        ld      b,a
497c 37        scf     
497d 2e2e      ld      l,2eh
497f 2e2e      ld      l,2eh
4981 2e2e      ld      l,2eh
4983 ed80      db      0edh, 80h        ; Undocumented 8 T-State NOP
4985 0a        ld      a,(bc)
4986 4d        ld      c,l
4987 43        ld      b,e
4988 52        ld      d,d
4989 45        ld      b,l
498a 47        ld      b,a
498b 382e      jr      c,49bbh
498d 2e2e      ld      l,2eh
498f 2e2e      ld      l,2eh
4991 2ef7      ld      l,0f7h
4993 80        add     a,b
4994 0a        ld      a,(bc)
4995 4d        ld      c,l
4996 43        ld      b,e
4997 52        ld      d,d
4998 45        ld      b,l
4999 47        ld      b,a
499a 39        add     hl,sp
499b 2e2e      ld      l,2eh
499d 2e2e      ld      l,2eh
499f 2e2e      ld      l,2eh
49a1 01810a    ld      bc,0a81h
49a4 4d        ld      c,l
49a5 43        ld      b,e
49a6 52        ld      d,d
49a7 45        ld      b,l
49a8 47        ld      b,a
49a9 41        ld      b,c
49aa 2e2e      ld      l,2eh
49ac 2e2e      ld      l,2eh
49ae 2e2e      ld      l,2eh
49b0 7a        ld      a,d
49b1 80        add     a,b
49b2 09        add     hl,bc
49b3 52        ld      d,d
49b4 43        ld      b,e
49b5 48        ld      c,b
49b6 45        ld      b,l
49b7 43        ld      b,e
49b8 4b        ld      c,e
49b9 2e2e      ld      l,2eh
49bb 2e2e      ld      l,2eh
49bd 2e2e      ld      l,2eh
49bf e5        push    hl
49c0 47        ld      b,a
49c1 08        ex      af,af'
49c2 58        ld      e,b
49c3 41        ld      b,c
49c4 54        ld      d,h
49c5 44        ld      b,h
49c6 54        ld      d,h
49c7 302b      jr      nc,49f4h
49c9 35        dec     (hl)
49ca 2e2e      ld      l,2eh
49cc 2e2e      ld      l,2eh
49ce f44708    call    p,0847h
49d1 58        ld      e,b
49d2 41        ld      b,c
49d3 54        ld      d,h
49d4 44        ld      b,h
49d5 54        ld      d,h
49d6 312b35    ld      sp,352bh
49d9 2e2e      ld      l,2eh
49db 2e2e      ld      l,2eh
49dd 03        inc     bc
49de 48        ld      c,b
49df 08        ex      af,af'
49e0 58        ld      e,b
49e1 41        ld      b,c
49e2 54        ld      d,h
49e3 44        ld      b,h
49e4 54        ld      d,h
49e5 322b35    ld      (352bh),a
49e8 2e2e      ld      l,2eh
49ea 2e2e      ld      l,2eh
49ec 12        ld      (de),a
49ed 48        ld      c,b
49ee 08        ex      af,af'
49ef 58        ld      e,b
49f0 41        ld      b,c
49f1 54        ld      d,h
49f2 44        ld      b,h
49f3 54        ld      d,h
49f4 33        inc     sp
49f5 2b        dec     hl
49f6 35        dec     (hl)
49f7 2e2e      ld      l,2eh
49f9 2e2e      ld      l,2eh
49fb 83        add     a,e
49fc 80        add     a,b
49fd 12        ld      (de),a
49fe 52        ld      d,d
49ff 56        ld      d,(hl)
4a00 45        ld      b,l
4a01 52        ld      d,d
4a02 53        ld      d,e
4a03 49        ld      c,c
4a04 2e2e      ld      l,2eh
4a06 2e2e      ld      l,2eh
4a08 2e2e      ld      l,2eh
4a0a 1080      djnz    498ch
4a0c 02        ld      (bc),a
4a0d 4c        ld      c,h
4a0e 4f        ld      c,a
4a0f 47        ld      b,a
4a10 50        ld      d,b
4a11 54        ld      d,h
4a12 4f        ld      c,a
4a13 2e2e      ld      l,2eh
4a15 2e2e      ld      l,2eh
4a17 2e2e      ld      l,2eh
4a19 19        add     hl,de
4a1a 80        add     a,b
4a1b 02        ld      (bc),a
4a1c 4c        ld      c,h
4a1d 4f        ld      c,a
4a1e 47        ld      b,a
4a1f 50        ld      d,b
4a20 54        ld      d,h
4a21 49        ld      c,c
4a22 2e2e      ld      l,2eh
4a24 2e2e      ld      l,2eh
4a26 2e2e      ld      l,2eh
4a28 3b        dec     sp
4a29 80        add     a,b
4a2a 02        ld      (bc),a
4a2b 4d        ld      c,l
4a2c 53        ld      d,e
4a2d 49        ld      c,c
4a2e 54        ld      d,h
4a2f 45        ld      b,l
4a30 4e        ld      c,(hl)
4a31 2028      jr      nz,4a5bh
4a33 68        ld      l,b
4a34 65        ld      h,l
4a35 78        ld      a,b
4a36 29        add     hl,hl
4a37 3d        dec     a
4a38 80        add     a,b
4a39 02        ld      (bc),a
4a3a 4d        ld      c,l
4a3b 54        ld      d,h
4a3c 53        ld      d,e
4a3d 45        ld      b,l
4a3e 52        ld      d,d
4a3f 4e        ld      c,(hl)
4a40 2028      jr      nz,4a6ah
4a42 62        ld      h,d
4a43 63        ld      h,e
4a44 64        ld      h,h
4a45 29        add     hl,hl
4a46 3f        ccf     
4a47 80        add     a,b
4a48 03        inc     bc
4a49 4d        ld      c,l
4a4a 43        ld      b,e
4a4b 41        ld      b,c
4a4c 53        ld      d,e
4a4d 48        ld      c,b
4a4e 43        ld      b,e
4a4f 2028      jr      nz,4a79h
4a51 62        ld      h,d
4a52 63        ld      h,e
4a53 64        ld      h,h
4a54 29        add     hl,hl
4a55 42        ld      b,d
4a56 80        add     a,b
4a57 03        inc     bc
4a58 4d        ld      c,l
4a59 43        ld      b,e
4a5a 41        ld      b,c
4a5b 53        ld      d,e
4a5c 48        ld      c,b
4a5d 4f        ld      c,a
4a5e 2028      jr      nz,4a88h
4a60 62        ld      h,d
4a61 63        ld      h,e
4a62 64        ld      h,h
4a63 29        add     hl,hl
4a64 5b        ld      e,e
4a65 80        add     a,b
4a66 04        inc     b
4a67 4d        ld      c,l
4a68 52        ld      d,d
4a69 41        ld      b,c
4a6a 4e        ld      c,(hl)
4a6b 44        ld      b,h
4a6c 3020      jr      nc,4a8eh
4a6e 2862      jr      z,4ad2h
4a70 69        ld      l,c
4a71 6e        ld      l,(hl)
4a72 29        add     hl,hl
4a73 6f        ld      l,a
4a74 80        add     a,b
4a75 01464c    ld      bc,4c46h
4a78 41        ld      b,c
4a79 47        ld      b,a
4a7a 4d        ld      c,l
4a7b 54        ld      d,h
4a7c 2020      jr      nz,4a9eh
4a7e 37        scf     
4a7f 2e2e      ld      l,2eh
4a81 3070      jr      nc,4af3h
4a83 80        add     a,b
4a84 01464c    ld      bc,4c46h
4a87 41        ld      b,c
4a88 47        ld      b,a
4a89 52        ld      d,d
4a8a 41        ld      b,c
4a8b 2020      jr      nz,4aadh
4a8d 37        scf     
4a8e 2e2e      ld      l,2eh
4a90 3071      jr      nc,4b03h
4a92 80        add     a,b
4a93 01464c    ld      bc,4c46h
4a96 41        ld      b,c
4a97 47        ld      b,a
4a98 57        ld      d,a
4a99 54        ld      d,h
4a9a 2020      jr      nz,4abch
4a9c 37        scf     
4a9d 2e2e      ld      l,2eh
4a9f 303f      jr      nc,4ae0h
4aa1 8b        adc     a,e
4aa2 014d4f    ld      bc,4f4dh
4aa5 42        ld      b,d
4aa6 49        ld      c,c
4aa7 54        ld      d,h
4aa8 53        ld      d,e
4aa9 2020      jr      nz,4acbh
4aab 37        scf     
4aac 2e2e      ld      l,2eh
4aae 3043      jr      nc,4af3h
4ab0 8b        adc     a,e
4ab1 05        dec     b
4ab2 4d        ld      c,l
4ab3 43        ld      b,e
4ab4 48        ld      c,b
4ab5 41        ld      b,c
4ab6 52        ld      d,d
4ab7 53        ld      d,e
4ab8 2e2e      ld      l,2eh
4aba 2e2e      ld      l,2eh
4abc 2e2e      ld      l,2eh
4abe 5a        ld      e,d
4abf 80        add     a,b
4ac0 014d43    ld      bc,434dh
4ac3 53        ld      d,e
4ac4 4c        ld      c,h
4ac5 44        ld      b,h
4ac6 41        ld      b,c
4ac7 2028      jr      nz,4af1h
4ac9 62        ld      h,d
4aca 69        ld      l,c
4acb 6e        ld      l,(hl)
4acc 29        add     hl,hl
4acd 67        ld      h,a
4ace 8b        adc     a,e
4acf 014d43    ld      bc,434dh
4ad2 45        ld      b,l
4ad3 4e        ld      c,(hl)
4ad4 54        ld      d,h
4ad5 2020      jr      nz,4af7h
4ad7 2862      jr      z,4b3bh
4ad9 69        ld      l,c
4ada 6e        ld      l,(hl)
4adb 29        add     hl,hl
4adc b8        cp      b
4add 8b        adc     a,e
4ade 01464c    ld      bc,4c46h
4ae1 41        ld      b,c
4ae2 47        ld      b,a
4ae3 42        ld      b,d
4ae4 53        ld      d,e
4ae5 2020      jr      nz,4b07h
4ae7 37        scf     
4ae8 2e2e      ld      l,2eh
4aea 30b9      jr      nc,4aa5h
4aec 8b        adc     a,e
4aed 01464c    ld      bc,4c46h
4af0 41        ld      b,c
4af1 47        ld      b,a
4af2 52        ld      d,d
4af3 45        ld      b,l
4af4 2020      jr      nz,4b16h
4af6 37        scf     
4af7 2e2e      ld      l,2eh
4af9 30ba      jr      nc,4ab5h
4afb 8b        adc     a,e
4afc 01464c    ld      bc,4c46h
4aff 41        ld      b,c
4b00 47        ld      b,a
4b01 43        ld      b,e
4b02 4a        ld      c,d
4b03 2020      jr      nz,4b25h
4b05 37        scf     
4b06 2e2e      ld      l,2eh
4b08 30bb      jr      nc,4ac5h
4b0a 8b        adc     a,e
4b0b 01464c    ld      bc,4c46h
4b0e 41        ld      b,c
4b0f 47        ld      b,a
4b10 4c        ld      c,h
4b11 41        ld      b,c
4b12 2020      jr      nz,4b34h
4b14 37        scf     
4b15 2e2e      ld      l,2eh
4b17 30bc      jr      nc,4ad5h
4b19 8b        adc     a,e
4b1a 01464c    ld      bc,4c46h
4b1d 41        ld      b,c
4b1e 47        ld      b,a
4b1f 4c        ld      c,h
4b20 42        ld      b,d
4b21 2020      jr      nz,4b43h
4b23 37        scf     
4b24 2e2e      ld      l,2eh
4b26 30bd      jr      nc,4ae5h
4b28 8b        adc     a,e
4b29 01464c    ld      bc,4c46h
4b2c 41        ld      b,c
4b2d 47        ld      b,a
4b2e 52        ld      d,d
4b2f 54        ld      d,h
4b30 2020      jr      nz,4b52h
4b32 37        scf     
4b33 2e2e      ld      l,2eh
4b35 30be      jr      nc,4af5h
4b37 8b        adc     a,e
4b38 01464c    ld      bc,4c46h
4b3b 41        ld      b,c
4b3c 47        ld      b,a
4b3d 4c        ld      c,h
4b3e 50        ld      d,b
4b3f 2020      jr      nz,4b61h
4b41 37        scf     
4b42 2e2e      ld      l,2eh
4b44 30bf      jr      nc,4b05h
4b46 8b        adc     a,e
4b47 014d53    ld      bc,534dh
4b4a 54        ld      d,h
4b4b 41        ld      b,c
4b4c 54        ld      d,h
4b4d 312020    ld      sp,2020h
4b50 37        scf     
4b51 2e2e      ld      l,2eh
4b53 304c      jr      nc,4ba1h
4b55 90        sub     b
4b56 015354    ld      bc,5453h
4b59 41        ld      b,c
4b5a 54        ld      d,h
4b5b 42        ld      b,d
4b5c 5a        ld      e,d
4b5d 2020      jr      nz,4b7fh
4b5f 37        scf     
4b60 2e2e      ld      l,2eh
4b62 304d      jr      nc,4bb1h
4b64 90        sub     b
4b65 015354    ld      bc,5453h
4b68 41        ld      b,c
4b69 54        ld      d,h
4b6a 53        ld      d,e
4b6b 43        ld      b,e
4b6c 2020      jr      nz,4b8eh
4b6e 37        scf     
4b6f 2e2e      ld      l,2eh
4b71 3057      jr      nc,4bcah
4b73 90        sub     b
4b74 014552    ld      bc,5245h
4b77 52        ld      d,d
4b78 43        ld      b,e
4b79 4f        ld      c,a
4b7a 44        ld      b,h
4b7b 2028      jr      nz,4ba5h
4b7d 62        ld      h,d
4b7e 63        ld      h,e
4b7f 64        ld      h,h
4b80 29        add     hl,hl
4b81 58        ld      e,b
4b82 90        sub     b
4b83 014552    ld      bc,5245h
4b86 52        ld      d,d
4b87 4f        ld      c,a
4b88 52        ld      d,d
4b89 43        ld      b,e
4b8a 2e2e      ld      l,2eh
4b8c 2e2e      ld      l,2eh
4b8e 2e2e      ld      l,2eh
4b90 23        inc     hl
4b91 3030      jr      nc,4bc3h
4b93 3030      jr      nc,4bc5h
4b95 23        inc     hl
4b96 3030      jr      nc,4bc8h
4b98 3031      jr      nc,4bcbh
4b9a 2a3131    ld      hl,(3131h)
4b9d 31312a    ld      sp,2a31h
4ba0 323232    ld      (3232h),a
4ba3 322a39    ld      (392ah),a
4ba6 39        add     hl,sp
4ba7 39        add     hl,sp
4ba8 39        add     hl,sp
4ba9 23        inc     hl
4baa 33        inc     sp
4bab 3030      jr      nc,4bddh
4bad 3023      jr      nc,4bd2h
4baf 33        inc     sp
4bb0 3030      jr      nc,4be2h
4bb2 312333    ld      sp,3323h
4bb5 3030      jr      nc,4be7h
4bb7 322333    ld      (3323h),a
4bba 3030      jr      nc,4bech
4bbc 33        inc     sp
4bbd 23        inc     hl
4bbe 33        inc     sp
4bbf 33        inc     sp
4bc0 39        add     hl,sp
4bc1 312334    ld      sp,3423h
4bc4 3030      jr      nc,4bf6h
4bc6 3023      jr      nc,4bebh
4bc8 34        inc     (hl)
4bc9 35        dec     (hl)
4bca 3833      jr      c,4bffh
4bcc 23        inc     hl
4bcd 3838      jr      c,4c07h
4bcf 3838      jr      c,4c09h
4bd1 53        ld      d,e
4bd2 43        ld      b,e
4bd3 52        ld      d,d
4bd4 41        ld      b,c
4bd5 54        ld      d,h
4bd6 43        ld      b,e
4bd7 48        ld      c,b
4bd8 2050      jr      nz,4c2ah
4bda 41        ld      b,c
4bdb 44        ld      b,h
4bdc 2042      jr      nz,4c20h
4bde 45        ld      b,l
4bdf 47        ld      b,a
4be0 5f        ld      e,a
4be1 53        ld      d,e
4be2 43        ld      b,e
4be3 52        ld      d,d
4be4 41        ld      b,c
4be5 54        ld      d,h
4be6 43        ld      b,e
4be7 48        ld      c,b
4be8 2050      jr      nz,4c3ah
4bea 41        ld      b,c
4beb 44        ld      b,h
4bec 2045      jr      nz,4c33h
4bee 4e        ld      c,(hl)
4bef 44        ld      b,h
4bf0 5f        ld      e,a
4bf1 54        ld      d,h
4bf2 4f        ld      c,a
4bf3 50        ld      d,b
4bf4 204f      jr      nz,4c45h
4bf6 46        ld      b,(hl)
4bf7 2053      jr      nz,4c4ch
4bf9 54        ld      d,h
4bfa 41        ld      b,c
4bfb 43        ld      b,e
4bfc 4b        ld      c,e
4bfd 5f        ld      e,a
4bfe 5f        ld      e,a
4bff 5f        ld      e,a
4c00 5f        ld      e,a
4c01 41        ld      b,c
4c02 42        ld      b,d
4c03 4f        ld      c,a
4c04 56        ld      d,(hl)
4c05 45        ld      b,l
4c06 204c      jr      nz,4c54h
4c08 4f        ld      c,a
4c09 47        ld      b,a
4c0a 2042      jr      nz,4c4eh
4c0c 45        ld      b,l
4c0d 47        ld      b,a
4c0e 49        ld      c,c
4c0f 4e        ld      c,(hl)
4c10 53        ld      d,e
4c11 1b        dec     de
4c12 213024    ld      hl,2430h
4c15 1b        dec     de
4c16 210024    ld      hl,2400h
4c19 3d        dec     a
4c1a 42        ld      b,d
4c1b 49        ld      c,c
4c1c 47        ld      b,a
4c1d 2043      jr      nz,4c62h
4c1f 48        ld      c,b
4c20 41        ld      b,c
4c21 4e        ld      c,(hl)
4c22 43        ld      b,e
4c23 45        ld      b,l
4c24 204c      jr      nz,4c72h
4c26 4f        ld      c,a
4c27 54        ld      d,h
4c28 54        ld      d,h
4c29 45        ld      b,l
4c2a 52        ld      d,d
4c2b 59        ld      e,c
4c2c 3d        dec     a
4c2d 2024      jr      nz,4c53h
4c2f 46        ld      b,(hl)
4c30 6f        ld      l,a
4c31 72        ld      (hl),d
4c32 204c      jr      nz,4c80h
4c34 6f        ld      l,a
4c35 74        ld      (hl),h
4c36 74        ld      (hl),h
4c37 65        ld      h,l
4c38 72        ld      (hl),d
4c39 79        ld      a,c
4c3a 2044      jr      nz,4c80h
4c3c 61        ld      h,c
4c3d 74        ld      (hl),h
4c3e 65        ld      h,l
4c3f 2024      jr      nz,4c65h
4c41 4c        ld      c,h
4c42 6f        ld      l,a
4c43 74        ld      (hl),h
4c44 74        ld      (hl),h
4c45 65        ld      h,l
4c46 72        ld      (hl),d
4c47 79        ld      a,c
4c48 2044      jr      nz,4c8eh
4c4a 61        ld      h,c
4c4b 79        ld      a,c
4c4c 2f        cpl     
4c4d 44        ld      b,h
4c4e 61        ld      h,c
4c4f 74        ld      (hl),h
4c50 65        ld      h,l
4c51 2042      jr      nz,4c95h
4c53 61        ld      h,c
4c54 64        ld      h,h
4c55 200d      jr      nz,4c64h
4c57 0a        ld      a,(bc)
4c58 24        inc     h
4c59 3d        dec     a
4c5a 3d        dec     a
4c5b 3d        dec     a
4c5c 3d        dec     a
4c5d 3d        dec     a
4c5e 3d        dec     a
4c5f 3d        dec     a
4c60 3d        dec     a
4c61 3d        dec     a
4c62 3d        dec     a
4c63 3d        dec     a
4c64 3d        dec     a
4c65 3d        dec     a
4c66 3d        dec     a
4c67 3d        dec     a
4c68 3d        dec     a
4c69 3d        dec     a
4c6a 3d        dec     a
4c6b 3d        dec     a
4c6c 3d        dec     a
4c6d 3d        dec     a
4c6e 3d        dec     a
4c6f 3d        dec     a
4c70 3d        dec     a
4c71 3d        dec     a
4c72 3d        dec     a
4c73 3d        dec     a
4c74 3d        dec     a
4c75 3d        dec     a
4c76 3d        dec     a
4c77 3d        dec     a
4c78 3d        dec     a
4c79 3d        dec     a
4c7a 3d        dec     a
4c7b 3d        dec     a
4c7c 3d        dec     a
4c7d 3d        dec     a
4c7e 3d        dec     a
4c7f 3d        dec     a
4c80 3d        dec     a
4c81 3d        dec     a
4c82 3d        dec     a
4c83 0d        dec     c
4c84 0a        ld      a,(bc)
4c85 24        inc     h
4c86 2d        dec     l
4c87 202d      jr      nz,4cb6h
4c89 202d      jr      nz,4cb8h
4c8b 202d      jr      nz,4cbah
4c8d 202d      jr      nz,4cbch
4c8f 202d      jr      nz,4cbeh
4c91 202d      jr      nz,4cc0h
4c93 202d      jr      nz,4cc2h
4c95 202d      jr      nz,4cc4h
4c97 202d      jr      nz,4cc6h
4c99 202d      jr      nz,4cc8h
4c9b 202d      jr      nz,4ccah
4c9d 202d      jr      nz,4ccch
4c9f 202d      jr      nz,4cceh
4ca1 202d      jr      nz,4cd0h
4ca3 202d      jr      nz,4cd2h
4ca5 202d      jr      nz,4cd4h
4ca7 202d      jr      nz,4cd6h
4ca9 202d      jr      nz,4cd8h
4cab 202d      jr      nz,4cdah
4cad 202d      jr      nz,4cdch
4caf 200d      jr      nz,4cbeh
4cb1 0a        ld      a,(bc)
4cb2 24        inc     h
4cb3 53        ld      d,e
4cb4 69        ld      l,c
4cb5 74        ld      (hl),h
4cb6 65        ld      h,l
4cb7 204e      jr      nz,4d07h
4cb9 75        ld      (hl),l
4cba 6d        ld      l,l
4cbb 62        ld      h,d
4cbc 65        ld      h,l
4cbd 72        ld      (hl),d
4cbe 3a244e    ld      a,(4e24h)
4cc1 6f        ld      l,a
4cc2 2044      jr      nz,4d08h
4cc4 43        ld      b,e
4cc5 44        ld      b,h
4cc6 2066      jr      nz,4d2eh
4cc8 6f        ld      l,a
4cc9 75        ld      (hl),l
4cca 6e        ld      l,(hl)
4ccb 64        ld      h,h
4ccc 2024      jr      nz,4cf2h
4cce 52        ld      d,d
4ccf 65        ld      h,l
4cd0 76        halt    
4cd1 69        ld      l,c
4cd2 73        ld      (hl),e
4cd3 65        ld      h,l
4cd4 64        ld      h,h
4cd5 2043      jr      nz,4d1ah
4cd7 61        ld      h,c
4cd8 6c        ld      l,h
4cd9 6c        ld      l,h
4cda 2d        dec     l
4cdb 69        ld      l,c
4cdc 6e        ld      l,(hl)
4cdd 2054      jr      nz,4d33h
4cdf 69        ld      l,c
4ce0 6d        ld      l,l
4ce1 65        ld      h,l
4ce2 3a2024    ld      a,(2420h)
4ce5 43        ld      b,e
4ce6 6c        ld      l,h
4ce7 6f        ld      l,a
4ce8 73        ld      (hl),e
4ce9 65        ld      h,l
4cea 64        ld      h,h
4ceb 2066      jr      nz,4d53h
4ced 6f        ld      l,a
4cee 72        ld      (hl),d
4cef 2044      jr      nz,4d35h
4cf1 72        ld      (hl),d
4cf2 61        ld      h,c
4cf3 77        ld      (hl),a
4cf4 2020      jr      nz,4d16h
4cf6 2020      jr      nz,4d18h
4cf8 2020      jr      nz,4d1ah
4cfa 0d        dec     c
4cfb 0a        ld      a,(bc)
4cfc 24        inc     h
4cfd 47        ld      b,a
4cfe 4d        ld      c,l
4cff 54        ld      d,h
4d00 2f        cpl     
4d01 42        ld      b,d
4d02 53        ld      d,e
4d03 54        ld      d,h
4d04 204d      jr      nz,4d53h
4d06 6f        ld      l,a
4d07 64        ld      h,h
4d08 65        ld      h,l
4d09 2043      jr      nz,4d4eh
4d0b 68        ld      l,b
4d0c 61        ld      h,c
4d0d 6e        ld      l,(hl)
4d0e 67        ld      h,a
4d0f 65        ld      h,l
4d10 64        ld      h,h
4d11 200d      jr      nz,4d20h
4d13 0a        ld      a,(bc)
4d14 24        inc     h
4d15 3d        dec     a
4d16 3d        dec     a
4d17 3d        dec     a
4d18 3d        dec     a
4d19 2055      jr      nz,4d70h
4d1b 53        ld      d,e
4d1c 45        ld      b,l
4d1d 52        ld      d,d
4d1e 2045      jr      nz,4d65h
4d20 52        ld      d,d
4d21 52        ld      d,d
4d22 4f        ld      c,a
4d23 52        ld      d,d
4d24 203d      jr      nz,4d63h
4d26 3d        dec     a
4d27 3d        dec     a
4d28 3d        dec     a
4d29 3d        dec     a
4d2a 0d        dec     c
4d2b 0a        ld      a,(bc)
4d2c 24        inc     h
4d2d 55        ld      d,l
4d2e 73        ld      (hl),e
4d2f 65        ld      h,l
4d30 72        ld      (hl),d
4d31 2045      jr      nz,4d78h
4d33 72        ld      (hl),d
4d34 72        ld      (hl),d
4d35 6f        ld      l,a
4d36 72        ld      (hl),d
4d37 2c        inc     l
4d38 2043      jr      nz,4d7dh
4d3a 6f        ld      l,a
4d3b 64        ld      h,h
4d3c 65        ld      h,l
4d3d 2024      jr      nz,4d63h
4d3f 4d        ld      c,l
4d40 65        ld      h,l
4d41 6d        ld      l,l
4d42 6f        ld      l,a
4d43 72        ld      (hl),d
4d44 79        ld      a,c
4d45 2069      jr      nz,4db0h
4d47 73        ld      (hl),e
4d48 2046      jr      nz,4d90h
4d4a 75        ld      (hl),l
4d4b 6c        ld      l,h
4d4c 6c        ld      l,h
4d4d 2020      jr      nz,4d6fh
4d4f 2020      jr      nz,4d71h
4d51 2020      jr      nz,4d73h
4d53 200d      jr      nz,4d62h
4d55 0a        ld      a,(bc)
4d56 24        inc     h
4d57 47        ld      b,a
4d58 4d        ld      c,l
4d59 54        ld      d,h
4d5a 2f        cpl     
4d5b 42        ld      b,d
4d5c 53        ld      d,e
4d5d 54        ld      d,h
4d5e 2054      jr      nz,4db4h
4d60 69        ld      l,c
4d61 6d        ld      l,l
4d62 65        ld      h,l
4d63 2044      jr      nz,4da9h
4d65 65        ld      h,l
4d66 74        ld      (hl),h
4d67 65        ld      h,l
4d68 63        ld      h,e
4d69 74        ld      (hl),h
4d6a 65        ld      h,l
4d6b 64        ld      h,h
4d6c 0d        dec     c
4d6d 0a        ld      a,(bc)
4d6e 24        inc     h
4d6f 53        ld      d,e
4d70 69        ld      l,c
4d71 74        ld      (hl),h
4d72 65        ld      h,l
4d73 2024      jr      nz,4d99h
4d75 2020      jr      nz,4d97h
4d77 2020      jr      nz,4d99h
4d79 2020      jr      nz,4d9bh
4d7b 2020      jr      nz,4d9dh
4d7d 2020      jr      nz,4d9fh
4d7f 2020      jr      nz,4da1h
4d81 50        ld      d,b
4d82 6f        ld      l,a
4d83 77        ld      (hl),a
4d84 65        ld      h,l
4d85 72        ld      (hl),d
4d86 2044      jr      nz,4dcch
4d88 6f        ld      l,a
4d89 77        ld      (hl),a
4d8a 6e        ld      l,(hl)
4d8b 2024      jr      nz,4db1h
4d8d 2020      jr      nz,4dafh
4d8f 2020      jr      nz,4db1h
4d91 2020      jr      nz,4db3h
4d93 2020      jr      nz,4db5h
4d95 2020      jr      nz,4db7h
4d97 2020      jr      nz,4db9h
4d99 2020      jr      nz,4dbbh
4d9b 50        ld      d,b
4d9c 6f        ld      l,a
4d9d 77        ld      (hl),a
4d9e 65        ld      h,l
4d9f 72        ld      (hl),d
4da0 2055      jr      nz,4df7h
4da2 70        ld      (hl),b
4da3 2024      jr      nz,4dc9h
4da5 2020      jr      nz,4dc7h
4da7 2020      jr      nz,4dc9h
4da9 2020      jr      nz,4dcbh
4dab 2020      jr      nz,4dcdh
4dad 43        ld      b,e
4dae 6f        ld      l,a
4daf 6d        ld      l,l
4db0 6d        ld      l,l
4db1 73        ld      (hl),e
4db2 2054      jr      nz,4e08h
4db4 6f        ld      l,a
4db5 2053      jr      nz,4e0ah
4db7 74        ld      (hl),h
4db8 61        ld      h,c
4db9 72        ld      (hl),d
4dba 74        ld      (hl),h
4dbb 2024      jr      nz,4de1h
4dbd 3d        dec     a
4dbe 2049      jr      nz,4e09h
4dc0 4e        ld      c,(hl)
4dc1 53        ld      d,e
4dc2 54        ld      d,h
4dc3 41        ld      b,c
4dc4 4c        ld      c,h
4dc5 4c        ld      c,h
4dc6 45        ld      b,l
4dc7 44        ld      b,h
4dc8 2020      jr      nz,4deah
4dca 4f        ld      c,a
4dcb 50        ld      d,b
4dcc 54        ld      d,h
4dcd 49        ld      c,c
4dce 4f        ld      c,a
4dcf 4e        ld      c,(hl)
4dd0 53        ld      d,e
4dd1 203d      jr      nz,4e10h
4dd3 0d        dec     c
4dd4 0a        ld      a,(bc)
4dd5 24        inc     h
4dd6 50        ld      d,b
4dd7 72        ld      (hl),d
4dd8 65        ld      h,l
4dd9 66        ld      h,(hl)
4dda 69        ld      l,c
4ddb 78        ld      a,b
4ddc 2039      jr      nz,4e17h
4dde 2074      jr      nz,4e54h
4de0 6f        ld      l,a
4de1 2054      jr      nz,4e37h
4de3 65        ld      h,l
4de4 6c        ld      l,h
4de5 2028      jr      nz,4e0fh
4de7 42        ld      b,d
4de8 69        ld      l,c
4de9 74        ld      (hl),h
4dea 2037      jr      nz,4e23h
4dec 29        add     hl,hl
4ded 0d        dec     c
4dee 0a        ld      a,(bc)
4def 24        inc     h
4df0 4e        ld      c,(hl)
4df1 6f        ld      l,a
4df2 2054      jr      nz,4e48h
4df4 65        ld      h,l
4df5 6c        ld      l,h
4df6 2050      jr      nz,4e48h
4df8 72        ld      (hl),d
4df9 65        ld      h,l
4dfa 66        ld      h,(hl)
4dfb 69        ld      l,c
4dfc 78        ld      a,b
4dfd 2020      jr      nz,4e1fh
4dff 2028      jr      nz,4e29h
4e01 42        ld      b,d
4e02 69        ld      l,c
4e03 74        ld      (hl),h
4e04 2037      jr      nz,4e3dh
4e06 29        add     hl,hl
4e07 0d        dec     c
4e08 0a        ld      a,(bc)
4e09 24        inc     h
4e0a 42        ld      b,d
4e0b 69        ld      l,c
4e0c 74        ld      (hl),h
4e0d 2036      jr      nz,4e45h
4e0f 204f      jr      nz,4e60h
4e11 70        ld      (hl),b
4e12 74        ld      (hl),h
4e13 69        ld      l,c
4e14 6f        ld      l,a
4e15 6e        ld      l,(hl)
4e16 2020      jr      nz,4e38h
4e18 2020      jr      nz,4e3ah
4e1a 2842      jr      z,4e5eh
4e1c 69        ld      l,c
4e1d 74        ld      (hl),h
4e1e 2036      jr      nz,4e56h
4e20 29        add     hl,hl
4e21 0d        dec     c
4e22 0a        ld      a,(bc)
4e23 24        inc     h
4e24 42        ld      b,d
4e25 69        ld      l,c
4e26 74        ld      (hl),h
4e27 2035      jr      nz,4e5eh
4e29 204f      jr      nz,4e7ah
4e2b 70        ld      (hl),b
4e2c 74        ld      (hl),h
4e2d 69        ld      l,c
4e2e 6f        ld      l,a
4e2f 6e        ld      l,(hl)
4e30 2020      jr      nz,4e52h
4e32 2020      jr      nz,4e54h
4e34 2842      jr      z,4e78h
4e36 69        ld      l,c
4e37 74        ld      (hl),h
4e38 2035      jr      nz,4e6fh
4e3a 29        add     hl,hl
4e3b 0d        dec     c
4e3c 0a        ld      a,(bc)
4e3d 24        inc     h
4e3e 42        ld      b,d
4e3f 69        ld      l,c
4e40 74        ld      (hl),h
4e41 2034      jr      nz,4e77h
4e43 204f      jr      nz,4e94h
4e45 70        ld      (hl),b
4e46 74        ld      (hl),h
4e47 69        ld      l,c
4e48 6f        ld      l,a
4e49 6e        ld      l,(hl)
4e4a 2020      jr      nz,4e6ch
4e4c 2020      jr      nz,4e6eh
4e4e 2842      jr      z,4e92h
4e50 69        ld      l,c
4e51 74        ld      (hl),h
4e52 2034      jr      nz,4e88h
4e54 29        add     hl,hl
4e55 0d        dec     c
4e56 0a        ld      a,(bc)
4e57 24        inc     h
4e58 43        ld      b,e
4e59 6f        ld      l,a
4e5a 6d        ld      l,l
4e5b 6d        ld      l,l
4e5c 73        ld      (hl),e
4e5d 2045      jr      nz,4ea4h
4e5f 6e        ld      l,(hl)
4e60 61        ld      h,c
4e61 62        ld      h,d
4e62 6c        ld      l,h
4e63 65        ld      h,l
4e64 64        ld      h,h
4e65 2020      jr      nz,4e87h
4e67 2028      jr      nz,4e91h
4e69 42        ld      b,d
4e6a 69        ld      l,c
4e6b 74        ld      (hl),h
4e6c 2033      jr      nz,4ea1h
4e6e 29        add     hl,hl
4e6f 0d        dec     c
4e70 0a        ld      a,(bc)
4e71 24        inc     h
4e72 43        ld      b,e
4e73 6f        ld      l,a
4e74 6d        ld      l,l
4e75 6d        ld      l,l
4e76 73        ld      (hl),e
4e77 2044      jr      nz,4ebdh
4e79 69        ld      l,c
4e7a 73        ld      (hl),e
4e7b 61        ld      h,c
4e7c 62        ld      h,d
4e7d 6c        ld      l,h
4e7e 65        ld      h,l
4e7f 64        ld      h,h
4e80 2020      jr      nz,4ea2h
4e82 2842      jr      z,4ec6h
4e84 69        ld      l,c
4e85 74        ld      (hl),h
4e86 2033      jr      nz,4ebbh
4e88 29        add     hl,hl
4e89 0d        dec     c
4e8a 0a        ld      a,(bc)
4e8b 24        inc     h
4e8c 42        ld      b,d
4e8d 69        ld      l,c
4e8e 74        ld      (hl),h
4e8f 2032      jr      nz,4ec3h
4e91 203d      jr      nz,4ed0h
4e93 2030      jr      nz,4ec5h
4e95 2028      jr      nz,4ebfh
4e97 46        ld      b,(hl)
4e98 69        ld      l,c
4e99 74        ld      (hl),h
4e9a 74        ld      (hl),h
4e9b 65        ld      h,l
4e9c 64        ld      h,h
4e9d 29        add     hl,hl
4e9e 2020      jr      nz,4ec0h
4ea0 2020      jr      nz,4ec2h
4ea2 200d      jr      nz,4eb1h
4ea4 0a        ld      a,(bc)
4ea5 24        inc     h
4ea6 42        ld      b,d
4ea7 69        ld      l,c
4ea8 74        ld      (hl),h
4ea9 2032      jr      nz,4eddh
4eab 203d      jr      nz,4eeah
4ead 2031      jr      nz,4ee0h
4eaf 2028      jr      nz,4ed9h
4eb1 41        ld      b,c
4eb2 62        ld      h,d
4eb3 73        ld      (hl),e
4eb4 65        ld      h,l
4eb5 6e        ld      l,(hl)
4eb6 74        ld      (hl),h
4eb7 29        add     hl,hl
4eb8 2020      jr      nz,4edah
4eba 2020      jr      nz,4edch
4ebc 200d      jr      nz,4ecbh
4ebe 0a        ld      a,(bc)
4ebf 24        inc     h
4ec0 42        ld      b,d
4ec1 69        ld      l,c
4ec2 74        ld      (hl),h
4ec3 2031      jr      nz,4ef6h
4ec5 203d      jr      nz,4f04h
4ec7 2030      jr      nz,4ef9h
4ec9 2028      jr      nz,4ef3h
4ecb 46        ld      b,(hl)
4ecc 69        ld      l,c
4ecd 74        ld      (hl),h
4ece 74        ld      (hl),h
4ecf 65        ld      h,l
4ed0 64        ld      h,h
4ed1 29        add     hl,hl
4ed2 2020      jr      nz,4ef4h
4ed4 2020      jr      nz,4ef6h
4ed6 200d      jr      nz,4ee5h
4ed8 0a        ld      a,(bc)
4ed9 24        inc     h
4eda 42        ld      b,d
4edb 69        ld      l,c
4edc 74        ld      (hl),h
4edd 2031      jr      nz,4f10h
4edf 203d      jr      nz,4f1eh
4ee1 2031      jr      nz,4f14h
4ee3 2028      jr      nz,4f0dh
4ee5 41        ld      b,c
4ee6 62        ld      h,d
4ee7 73        ld      (hl),e
4ee8 65        ld      h,l
4ee9 6e        ld      l,(hl)
4eea 74        ld      (hl),h
4eeb 29        add     hl,hl
4eec 2020      jr      nz,4f0eh
4eee 2020      jr      nz,4f10h
4ef0 200d      jr      nz,4effh
4ef2 0a        ld      a,(bc)
4ef3 24        inc     h
4ef4 42        ld      b,d
4ef5 69        ld      l,c
4ef6 74        ld      (hl),h
4ef7 2030      jr      nz,4f29h
4ef9 203d      jr      nz,4f38h
4efb 2030      jr      nz,4f2dh
4efd 2028      jr      nz,4f27h
4eff 46        ld      b,(hl)
4f00 69        ld      l,c
4f01 74        ld      (hl),h
4f02 74        ld      (hl),h
4f03 65        ld      h,l
4f04 64        ld      h,h
4f05 29        add     hl,hl
4f06 2020      jr      nz,4f28h
4f08 2020      jr      nz,4f2ah
4f0a 200d      jr      nz,4f19h
4f0c 0a        ld      a,(bc)
4f0d 24        inc     h
4f0e 42        ld      b,d
4f0f 69        ld      l,c
4f10 74        ld      (hl),h
4f11 2030      jr      nz,4f43h
4f13 203d      jr      nz,4f52h
4f15 2031      jr      nz,4f48h
4f17 2028      jr      nz,4f41h
4f19 41        ld      b,c
4f1a 62        ld      h,d
4f1b 73        ld      (hl),e
4f1c 65        ld      h,l
4f1d 6e        ld      l,(hl)
4f1e 74        ld      (hl),h
4f1f 29        add     hl,hl
4f20 2020      jr      nz,4f42h
4f22 2020      jr      nz,4f44h
4f24 200d      jr      nz,4f33h
4f26 0a        ld      a,(bc)
4f27 24        inc     h
4f28 50        ld      d,b
4f29 52        ld      d,d
4f2a 49        ld      c,c
4f2b 4e        ld      c,(hl)
4f2c 54        ld      d,h
4f2d 45        ld      b,l
4f2e 52        ld      d,d
4f2f 2049      jr      nz,4f7ah
4f31 6e        ld      l,(hl)
4f32 69        ld      l,c
4f33 74        ld      (hl),h
4f34 69        ld      l,c
4f35 61        ld      h,c
4f36 6c        ld      l,h
4f37 69        ld      l,c
4f38 73        ld      (hl),e
4f39 61        ld      h,c
4f3a 74        ld      (hl),h
4f3b 69        ld      l,c
4f3c 6f        ld      l,a
4f3d 6e        ld      l,(hl)
4f3e 202f      jr      nz,4f6fh
4f40 2054      jr      nz,4f96h
4f42 65        ld      h,l
4f43 73        ld      (hl),e
4f44 74        ld      (hl),h
4f45 2069      jr      nz,4fb0h
4f47 6e        ld      l,(hl)
4f48 2070      jr      nz,4fbah
4f4a 72        ld      (hl),d
4f4b 6f        ld      l,a
4f4c 67        ld      h,a
4f4d 72        ld      (hl),d
4f4e 65        ld      h,l
4f4f 73        ld      (hl),e
4f50 73        ld      (hl),e
4f51 2020      jr      nz,4f73h
4f53 0d        dec     c
4f54 0a        ld      a,(bc)
4f55 24        inc     h
4f56 4d        ld      c,l
4f57 4f        ld      c,a
4f58 44        ld      b,h
4f59 45        ld      b,l
4f5a 4d        ld      c,l
4f5b 2049      jr      nz,4fa6h
4f5d 6e        ld      l,(hl)
4f5e 69        ld      l,c
4f5f 74        ld      (hl),h
4f60 69        ld      l,c
4f61 61        ld      h,c
4f62 6c        ld      l,h
4f63 69        ld      l,c
4f64 73        ld      (hl),e
4f65 61        ld      h,c
4f66 74        ld      (hl),h
4f67 69        ld      l,c
4f68 6f        ld      l,a
4f69 6e        ld      l,(hl)
4f6a 2061      jr      nz,4fcdh
4f6c 6e        ld      l,(hl)
4f6d 64        ld      h,h
4f6e 2054      jr      nz,4fc4h
4f70 65        ld      h,l
4f71 73        ld      (hl),e
4f72 74        ld      (hl),h
4f73 2069      jr      nz,4fdeh
4f75 6e        ld      l,(hl)
4f76 2070      jr      nz,4fe8h
4f78 72        ld      (hl),d
4f79 6f        ld      l,a
4f7a 67        ld      h,a
4f7b 72        ld      (hl),d
4f7c 65        ld      h,l
4f7d 73        ld      (hl),e
4f7e 73        ld      (hl),e
4f7f 2020      jr      nz,4fa1h
4f81 0d        dec     c
4f82 0a        ld      a,(bc)
4f83 24        inc     h
4f84 50        ld      d,b
4f85 72        ld      (hl),d
4f86 6f        ld      l,a
4f87 6d        ld      l,l
4f88 6f        ld      l,a
4f89 74        ld      (hl),h
4f8a 65        ld      h,l
4f8b 72        ld      (hl),d
4f8c 2064      jr      nz,4ff2h
4f8e 65        ld      h,l
4f8f 74        ld      (hl),h
4f90 61        ld      h,c
4f91 69        ld      l,c
4f92 6c        ld      l,h
4f93 73        ld      (hl),e
4f94 2077      jr      nz,500dh
4f96 69        ld      l,c
4f97 6c        ld      l,h
4f98 6c        ld      l,h
4f99 2061      jr      nz,4ffch
4f9b 70        ld      (hl),b
4f9c 70        ld      (hl),b
4f9d 65        ld      h,l
4f9e 61        ld      h,c
4f9f 72        ld      (hl),d
4fa0 2061      jr      nz,5003h
4fa2 73        ld      (hl),e
4fa3 2066      jr      nz,500bh
4fa5 6f        ld      l,a
4fa6 6c        ld      l,h
4fa7 6c        ld      l,h
4fa8 6f        ld      l,a
4fa9 77        ld      (hl),a
4faa 73        ld      (hl),e
4fab 3a200d    ld      a,(0d20h)
4fae 0a        ld      a,(bc)
4faf 24        inc     h
4fb0 4b        ld      c,e
4fb1 45        ld      b,l
4fb2 59        ld      e,c
4fb3 50        ld      d,b
4fb4 41        ld      b,c
4fb5 44        ld      b,h
4fb6 204b      jr      nz,5003h
4fb8 65        ld      h,l
4fb9 79        ld      a,c
4fba 2044      jr      nz,5000h
4fbc 65        ld      h,l
4fbd 74        ld      (hl),h
4fbe 65        ld      h,l
4fbf 63        ld      h,e
4fc0 74        ld      (hl),h
4fc1 65        ld      h,l
4fc2 64        ld      h,h
4fc3 202d      jr      nz,4ff2h
4fc5 204d      jr      nz,5014h
4fc7 61        ld      h,c
4fc8 74        ld      (hl),h
4fc9 72        ld      (hl),d
4fca 69        ld      l,c
4fcb 78        ld      a,b
4fcc 2046      jr      nz,5014h
4fce 6f        ld      l,a
4fcf 6c        ld      l,h
4fd0 6c        ld      l,h
4fd1 6f        ld      l,a
4fd2 77        ld      (hl),a
4fd3 73        ld      (hl),e
4fd4 2020      jr      nz,4ff6h
4fd6 2020      jr      nz,4ff8h
4fd8 2020      jr      nz,4ffah
4fda 200d      jr      nz,4fe9h
4fdc 0a        ld      a,(bc)
4fdd 24        inc     h
4fde 53        ld      d,e
4fdf 79        ld      a,c
4fe0 73        ld      (hl),e
4fe1 74        ld      (hl),h
4fe2 65        ld      h,l
4fe3 6d        ld      l,l
4fe4 2043      jr      nz,5029h
4fe6 6f        ld      l,a
4fe7 6d        ld      l,l
4fe8 6d        ld      l,l
4fe9 69        ld      l,c
4fea 73        ld      (hl),e
4feb 73        ld      (hl),e
4fec 69        ld      l,c
4fed 6f        ld      l,a
4fee 6e        ld      l,(hl)
4fef 65        ld      h,l
4ff0 64        ld      h,h
4ff1 2020      jr      nz,5013h
4ff3 0d        dec     c
4ff4 0a        ld      a,(bc)
4ff5 24        inc     h
4ff6 44        ld      b,h
4ff7 65        ld      h,l
4ff8 2d        dec     l
4ff9 61        ld      h,c
4ffa 63        ld      h,e
4ffb 74        ld      (hl),h
4ffc 69        ld      l,c
4ffd 76        halt    
4ffe 61        ld      h,c
4fff 74        ld      (hl),h
5000 65        ld      h,l
5001 64        ld      h,h
5002 2043      jr      nz,5047h
5004 6f        ld      l,a
5005 64        ld      h,h
5006 65        ld      h,l
5007 2042      jr      nz,504bh
5009 44        ld      b,h
500a 380d      jr      c,5019h
500c 0a        ld      a,(bc)
500d 24        inc     h
500e 44        ld      b,h
500f 65        ld      h,l
5010 2d        dec     l
5011 61        ld      h,c
5012 63        ld      h,e
5013 74        ld      (hl),h
5014 69        ld      l,c
5015 76        halt    
5016 61        ld      h,c
5017 74        ld      (hl),h
5018 65        ld      h,l
5019 64        ld      h,h
501a 2043      jr      nz,505fh
501c 6f        ld      l,a
501d 64        ld      h,h
501e 65        ld      h,l
501f 2042      jr      nz,5063h
5021 4d        ld      c,l
5022 39        add     hl,sp
5023 0d        dec     c
5024 0a        ld      a,(bc)
5025 24        inc     h
5026 2850      jr      z,5078h
5028 6c        ld      l,h
5029 65        ld      h,l
502a 61        ld      h,c
502b 73        ld      (hl),e
502c 65        ld      h,l
502d 2077      jr      nz,50a6h
502f 61        ld      h,c
5030 69        ld      l,c
5031 74        ld      (hl),h
5032 2066      jr      nz,509ah
5034 6f        ld      l,a
5035 72        ld      (hl),d
5036 2063      jr      nz,509bh
5038 6f        ld      l,a
5039 6d        ld      l,l
503a 6d        ld      l,l
503b 75        ld      (hl),l
503c 6e        ld      l,(hl)
503d 69        ld      l,c
503e 63        ld      h,e
503f 61        ld      h,c
5040 74        ld      (hl),h
5041 69        ld      l,c
5042 6f        ld      l,a
5043 6e        ld      l,(hl)
5044 2062      jr      nz,50a8h
5046 65        ld      h,l
5047 65        ld      h,l
5048 70        ld      (hl),b
5049 73        ld      (hl),e
504a 29        add     hl,hl
504b 0d        dec     c
504c 0a        ld      a,(bc)
504d 24        inc     h
504e 50        ld      d,b
504f 72        ld      (hl),d
5050 6f        ld      l,a
5051 6d        ld      l,l
5052 6f        ld      l,a
5053 74        ld      (hl),h
5054 65        ld      h,l
5055 72        ld      (hl),d
5056 2043      jr      nz,509bh
5058 68        ld      l,b
5059 61        ld      h,c
505a 6e        ld      l,(hl)
505b 67        ld      h,a
505c 65        ld      h,l
505d 64        ld      h,h
505e 2020      jr      nz,5080h
5060 2020      jr      nz,5082h
5062 200d      jr      nz,5071h
5064 0a        ld      a,(bc)
5065 24        inc     h
5066 56        ld      d,(hl)
5067 65        ld      h,l
5068 72        ld      (hl),d
5069 73        ld      (hl),e
506a 69        ld      l,c
506b 6f        ld      l,a
506c 6e        ld      l,(hl)
506d 2049      jr      nz,50b8h
506f 6e        ld      l,(hl)
5070 69        ld      l,c
5071 74        ld      (hl),h
5072 69        ld      l,c
5073 61        ld      h,c
5074 6c        ld      l,h
5075 69        ld      l,c
5076 73        ld      (hl),e
5077 65        ld      h,l
5078 64        ld      h,h
5079 2020      jr      nz,509bh
507b 200d      jr      nz,508ah
507d 0a        ld      a,(bc)
507e 24        inc     h
507f 56        ld      d,(hl)
5080 65        ld      h,l
5081 72        ld      (hl),d
5082 73        ld      (hl),e
5083 69        ld      l,c
5084 6f        ld      l,a
5085 6e        ld      l,(hl)
5086 2055      jr      nz,50ddh
5088 6e        ld      l,(hl)
5089 63        ld      h,e
508a 68        ld      l,b
508b 61        ld      h,c
508c 6e        ld      l,(hl)
508d 67        ld      h,a
508e 65        ld      h,l
508f 64        ld      h,h
5090 2020      jr      nz,50b2h
5092 2020      jr      nz,50b4h
5094 200d      jr      nz,50a3h
5096 0a        ld      a,(bc)
5097 24        inc     h
5098 41        ld      b,c
5099 63        ld      h,e
509a 74        ld      (hl),h
509b 69        ld      l,c
509c 76        halt    
509d 61        ld      h,c
509e 74        ld      (hl),h
509f 65        ld      h,l
50a0 64        ld      h,h
50a1 2043      jr      nz,50e6h
50a3 6f        ld      l,a
50a4 64        ld      h,h
50a5 65        ld      h,l
50a6 2042      jr      nz,50eah
50a8 44        ld      b,h
50a9 3820      jr      c,50cbh
50ab 2020      jr      nz,50cdh
50ad 0d        dec     c
50ae 0a        ld      a,(bc)
50af 24        inc     h
50b0 2850      jr      z,5102h
50b2 6c        ld      l,h
50b3 65        ld      h,l
50b4 61        ld      h,c
50b5 73        ld      (hl),e
50b6 65        ld      h,l
50b7 2077      jr      nz,5130h
50b9 61        ld      h,c
50ba 69        ld      l,c
50bb 74        ld      (hl),h
50bc 2064      jr      nz,5122h
50be 75        ld      (hl),l
50bf 72        ld      (hl),d
50c0 69        ld      l,c
50c1 6e        ld      l,(hl)
50c2 67        ld      h,a
50c3 204d      jr      nz,5112h
50c5 4f        ld      c,a
50c6 44        ld      b,h
50c7 45        ld      b,l
50c8 4d        ld      c,l
50c9 2074      jr      nz,513fh
50cb 69        ld      l,c
50cc 6d        ld      l,l
50cd 65        ld      h,l
50ce 6f        ld      l,a
50cf 75        ld      (hl),l
50d0 74        ld      (hl),h
50d1 2062      jr      nz,5135h
50d3 65        ld      h,l
50d4 65        ld      h,l
50d5 70        ld      (hl),b
50d6 73        ld      (hl),e
50d7 29        add     hl,hl
50d8 0d        dec     c
50d9 0a        ld      a,(bc)
50da 24        inc     h
50db 49        ld      c,c
50dc 6e        ld      l,(hl)
50dd 69        ld      l,c
50de 74        ld      (hl),h
50df 69        ld      l,c
50e0 61        ld      h,c
50e1 74        ld      (hl),h
50e2 65        ld      h,l
50e3 2044      jr      nz,5129h
50e5 69        ld      l,c
50e6 61        ld      h,c
50e7 6c        ld      l,h
50e8 2055      jr      nz,513fh
50ea 70        ld      (hl),b
50eb 2042      jr      nz,512fh
50ed 4d        ld      c,l
50ee 39        add     hl,sp
50ef 200d      jr      nz,50feh
50f1 0a        ld      a,(bc)
50f2 24        inc     h
50f3 2020      jr      nz,5115h
50f5 2020      jr      nz,5117h
50f7 2020      jr      nz,5119h
50f9 204c      jr      nz,5147h
50fb 6f        ld      l,a
50fc 67        ld      h,a
50fd 2044      jr      nz,5143h
50ff 75        ld      (hl),l
5100 6d        ld      l,l
5101 70        ld      (hl),b
5102 0d        dec     c
5103 0a        ld      a,(bc)
5104 24        inc     h
5105 2d        dec     l
5106 2d        dec     l
5107 2d        dec     l
5108 2d        dec     l
5109 2d        dec     l
510a 2d        dec     l
510b 2d        dec     l
510c 2d        dec     l
510d 2d        dec     l
510e 2d        dec     l
510f 2d        dec     l
5110 2d        dec     l
5111 2d        dec     l
5112 204c      jr      nz,5160h
5114 4f        ld      c,a
5115 47        ld      b,a
5116 2044      jr      nz,515ch
5118 55        ld      d,l
5119 4d        ld      c,l
511a 50        ld      d,b
511b 2053      jr      nz,5170h
511d 54        ld      d,h
511e 41        ld      b,c
511f 52        ld      d,d
5120 54        ld      d,h
5121 202d      jr      nz,5150h
5123 2d        dec     l
5124 2d        dec     l
5125 2d        dec     l
5126 2d        dec     l
5127 2d        dec     l
5128 2d        dec     l
5129 2d        dec     l
512a 2d        dec     l
512b 2d        dec     l
512c 2d        dec     l
512d 2d        dec     l
512e 2d        dec     l
512f 0d        dec     c
5130 0a        ld      a,(bc)
5131 24        inc     h
5132 4c        ld      c,h
5133 43        ld      b,e
5134 2020      jr      nz,5156h
5136 312032    ld      sp,3220h
5139 2033      jr      nz,516eh
513b 2034      jr      nz,5171h
513d 2078      jr      nz,51b7h
513f 2078      jr      nz,51b9h
5141 2078      jr      nz,51bbh
5143 2078      jr      nz,51bdh
5145 206d      jr      nz,51b4h
5147 6d        ld      l,l
5148 68        ld      l,b
5149 68        ld      l,b
514a 64        ld      h,h
514b 64        ld      h,h
514c 4d        ld      c,l
514d 4d        ld      c,l
514e 79        ld      a,c
514f 79        ld      a,c
5150 63        ld      h,e
5151 63        ld      h,e
5152 2020      jr      nz,5174h
5154 53        ld      d,e
5155 2f        cpl     
5156 4e        ld      c,(hl)
5157 204c      jr      nz,51a5h
5159 6e        ld      l,(hl)
515a 2043      jr      nz,519fh
515c 53        ld      d,e
515d 0d        dec     c
515e 0a        ld      a,(bc)
515f 24        inc     h
5160 2d        dec     l
5161 2d        dec     l
5162 2d        dec     l
5163 2d        dec     l
5164 2d        dec     l
5165 2d        dec     l
5166 2d        dec     l
5167 2d        dec     l
5168 2d        dec     l
5169 2d        dec     l
516a 2d        dec     l
516b 2d        dec     l
516c 2d        dec     l
516d 2d        dec     l
516e 204c      jr      nz,51bch
5170 4f        ld      c,a
5171 47        ld      b,a
5172 2044      jr      nz,51b8h
5174 55        ld      d,l
5175 4d        ld      c,l
5176 50        ld      d,b
5177 2045      jr      nz,51beh
5179 4e        ld      c,(hl)
517a 44        ld      b,h
517b 202d      jr      nz,51aah
517d 2d        dec     l
517e 2d        dec     l
517f 2d        dec     l
5180 2d        dec     l
5181 2d        dec     l
5182 2d        dec     l
5183 2d        dec     l
5184 2d        dec     l
5185 2d        dec     l
5186 2d        dec     l
5187 2d        dec     l
5188 2d        dec     l
5189 2d        dec     l
518a 0d        dec     c
518b 0a        ld      a,(bc)
518c 24        inc     h
518d 4f        ld      c,a
518e 70        ld      (hl),b
518f 65        ld      h,l
5190 6e        ld      l,(hl)
5191 2066      jr      nz,51f9h
5193 6f        ld      l,a
5194 72        ld      (hl),d
5195 2044      jr      nz,51dbh
5197 72        ld      (hl),d
5198 61        ld      h,c
5199 77        ld      (hl),a
519a 2020      jr      nz,51bch
519c 2020      jr      nz,51beh
519e 2020      jr      nz,51c0h
51a0 2020      jr      nz,51c2h
51a2 0d        dec     c
51a3 0a        ld      a,(bc)
51a4 24        inc     h
51a5 43        ld      b,e
51a6 6c        ld      l,h
51a7 6f        ld      l,a
51a8 63        ld      h,e
51a9 6b        ld      l,e
51aa 2053      jr      nz,51ffh
51ac 65        ld      h,l
51ad 74        ld      (hl),h
51ae 2053      jr      nz,5203h
51b0 74        ld      (hl),h
51b1 61        ld      h,c
51b2 72        ld      (hl),d
51b3 74        ld      (hl),h
51b4 65        ld      h,l
51b5 64        ld      h,h
51b6 2020      jr      nz,51d8h
51b8 2020      jr      nz,51dah
51ba 0d        dec     c
51bb 0a        ld      a,(bc)
51bc 24        inc     h
51bd 43        ld      b,e
51be 6c        ld      l,h
51bf 6f        ld      l,a
51c0 63        ld      h,e
51c1 6b        ld      l,e
51c2 2053      jr      nz,5217h
51c4 65        ld      h,l
51c5 74        ld      (hl),h
51c6 2046      jr      nz,520eh
51c8 69        ld      l,c
51c9 6e        ld      l,(hl)
51ca 69        ld      l,c
51cb 73        ld      (hl),e
51cc 68        ld      l,b
51cd 65        ld      h,l
51ce 64        ld      h,h
51cf 2020      jr      nz,51f1h
51d1 200d      jr      nz,51e0h
51d3 0a        ld      a,(bc)
51d4 24        inc     h
51d5 2d        dec     l
51d6 2d        dec     l
51d7 2d        dec     l
51d8 2d        dec     l
51d9 2d        dec     l
51da 2d        dec     l
51db 2d        dec     l
51dc 2d        dec     l
51dd 2d        dec     l
51de 2044      jr      nz,5224h
51e0 49        ld      c,c
51e1 41        ld      b,c
51e2 47        ld      b,a
51e3 4e        ld      c,(hl)
51e4 4f        ld      c,a
51e5 53        ld      d,e
51e6 54        ld      d,h
51e7 49        ld      c,c
51e8 43        ld      b,e
51e9 2053      jr      nz,523eh
51eb 54        ld      d,h
51ec 41        ld      b,c
51ed 54        ld      d,h
51ee 55        ld      d,l
51ef 53        ld      d,e
51f0 2044      jr      nz,5236h
51f2 55        ld      d,l
51f3 4d        ld      c,l
51f4 50        ld      d,b
51f5 202d      jr      nz,5224h
51f7 2d        dec     l
51f8 2d        dec     l
51f9 2d        dec     l
51fa 2d        dec     l
51fb 2d        dec     l
51fc 2d        dec     l
51fd 2d        dec     l
51fe 2d        dec     l
51ff 0d        dec     c
5200 0a        ld      a,(bc)
5201 24        inc     h
5202 2020      jr      nz,5224h
5204 2020      jr      nz,5226h
5206 53        ld      d,e
5207 79        ld      a,c
5208 73        ld      (hl),e
5209 74        ld      (hl),h
520a 65        ld      h,l
520b 6d        ld      l,l
520c 2053      jr      nz,5261h
520e 74        ld      (hl),h
520f 61        ld      h,c
5210 74        ld      (hl),h
5211 75        ld      (hl),l
5212 73        ld      (hl),e
5213 2020      jr      nz,5235h
5215 2020      jr      nz,5237h
5217 0d        dec     c
5218 0a        ld      a,(bc)
5219 24        inc     h
521a 2d        dec     l
521b 2d        dec     l
521c 2d        dec     l
521d 2d        dec     l
521e 2d        dec     l
521f 2d        dec     l
5220 2d        dec     l
5221 2044      jr      nz,5267h
5223 49        ld      c,c
5224 41        ld      b,c
5225 47        ld      b,a
5226 4e        ld      c,(hl)
5227 4f        ld      c,a
5228 53        ld      d,e
5229 54        ld      d,h
522a 49        ld      c,c
522b 43        ld      b,e
522c 2053      jr      nz,5281h
522e 54        ld      d,h
522f 41        ld      b,c
5230 54        ld      d,h
5231 55        ld      d,l
5232 53        ld      d,e
5233 2044      jr      nz,5279h
5235 55        ld      d,l
5236 4d        ld      c,l
5237 50        ld      d,b
5238 2045      jr      nz,527fh
523a 4e        ld      c,(hl)
523b 44        ld      b,h
523c 202d      jr      nz,526bh
523e 2d        dec     l
523f 2d        dec     l
5240 2d        dec     l
5241 2d        dec     l
5242 2d        dec     l
5243 2d        dec     l
5244 0d        dec     c
5245 0a        ld      a,(bc)
5246 24        inc     h
5247 24        inc     h
5248 00        nop     
5249 00        nop     
524a 24        inc     h
524b 00        nop     
524c 00        nop     
524d 24        inc     h
524e 00        nop     
524f 00        nop     
5250 24        inc     h
5251 00        nop     
5252 00        nop     
5253 52        ld      d,d
5254 65        ld      h,l
5255 66        ld      h,(hl)
5256 204e      jr      nz,52a6h
5258 75        ld      (hl),l
5259 6d        ld      l,l
525a 62        ld      h,d
525b 65        ld      h,l
525c 72        ld      (hl),d
525d 3a2450    ld      a,(5024h)
5260 72        ld      (hl),d
5261 69        ld      l,c
5262 63        ld      h,e
5263 65        ld      h,l
5264 2070      jr      nz,52d6h
5266 65        ld      h,l
5267 72        ld      (hl),d
5268 2065      jr      nz,52cfh
526a 6e        ld      l,(hl)
526b 74        ld      (hl),h
526c 72        ld      (hl),d
526d 79        ld      a,c
526e 3a2020    ld      a,(2020h)
5271 2020      jr      nz,5293h
5273 2020      jr      nz,5295h
5275 2020      jr      nz,5297h
5277 2020      jr      nz,5299h
5279 2020      jr      nz,529bh
527b 2020      jr      nz,529dh
527d 2020      jr      nz,529fh
527f 2020      jr      nz,52a1h
5281 2020      jr      nz,52a3h
5283 2020      jr      nz,52a5h
5285 2020      jr      nz,52a7h
5287 9c        sbc     a,h
5288 31200d    ld      sp,0d20h
528b 0a        ld      a,(bc)
528c 24        inc     h
528d 41        ld      b,c
528e 6c        ld      l,h
528f 6c        ld      l,h
5290 2061      jr      nz,52f3h
5292 6d        ld      l,l
5293 6f        ld      l,a
5294 75        ld      (hl),l
5295 6e        ld      l,(hl)
5296 74        ld      (hl),h
5297 73        ld      (hl),e
5298 2069      jr      nz,5303h
529a 6e        ld      l,(hl)
529b 2050      jr      nz,52edh
529d 6f        ld      l,a
529e 75        ld      (hl),l
529f 6e        ld      l,(hl)
52a0 64        ld      h,h
52a1 73        ld      (hl),e
52a2 2053      jr      nz,52f7h
52a4 74        ld      (hl),h
52a5 65        ld      h,l
52a6 72        ld      (hl),d
52a7 6c        ld      l,h
52a8 69        ld      l,c
52a9 6e        ld      l,(hl)
52aa 67        ld      h,a
52ab 200d      jr      nz,52bah
52ad 0a        ld      a,(bc)
52ae 24        inc     h
52af 2e2e      ld      l,2eh
52b1 2e2e      ld      l,2eh
52b3 2e2e      ld      l,2eh
52b5 2e2e      ld      l,2eh
52b7 2e2e      ld      l,2eh
52b9 2e2e      ld      l,2eh
52bb 2e2e      ld      l,2eh
52bd 2e9c      ld      l,9ch
52bf 31242e    ld      sp,2e24h
52c2 2e2e      ld      l,2eh
52c4 2e2e      ld      l,2eh
52c6 2e2e      ld      l,2eh
52c8 2e2e      ld      l,2eh
52ca 2e2e      ld      l,2eh
52cc 2e2e      ld      l,2eh
52ce 2e2e      ld      l,2eh
52d0 9c        sbc     a,h
52d1 35        dec     (hl)
52d2 24        inc     h
52d3 2e2e      ld      l,2eh
52d5 2e2e      ld      l,2eh
52d7 2e2e      ld      l,2eh
52d9 2e2e      ld      l,2eh
52db 2e2e      ld      l,2eh
52dd 2e2e      ld      l,2eh
52df 2e2e      ld      l,2eh
52e1 9c        sbc     a,h
52e2 313024    ld      sp,2430h
52e5 2e2e      ld      l,2eh
52e7 2e2e      ld      l,2eh
52e9 2e2e      ld      l,2eh
52eb 2e2e      ld      l,2eh
52ed 2e2e      ld      l,2eh
52ef 2e2e      ld      l,2eh
52f1 9c        sbc     a,h
52f2 33        inc     sp
52f3 24        inc     h
52f4 2e2e      ld      l,2eh
52f6 2e2e      ld      l,2eh
52f8 2e2e      ld      l,2eh
52fa 2e2e      ld      l,2eh
52fc 2e2e      ld      l,2eh
52fe 2e9c      ld      l,9ch
5300 313524    ld      sp,2435h
5303 2e2e      ld      l,2eh
5305 2e2e      ld      l,2eh
5307 2e2e      ld      l,2eh
5309 2e2e      ld      l,2eh
530b 2e2e      ld      l,2eh
530d 2e9c      ld      l,9ch
530f 33        inc     sp
5310 3024      jr      nc,5336h
5312 2e2e      ld      l,2eh
5314 2e2e      ld      l,2eh
5316 2e2e      ld      l,2eh
5318 2e9c      ld      l,9ch
531a 313530    ld      sp,3035h
531d 24        inc     h
531e 2e2e      ld      l,2eh
5320 2e2e      ld      l,2eh
5322 2e2e      ld      l,2eh
5324 2e9c      ld      l,9ch
5326 33        inc     sp
5327 3030      jr      nc,5359h
5329 24        inc     h
532a 2e2e      ld      l,2eh
532c 2e9c      ld      l,9ch
532e 313530    ld      sp,3035h
5331 3024      jr      nc,5357h
5333 2e2e      ld      l,2eh
5335 2e9c      ld      l,9ch
5337 33        inc     sp
5338 3030      jr      nc,536ah
533a 3024      jr      nc,5360h
533c 3d        dec     a
533d 3d        dec     a
533e 3d        dec     a
533f 3d        dec     a
5340 3d        dec     a
5341 3d        dec     a
5342 3d        dec     a
5343 3d        dec     a
5344 3d        dec     a
5345 3d        dec     a
5346 3d        dec     a
5347 3d        dec     a
5348 3d        dec     a
5349 3d        dec     a
534a 3d        dec     a
534b 3d        dec     a
534c 3d        dec     a
534d 3d        dec     a
534e 3d        dec     a
534f 3d        dec     a
5350 3d        dec     a
5351 0d        dec     c
5352 0a        ld      a,(bc)
5353 24        inc     h
5354 1b        dec     de
5355 2d        dec     l
5356 32544f    ld      (4f54h),a
5359 2057      jr      nz,53b2h
535b 49        ld      c,c
535c 4e        ld      c,(hl)
535d 1b        dec     de
535e 2d        dec     l
535f 300d      jr      nc,536eh
5361 0a        ld      a,(bc)
5362 24        inc     h
5363 59        ld      e,c
5364 6f        ld      l,a
5365 75        ld      (hl),l
5366 206d      jr      nz,53d5h
5368 75        ld      (hl),l
5369 73        ld      (hl),e
536a 74        ld      (hl),h
536b 206d      jr      nz,53dah
536d 61        ld      h,c
536e 74        ld      (hl),h
536f 63        ld      h,e
5370 68        ld      l,b
5371 201b      jr      nz,538eh
5373 2d        dec     l
5374 32616c    ld      (6c61h),a
5377 6c        ld      l,h
5378 1b        dec     de
5379 2d        dec     l
537a 3020      jr      nc,539ch
537c 74        ld      (hl),h
537d 68        ld      l,b
537e 65        ld      h,l
537f 206e      jr      nz,53efh
5381 75        ld      (hl),l
5382 6d        ld      l,l
5383 62        ld      h,d
5384 65        ld      h,l
5385 72        ld      (hl),d
5386 73        ld      (hl),e
5387 206f      jr      nz,53f8h
5389 6e        ld      l,(hl)
538a 2061      jr      nz,53edh
538c 206c      jr      nz,53fah
538e 69        ld      l,c
538f 6e        ld      l,(hl)
5390 65        ld      h,l
5391 2020      jr      nz,53b3h
5393 0d        dec     c
5394 0a        ld      a,(bc)
5395 24        inc     h
5396 57        ld      d,a
5397 69        ld      l,c
5398 6e        ld      l,(hl)
5399 6e        ld      l,(hl)
539a 69        ld      l,c
539b 6e        ld      l,(hl)
539c 67        ld      h,a
539d 206e      jr      nz,540dh
539f 75        ld      (hl),l
53a0 6d        ld      l,l
53a1 62        ld      h,d
53a2 65        ld      h,l
53a3 72        ld      (hl),d
53a4 73        ld      (hl),e
53a5 2073      jr      nz,541ah
53a7 61        ld      h,c
53a8 6d        ld      l,l
53a9 65        ld      h,l
53aa 2061      jr      nz,540dh
53ac 73        ld      (hl),e
53ad 2054      jr      nz,5403h
53af 56        ld      d,(hl)
53b0 2064      jr      nz,5416h
53b2 72        ld      (hl),d
53b3 61        ld      h,c
53b4 77        ld      (hl),a
53b5 200d      jr      nz,53c4h
53b7 0a        ld      a,(bc)
53b8 24        inc     h
53b9 55        ld      d,l
53ba 73        ld      (hl),e
53bb 69        ld      l,c
53bc 6e        ld      l,(hl)
53bd 67        ld      h,a
53be 2036      jr      nz,53f6h
53c0 206e      jr      nz,5430h
53c2 75        ld      (hl),l
53c3 6d        ld      l,l
53c4 62        ld      h,d
53c5 65        ld      h,l
53c6 72        ld      (hl),d
53c7 73        ld      (hl),e
53c8 202d      jr      nz,53f7h
53ca 2079      jr      nz,5445h
53cc 6f        ld      l,a
53cd 75        ld      (hl),l
53ce 2077      jr      nz,5447h
53d0 69        ld      l,c
53d1 6e        ld      l,(hl)
53d2 2066      jr      nz,543ah
53d4 75        ld      (hl),l
53d5 6c        ld      l,h
53d6 6c        ld      l,h
53d7 2070      jr      nz,5449h
53d9 72        ld      (hl),d
53da 69        ld      l,c
53db 7a        ld      a,d
53dc 65        ld      h,l
53dd 2076      jr      nz,5455h
53df 61        ld      h,c
53e0 6c        ld      l,h
53e1 75        ld      (hl),l
53e2 65        ld      h,l
53e3 0d        dec     c
53e4 0a        ld      a,(bc)
53e5 24        inc     h
53e6 55        ld      d,l
53e7 73        ld      (hl),e
53e8 69        ld      l,c
53e9 6e        ld      l,(hl)
53ea 67        ld      h,a
53eb 2036      jr      nz,5423h
53ed 206e      jr      nz,545dh
53ef 75        ld      (hl),l
53f0 6d        ld      l,l
53f1 62        ld      h,d
53f2 65        ld      h,l
53f3 72        ld      (hl),d
53f4 73        ld      (hl),e
53f5 2b        dec     hl
53f6 62        ld      h,d
53f7 6f        ld      l,a
53f8 6e        ld      l,(hl)
53f9 75        ld      (hl),l
53fa 73        ld      (hl),e
53fb 202d      jr      nz,542ah
53fd 2079      jr      nz,5478h
53ff 6f        ld      l,a
5400 75        ld      (hl),l
5401 2077      jr      nz,547ah
5403 69        ld      l,c
5404 6e        ld      l,(hl)
5405 2068      jr      nz,546fh
5407 61        ld      h,c
5408 6c        ld      l,h
5409 66        ld      h,(hl)
540a 2070      jr      nz,547ch
540c 72        ld      (hl),d
540d 69        ld      l,c
540e 7a        ld      a,d
540f 65        ld      h,l
5410 0d        dec     c
5411 0a        ld      a,(bc)
5412 24        inc     h
5413 1b        dec     de
5414 2d        dec     l
5415 324f52    ld      (524fh),a
5418 1b        dec     de
5419 2d        dec     l
541a 300d      jr      nc,5429h
541c 0a        ld      a,(bc)
541d 24        inc     h
541e 4d        ld      c,l
541f 61        ld      h,c
5420 74        ld      (hl),h
5421 63        ld      h,e
5422 68        ld      l,b
5423 2062      jr      nz,5487h
5425 6f        ld      l,a
5426 6e        ld      l,(hl)
5427 75        ld      (hl),l
5428 73        ld      (hl),e
5429 206f      jr      nz,549ah
542b 6e        ld      l,(hl)
542c 2069      jr      nz,5497h
542e 74        ld      (hl),h
542f 73        ld      (hl),e
5430 206f      jr      nz,54a1h
5432 77        ld      (hl),a
5433 6e        ld      l,(hl)
5434 2028      jr      nz,545eh
5436 6f        ld      l,a
5437 6e        ld      l,(hl)
5438 65        ld      h,l
5439 206e      jr      nz,54a9h
543b 75        ld      (hl),l
543c 6d        ld      l,l
543d 62        ld      h,d
543e 65        ld      h,l
543f 72        ld      (hl),d
5440 29        add     hl,hl
5441 2079      jr      nz,54bch
5443 6f        ld      l,a
5444 75        ld      (hl),l
5445 0d        dec     c
5446 0a        ld      a,(bc)
5447 24        inc     h
5448 77        ld      (hl),a
5449 69        ld      l,c
544a 6e        ld      l,(hl)
544b 206f      jr      nz,54bch
544d 6e        ld      l,(hl)
544e 65        ld      h,l
544f 2070      jr      nz,54c1h
5451 6f        ld      l,a
5452 75        ld      (hl),l
5453 6e        ld      l,(hl)
5454 64        ld      h,h
5455 0d        dec     c
5456 0a        ld      a,(bc)
5457 24        inc     h
5458 53        ld      d,e
5459 61        ld      h,c
545a 74        ld      (hl),h
545b 2057      jr      nz,54b4h
545d 65        ld      h,l
545e 64        ld      h,h
545f 2056      jr      nz,54b7h
5461 6f        ld      l,a
5462 69        ld      l,c
5463 64        ld      h,h
5464 2044      jr      nz,54aah
5466 72        ld      (hl),d
5467 61        ld      h,c
5468 77        ld      (hl),a
5469 2030      jr      nz,549bh
546b 310d0a    ld      sp,0a0dh
546e 24        inc     h
546f 2020      jr      nz,5491h
5471 2020      jr      nz,5493h
5473 2020      jr      nz,5495h
5475 2020      jr      nz,5497h
5477 2020      jr      nz,5499h
5479 2020      jr      nz,549bh
547b 56        ld      d,(hl)
547c 61        ld      h,c
547d 6c        ld      l,h
547e 69        ld      l,c
547f 64        ld      h,h
5480 61        ld      h,c
5481 74        ld      (hl),h
5482 69        ld      l,c
5483 6f        ld      l,a
5484 6e        ld      l,(hl)
5485 204e      jr      nz,54d5h
5487 75        ld      (hl),l
5488 6d        ld      l,l
5489 62        ld      h,d
548a 65        ld      h,l
548b 72        ld      (hl),d
548c 204c      jr      nz,54dah
548e 42        ld      b,d
548f 35        dec     (hl)
5490 2d        dec     l
5491 3039      jr      nc,54cch
5493 39        add     hl,sp
5494 2d        dec     l
5495 313839    ld      sp,3938h
5498 37        scf     
5499 0d        dec     c
549a 0a        ld      a,(bc)
549b 24        inc     h
549c 50        ld      d,b
549d 72        ld      (hl),d
549e 69        ld      l,c
549f 7a        ld      a,d
54a0 65        ld      h,l
54a1 2043      jr      nz,54e6h
54a3 6c        ld      l,h
54a4 61        ld      h,c
54a5 69        ld      l,c
54a6 6d        ld      l,l
54a7 73        ld      (hl),e
54a8 0d        dec     c
54a9 0a        ld      a,(bc)
54aa 24        inc     h
54ab 00        nop     
54ac 00        nop     
54ad 3038      jr      nc,54e7h
54af 3030      jr      nc,54e1h
54b1 2033      jr      nz,54e6h
54b3 3839      jr      c,54eeh
54b5 2034      jr      nz,54ebh
54b7 323537    ld      (3735h),a
54ba 2020      jr      nz,54dch
54bc 0d        dec     c
54bd 0a        ld      a,(bc)
54be 24        inc     h
54bf 00        nop     
54c0 00        nop     
54c1 24        inc     h
54c2 00        nop     
54c3 00        nop     
54c4 24        inc     h
54c5 00        nop     
54c6 00        nop     
54c7 54        ld      d,h
54c8 65        ld      h,l
54c9 6c        ld      l,h
54ca 65        ld      h,l
54cb 70        ld      (hl),b
54cc 68        ld      l,b
54cd 6f        ld      l,a
54ce 6e        ld      l,(hl)
54cf 65        ld      h,l
54d0 2063      jr      nz,5535h
54d2 6c        ld      l,h
54d3 61        ld      h,c
54d4 69        ld      l,c
54d5 6d        ld      l,l
54d6 73        ld      (hl),e
54d7 209c      jr      nz,5475h
54d9 313530    ld      sp,3035h
54dc 206f      jr      nz,554dh
54de 72        ld      (hl),d
54df 206f      jr      nz,5550h
54e1 76        halt    
54e2 65        ld      h,l
54e3 72        ld      (hl),d
54e4 0d        dec     c
54e5 0a        ld      a,(bc)
54e6 24        inc     h
54e7 00        nop     
54e8 00        nop     
54e9 24        inc     h
54ea 00        nop     
54eb 00        nop     
54ec 24        inc     h
54ed 00        nop     
54ee 00        nop     
54ef 24        inc     h
54f0 00        nop     
54f1 00        nop     
54f2 0d        dec     c
54f3 0a        ld      a,(bc)
54f4 24        inc     h
54f5 00        nop     
54f6 54        ld      d,h
54f7 69        ld      l,c
54f8 63        ld      h,e
54f9 6b        ld      l,e
54fa 65        ld      h,l
54fb 74        ld      (hl),h
54fc 73        ld      (hl),e
54fd 2069      jr      nz,5568h
54ff 73        ld      (hl),e
5500 73        ld      (hl),e
5501 75        ld      (hl),l
5502 65        ld      h,l
5503 64        ld      h,h
5504 2073      jr      nz,5579h
5506 75        ld      (hl),l
5507 62        ld      h,d
5508 6a        ld      l,d
5509 65        ld      h,l
550a 63        ld      h,e
550b 74        ld      (hl),h
550c 2074      jr      nz,5582h
550e 6f        ld      l,a
550f 2072      jr      nz,5583h
5511 75        ld      (hl),l
5512 6c        ld      l,h
5513 65        ld      h,l
5514 73        ld      (hl),e
5515 206f      jr      nz,5586h
5517 66        ld      h,(hl)
5518 2064      jr      nz,557eh
551a 72        ld      (hl),d
551b 61        ld      h,c
551c 77        ld      (hl),a
551d 2e20      ld      l,20h
551f 2020      jr      nz,5541h
5521 0d        dec     c
5522 0a        ld      a,(bc)
5523 24        inc     h
5524 00        nop     
5525 52        ld      d,d
5526 65        ld      h,l
5527 67        ld      h,a
5528 69        ld      l,c
5529 73        ld      (hl),e
552a 74        ld      (hl),h
552b 65        ld      h,l
552c 72        ld      (hl),d
552d 65        ld      h,l
552e 64        ld      h,h
552f 2077      jr      nz,55a8h
5531 69        ld      l,c
5532 74        ld      (hl),h
5533 68        ld      l,b
5534 2074      jr      nz,55aah
5536 68        ld      l,b
5537 65        ld      h,l
5538 2053      jr      nz,558dh
553a 75        ld      (hl),l
553b 6e        ld      l,(hl)
553c 64        ld      h,h
553d 65        ld      h,l
553e 72        ld      (hl),d
553f 6c        ld      l,h
5540 61        ld      h,c
5541 6e        ld      l,(hl)
5542 64        ld      h,h
5543 2043      jr      nz,5588h
5545 69        ld      l,c
5546 74        ld      (hl),h
5547 79        ld      a,c
5548 2020      jr      nz,556ah
554a 2020      jr      nz,556ch
554c 2020      jr      nz,556eh
554e 2020      jr      nz,5570h
5550 0d        dec     c
5551 0a        ld      a,(bc)
5552 24        inc     h
5553 00        nop     
5554 43        ld      b,e
5555 6f        ld      l,a
5556 75        ld      (hl),l
5557 6e        ld      l,(hl)
5558 63        ld      h,e
5559 69        ld      l,c
555a 6c        ld      l,h
555b 2c        inc     l
555c 2053      jr      nz,55b1h
555e 52        ld      d,d
555f 322037    ld      (3720h),a
5562 44        ld      b,h
5563 4e        ld      c,(hl)
5564 2e20      ld      l,20h
5566 52        ld      d,d
5567 65        ld      h,l
5568 67        ld      h,a
5569 69        ld      l,c
556a 73        ld      (hl),e
556b 74        ld      (hl),h
556c 72        ld      (hl),d
556d 61        ld      h,c
556e 74        ld      (hl),h
556f 69        ld      l,c
5570 6f        ld      l,a
5571 6e        ld      l,(hl)
5572 206e      jr      nz,55e2h
5574 75        ld      (hl),l
5575 6d        ld      l,l
5576 62        ld      h,d
5577 65        ld      h,l
5578 72        ld      (hl),d
5579 2020      jr      nz,559bh
557b 2020      jr      nz,559dh
557d 2020      jr      nz,559fh
557f 0d        dec     c
5580 0a        ld      a,(bc)
5581 24        inc     h
5582 00        nop     
5583 3033      jr      nc,55b8h
5585 3637      ld      (hl),37h
5587 2e20      ld      l,20h
5589 50        ld      d,b
558a 72        ld      (hl),d
558b 6f        ld      l,a
558c 6d        ld      l,l
558d 6f        ld      l,a
558e 74        ld      (hl),h
558f 65        ld      h,l
5590 72        ld      (hl),d
5591 204d      jr      nz,55e0h
5593 72        ld      (hl),d
5594 2053      jr      nz,55e9h
5596 2053      jr      nz,55ebh
5598 79        ld      a,c
5599 6b        ld      l,e
559a 65        ld      h,l
559b 73        ld      (hl),e
559c 2c        inc     l
559d 204c      jr      nz,55ebh
559f 53        ld      d,e
55a0 4e        ld      c,(hl)
55a1 43        ld      b,e
55a2 2c        inc     l
55a3 2020      jr      nz,55c5h
55a5 2020      jr      nz,55c7h
55a7 2020      jr      nz,55c9h
55a9 2020      jr      nz,55cbh
55ab 2020      jr      nz,55cdh
55ad 200d      jr      nz,55bch
55af 0a        ld      a,(bc)
55b0 24        inc     h
55b1 00        nop     
55b2 4f        ld      c,a
55b3 6c        ld      l,h
55b4 64        ld      h,h
55b5 204d      jr      nz,5604h
55b7 69        ld      l,c
55b8 6c        ld      l,h
55b9 6c        ld      l,h
55ba 2052      jr      nz,560eh
55bc 6f        ld      l,a
55bd 61        ld      h,c
55be 64        ld      h,h
55bf 2c        inc     l
55c0 2053      jr      nz,5615h
55c2 52        ld      d,d
55c3 35        dec     (hl)
55c4 2035      jr      nz,55fbh
55c6 54        ld      d,h
55c7 50        ld      d,b
55c8 2e20      ld      l,20h
55ca 2020      jr      nz,55ech
55cc 2020      jr      nz,55eeh
55ce 2020      jr      nz,55f0h
55d0 2020      jr      nz,55f2h
55d2 2020      jr      nz,55f4h
55d4 2020      jr      nz,55f6h
55d6 2020      jr      nz,55f8h
55d8 2020      jr      nz,55fah
55da 2020      jr      nz,55fch
55dc 200d      jr      nz,55ebh
55de 0a        ld      a,(bc)
55df 24        inc     h
55e0 00        nop     
55e1 53        ld      d,e
55e2 70        ld      (hl),b
55e3 6f        ld      l,a
55e4 6e        ld      l,(hl)
55e5 73        ld      (hl),e
55e6 6f        ld      l,a
55e7 72        ld      (hl),d
55e8 65        ld      h,l
55e9 64        ld      h,h
55ea 2066      jr      nz,5652h
55ec 6f        ld      l,a
55ed 72        ld      (hl),d
55ee 2067      jr      nz,5657h
55f0 6f        ld      l,a
55f1 6f        ld      l,a
55f2 64        ld      h,h
55f3 2063      jr      nz,5658h
55f5 61        ld      h,c
55f6 75        ld      (hl),l
55f7 73        ld      (hl),e
55f8 65        ld      h,l
55f9 73        ld      (hl),e
55fa 2062      jr      nz,565eh
55fc 79        ld      a,c
55fd 204c      jr      nz,564bh
55ff 65        ld      h,l
5600 65        ld      h,l
5601 2053      jr      nz,5656h
5603 79        ld      a,c
5604 6b        ld      l,e
5605 65        ld      h,l
5606 73        ld      (hl),e
5607 2020      jr      nz,5629h
5609 2020      jr      nz,562bh
560b 200d      jr      nz,561ah
560d 0a        ld      a,(bc)
560e 24        inc     h
560f 00        nop     
5610 4e        ld      c,(hl)
5611 61        ld      h,c
5612 74        ld      (hl),h
5613 69        ld      l,c
5614 6f        ld      l,a
5615 6e        ld      l,(hl)
5616 61        ld      h,c
5617 6c        ld      l,h
5618 2043      jr      nz,565dh
561a 65        ld      h,l
561b 6e        ld      l,(hl)
561c 74        ld      (hl),h
561d 72        ld      (hl),d
561e 65        ld      h,l
561f 73        ld      (hl),e
5620 2e20      ld      l,20h
5622 2020      jr      nz,5644h
5624 2020      jr      nz,5646h
5626 2020      jr      nz,5648h
5628 2020      jr      nz,564ah
562a 2020      jr      nz,564ch
562c 2020      jr      nz,564eh
562e 2020      jr      nz,5650h
5630 2020      jr      nz,5652h
5632 2020      jr      nz,5654h
5634 2020      jr      nz,5656h
5636 2020      jr      nz,5658h
5638 2020      jr      nz,565ah
563a 200d      jr      nz,5649h
563c 0a        ld      a,(bc)
563d 24        inc     h
563e 00        nop     
563f 46        ld      b,(hl)
5640 69        ld      l,c
5641 6e        ld      l,(hl)
5642 61        ld      h,c
5643 6c        ld      l,h
5644 206c      jr      nz,56b2h
5646 6f        ld      l,a
5647 74        ld      (hl),h
5648 74        ld      (hl),h
5649 65        ld      h,l
564a 72        ld      (hl),d
564b 79        ld      a,c
564c 2064      jr      nz,56b2h
564e 61        ld      h,c
564f 74        ld      (hl),h
5650 65        ld      h,l
5651 2c        inc     l
5652 2062      jr      nz,56b6h
5654 65        ld      h,l
5655 66        ld      h,(hl)
5656 6f        ld      l,a
5657 72        ld      (hl),d
5658 65        ld      h,l
5659 2065      jr      nz,56c0h
565b 78        ld      a,b
565c 70        ld      (hl),b
565d 69        ld      l,c
565e 72        ld      (hl),d
565f 79        ld      a,c
5660 206f      jr      nz,56d1h
5662 66        ld      h,(hl)
5663 2039      jr      nz,569eh
5665 3020      jr      nc,5687h
5667 2020      jr      nz,5689h
5669 200d      jr      nz,5678h
566b 0a        ld      a,(bc)
566c 24        inc     h
566d 00        nop     
566e 64        ld      h,h
566f 61        ld      h,c
5670 79        ld      a,c
5671 73        ld      (hl),e
5672 2066      jr      nz,56dah
5674 72        ld      (hl),d
5675 6f        ld      l,a
5676 6d        ld      l,l
5677 2070      jr      nz,56e9h
5679 75        ld      (hl),l
567a 72        ld      (hl),d
567b 63        ld      h,e
567c 68        ld      l,b
567d 61        ld      h,c
567e 73        ld      (hl),e
567f 65        ld      h,l
5680 2e0d      ld      l,0dh
5682 0a        ld      a,(bc)
5683 24        inc     h
5684 00        nop     
5685 0d        dec     c
5686 0a        ld      a,(bc)
5687 24        inc     h
5688 00        nop     
5689 2863      jr      z,56eeh
568b 29        add     hl,hl
568c 204c      jr      nz,56dah
568e 6f        ld      l,a
568f 74        ld      (hl),h
5690 74        ld      (hl),h
5691 6f        ld      l,a
5692 204c      jr      nz,56e0h
5694 69        ld      l,c
5695 6e        ld      l,(hl)
5696 6b        ld      l,e
5697 204c      jr      nz,56e5h
5699 74        ld      (hl),h
569a 64        ld      h,h
569b 2032      jr      nz,56cfh
569d 3030      jr      nc,56cfh
569f 312e20    ld      sp,202eh
56a2 50        ld      d,b
56a3 61        ld      h,c
56a4 74        ld      (hl),h
56a5 65        ld      h,l
56a6 6e        ld      l,(hl)
56a7 74        ld      (hl),h
56a8 2053      jr      nz,56fdh
56aa 3831      jr      c,56ddh
56ac 35        dec     (hl)
56ad 39        add     hl,sp
56ae 33        inc     sp
56af 2e20      ld      l,20h
56b1 2020      jr      nz,56d3h
56b3 200d      jr      nz,56c2h
56b5 0a        ld      a,(bc)
56b6 24        inc     h
56b7 00        nop     
56b8 0d        dec     c
56b9 0a        ld      a,(bc)
56ba 24        inc     h
56bb 00        nop     
56bc 54        ld      d,h
56bd 69        ld      l,c
56be 63        ld      h,e
56bf 6b        ld      l,e
56c0 65        ld      h,l
56c1 74        ld      (hl),h
56c2 73        ld      (hl),e
56c3 2069      jr      nz,572eh
56c5 73        ld      (hl),e
56c6 73        ld      (hl),e
56c7 75        ld      (hl),l
56c8 65        ld      h,l
56c9 64        ld      h,h
56ca 2073      jr      nz,573fh
56cc 75        ld      (hl),l
56cd 62        ld      h,d
56ce 6a        ld      l,d
56cf 65        ld      h,l
56d0 63        ld      h,e
56d1 74        ld      (hl),h
56d2 2074      jr      nz,5748h
56d4 6f        ld      l,a
56d5 2072      jr      nz,5749h
56d7 75        ld      (hl),l
56d8 6c        ld      l,h
56d9 65        ld      h,l
56da 73        ld      (hl),e
56db 206f      jr      nz,574ch
56dd 66        ld      h,(hl)
56de 2064      jr      nz,5744h
56e0 72        ld      (hl),d
56e1 61        ld      h,c
56e2 77        ld      (hl),a
56e3 2e20      ld      l,20h
56e5 2020      jr      nz,5707h
56e7 0d        dec     c
56e8 0a        ld      a,(bc)
56e9 24        inc     h
56ea 00        nop     
56eb 52        ld      d,d
56ec 65        ld      h,l
56ed 67        ld      h,a
56ee 69        ld      l,c
56ef 73        ld      (hl),e
56f0 74        ld      (hl),h
56f1 65        ld      h,l
56f2 72        ld      (hl),d
56f3 65        ld      h,l
56f4 64        ld      h,h
56f5 2077      jr      nz,576eh
56f7 69        ld      l,c
56f8 74        ld      (hl),h
56f9 68        ld      l,b
56fa 2074      jr      nz,5770h
56fc 68        ld      l,b
56fd 65        ld      h,l
56fe 2042      jr      nz,5742h
5700 72        ld      (hl),d
5701 69        ld      l,c
5702 73        ld      (hl),e
5703 74        ld      (hl),h
5704 6f        ld      l,a
5705 6c        ld      l,h
5706 2043      jr      nz,574bh
5708 69        ld      l,c
5709 74        ld      (hl),h
570a 79        ld      a,c
570b 2020      jr      nz,572dh
570d 2020      jr      nz,572fh
570f 2020      jr      nz,5731h
5711 2020      jr      nz,5733h
5713 2020      jr      nz,5735h
5715 200d      jr      nz,5724h
5717 0a        ld      a,(bc)
5718 24        inc     h
5719 00        nop     
571a 43        ld      b,e
571b 6f        ld      l,a
571c 75        ld      (hl),l
571d 6e        ld      l,(hl)
571e 63        ld      h,e
571f 69        ld      l,c
5720 6c        ld      l,h
5721 2c        inc     l
5722 2042      jr      nz,5766h
5724 53        ld      d,e
5725 312036    ld      sp,3620h
5728 51        ld      d,c
5729 57        ld      d,a
572a 2e20      ld      l,20h
572c 52        ld      d,d
572d 65        ld      h,l
572e 67        ld      h,a
572f 69        ld      l,c
5730 73        ld      (hl),e
5731 74        ld      (hl),h
5732 72        ld      (hl),d
5733 61        ld      h,c
5734 74        ld      (hl),h
5735 69        ld      l,c
5736 6f        ld      l,a
5737 6e        ld      l,(hl)
5738 206e      jr      nz,57a8h
573a 75        ld      (hl),l
573b 6d        ld      l,l
573c 62        ld      h,d
573d 65        ld      h,l
573e 72        ld      (hl),d
573f 2020      jr      nz,5761h
5741 2020      jr      nz,5763h
5743 2020      jr      nz,5765h
5745 0d        dec     c
5746 0a        ld      a,(bc)
5747 24        inc     h
5748 00        nop     
5749 323132    ld      (3231h),a
574c 2f        cpl     
574d 3031      jr      nc,5780h
574f 2e20      ld      l,20h
5751 50        ld      d,b
5752 72        ld      (hl),d
5753 6f        ld      l,a
5754 6d        ld      l,l
5755 6f        ld      l,a
5756 74        ld      (hl),h
5757 65        ld      h,l
5758 72        ld      (hl),d
5759 204d      jr      nz,57a8h
575b 73        ld      (hl),e
575c 204a      jr      nz,57a8h
575e 204d      jr      nz,57adh
5760 6f        ld      l,a
5761 6f        ld      l,a
5762 72        ld      (hl),d
5763 65        ld      h,l
5764 2c        inc     l
5765 2020      jr      nz,5787h
5767 2020      jr      nz,5789h
5769 2020      jr      nz,578bh
576b 2020      jr      nz,578dh
576d 2020      jr      nz,578fh
576f 2020      jr      nz,5791h
5771 2020      jr      nz,5793h
5773 200d      jr      nz,5782h
5775 0a        ld      a,(bc)
5776 24        inc     h
5777 00        nop     
5778 313262    ld      sp,6232h
577b 2044      jr      nz,57c1h
577d 75        ld      (hl),l
577e 74        ld      (hl),h
577f 63        ld      h,e
5780 68        ld      l,b
5781 65        ld      h,l
5782 73        ld      (hl),e
5783 73        ld      (hl),e
5784 2052      jr      nz,57d8h
5786 6f        ld      l,a
5787 61        ld      h,c
5788 64        ld      h,h
5789 2c        inc     l
578a 2042      jr      nz,57ceh
578c 53        ld      d,e
578d 3820      jr      c,57afh
578f 324c41    ld      (414ch),a
5792 2020      jr      nz,57b4h
5794 2020      jr      nz,57b6h
5796 2020      jr      nz,57b8h
5798 2020      jr      nz,57bah
579a 2020      jr      nz,57bch
579c 2020      jr      nz,57beh
579e 2020      jr      nz,57c0h
57a0 2020      jr      nz,57c2h
57a2 200d      jr      nz,57b1h
57a4 0a        ld      a,(bc)
57a5 24        inc     h
57a6 00        nop     
57a7 53        ld      d,e
57a8 70        ld      (hl),b
57a9 6f        ld      l,a
57aa 6e        ld      l,(hl)
57ab 73        ld      (hl),e
57ac 6f        ld      l,a
57ad 72        ld      (hl),d
57ae 65        ld      h,l
57af 64        ld      h,h
57b0 2066      jr      nz,5818h
57b2 6f        ld      l,a
57b3 72        ld      (hl),d
57b4 2067      jr      nz,581dh
57b6 6f        ld      l,a
57b7 6f        ld      l,a
57b8 64        ld      h,h
57b9 2063      jr      nz,581eh
57bb 61        ld      h,c
57bc 75        ld      (hl),l
57bd 73        ld      (hl),e
57be 65        ld      h,l
57bf 73        ld      (hl),e
57c0 2062      jr      nz,5824h
57c2 79        ld      a,c
57c3 204c      jr      nz,5811h
57c5 65        ld      h,l
57c6 65        ld      h,l
57c7 2053      jr      nz,581ch
57c9 79        ld      a,c
57ca 6b        ld      l,e
57cb 65        ld      h,l
57cc 73        ld      (hl),e
57cd 2020      jr      nz,57efh
57cf 2020      jr      nz,57f1h
57d1 200d      jr      nz,57e0h
57d3 0a        ld      a,(bc)
57d4 24        inc     h
57d5 00        nop     
57d6 4e        ld      c,(hl)
57d7 61        ld      h,c
57d8 74        ld      (hl),h
57d9 69        ld      l,c
57da 6f        ld      l,a
57db 6e        ld      l,(hl)
57dc 61        ld      h,c
57dd 6c        ld      l,h
57de 2043      jr      nz,5823h
57e0 65        ld      h,l
57e1 6e        ld      l,(hl)
57e2 74        ld      (hl),h
57e3 72        ld      (hl),d
57e4 65        ld      h,l
57e5 73        ld      (hl),e
57e6 2e20      ld      l,20h
57e8 2020      jr      nz,580ah
57ea 2020      jr      nz,580ch
57ec 2020      jr      nz,580eh
57ee 2020      jr      nz,5810h
57f0 2020      jr      nz,5812h
57f2 2020      jr      nz,5814h
57f4 2020      jr      nz,5816h
57f6 2020      jr      nz,5818h
57f8 2020      jr      nz,581ah
57fa 2020      jr      nz,581ch
57fc 2020      jr      nz,581eh
57fe 2020      jr      nz,5820h
5800 200d      jr      nz,580fh
5802 0a        ld      a,(bc)
5803 24        inc     h
5804 00        nop     
5805 46        ld      b,(hl)
5806 69        ld      l,c
5807 6e        ld      l,(hl)
5808 61        ld      h,c
5809 6c        ld      l,h
580a 206c      jr      nz,5878h
580c 6f        ld      l,a
580d 74        ld      (hl),h
580e 74        ld      (hl),h
580f 65        ld      h,l
5810 72        ld      (hl),d
5811 79        ld      a,c
5812 2064      jr      nz,5878h
5814 61        ld      h,c
5815 74        ld      (hl),h
5816 65        ld      h,l
5817 2c        inc     l
5818 2062      jr      nz,587ch
581a 65        ld      h,l
581b 66        ld      h,(hl)
581c 6f        ld      l,a
581d 72        ld      (hl),d
581e 65        ld      h,l
581f 2065      jr      nz,5886h
5821 78        ld      a,b
5822 70        ld      (hl),b
5823 69        ld      l,c
5824 72        ld      (hl),d
5825 79        ld      a,c
5826 206f      jr      nz,5897h
5828 66        ld      h,(hl)
5829 2039      jr      nz,5864h
582b 3020      jr      nc,584dh
582d 2020      jr      nz,584fh
582f 200d      jr      nz,583eh
5831 0a        ld      a,(bc)
5832 24        inc     h
5833 00        nop     
5834 64        ld      h,h
5835 61        ld      h,c
5836 79        ld      a,c
5837 73        ld      (hl),e
5838 2066      jr      nz,58a0h
583a 72        ld      (hl),d
583b 6f        ld      l,a
583c 6d        ld      l,l
583d 2070      jr      nz,58afh
583f 75        ld      (hl),l
5840 72        ld      (hl),d
5841 63        ld      h,e
5842 68        ld      l,b
5843 61        ld      h,c
5844 73        ld      (hl),e
5845 65        ld      h,l
5846 2e0d      ld      l,0dh
5848 0a        ld      a,(bc)
5849 24        inc     h
584a 00        nop     
584b 0d        dec     c
584c 0a        ld      a,(bc)
584d 24        inc     h
584e 00        nop     
584f 2863      jr      z,58b4h
5851 29        add     hl,hl
5852 204c      jr      nz,58a0h
5854 6f        ld      l,a
5855 74        ld      (hl),h
5856 74        ld      (hl),h
5857 6f        ld      l,a
5858 204c      jr      nz,58a6h
585a 69        ld      l,c
585b 6e        ld      l,(hl)
585c 6b        ld      l,e
585d 204c      jr      nz,58abh
585f 74        ld      (hl),h
5860 64        ld      h,h
5861 2032      jr      nz,5895h
5863 3030      jr      nc,5895h
5865 312e20    ld      sp,202eh
5868 50        ld      d,b
5869 61        ld      h,c
586a 74        ld      (hl),h
586b 65        ld      h,l
586c 6e        ld      l,(hl)
586d 74        ld      (hl),h
586e 2053      jr      nz,58c3h
5870 3831      jr      c,58a3h
5872 35        dec     (hl)
5873 39        add     hl,sp
5874 33        inc     sp
5875 2e20      ld      l,20h
5877 2020      jr      nz,5899h
5879 200d      jr      nz,5888h
587b 0a        ld      a,(bc)
587c 24        inc     h
587d 00        nop     
587e 0d        dec     c
587f 0a        ld      a,(bc)
5880 24        inc     h
5881 00        nop     
5882 54        ld      d,h
5883 69        ld      l,c
5884 63        ld      h,e
5885 6b        ld      l,e
5886 65        ld      h,l
5887 74        ld      (hl),h
5888 73        ld      (hl),e
5889 2069      jr      nz,58f4h
588b 73        ld      (hl),e
588c 73        ld      (hl),e
588d 75        ld      (hl),l
588e 65        ld      h,l
588f 64        ld      h,h
5890 2073      jr      nz,5905h
5892 75        ld      (hl),l
5893 62        ld      h,d
5894 6a        ld      l,d
5895 65        ld      h,l
5896 63        ld      h,e
5897 74        ld      (hl),h
5898 2074      jr      nz,590eh
589a 6f        ld      l,a
589b 2072      jr      nz,590fh
589d 75        ld      (hl),l
589e 6c        ld      l,h
589f 65        ld      h,l
58a0 73        ld      (hl),e
58a1 206f      jr      nz,5912h
58a3 66        ld      h,(hl)
58a4 2064      jr      nz,590ah
58a6 72        ld      (hl),d
58a7 61        ld      h,c
58a8 77        ld      (hl),a
58a9 2e20      ld      l,20h
58ab 2020      jr      nz,58cdh
58ad 0d        dec     c
58ae 0a        ld      a,(bc)
58af 24        inc     h
58b0 00        nop     
58b1 52        ld      d,d
58b2 65        ld      h,l
58b3 67        ld      h,a
58b4 69        ld      l,c
58b5 73        ld      (hl),e
58b6 74        ld      (hl),h
58b7 65        ld      h,l
58b8 72        ld      (hl),d
58b9 65        ld      h,l
58ba 64        ld      h,h
58bb 2077      jr      nz,5934h
58bd 69        ld      l,c
58be 74        ld      (hl),h
58bf 68        ld      l,b
58c0 2074      jr      nz,5936h
58c2 68        ld      l,b
58c3 65        ld      h,l
58c4 2057      jr      nz,591dh
58c6 61        ld      h,c
58c7 72        ld      (hl),d
58c8 77        ld      (hl),a
58c9 69        ld      l,c
58ca 63        ld      h,e
58cb 6b        ld      l,e
58cc 2044      jr      nz,5912h
58ce 69        ld      l,c
58cf 73        ld      (hl),e
58d0 74        ld      (hl),h
58d1 72        ld      (hl),d
58d2 69        ld      l,c
58d3 63        ld      h,e
58d4 74        ld      (hl),h
58d5 2020      jr      nz,58f7h
58d7 2020      jr      nz,58f9h
58d9 2020      jr      nz,58fbh
58db 200d      jr      nz,58eah
58dd 0a        ld      a,(bc)
58de 24        inc     h
58df 00        nop     
58e0 43        ld      b,e
58e1 6f        ld      l,a
58e2 75        ld      (hl),l
58e3 6e        ld      l,(hl)
58e4 63        ld      h,e
58e5 69        ld      l,c
58e6 6c        ld      l,h
58e7 2c        inc     l
58e8 2043      jr      nz,592dh
58ea 56        ld      d,(hl)
58eb 33        inc     sp
58ec 322034    ld      (3420h),a
58ef 41        ld      b,c
58f0 54        ld      d,h
58f1 2e20      ld      l,20h
58f3 52        ld      d,d
58f4 65        ld      h,l
58f5 67        ld      h,a
58f6 69        ld      l,c
58f7 73        ld      (hl),e
58f8 74        ld      (hl),h
58f9 72        ld      (hl),d
58fa 61        ld      h,c
58fb 74        ld      (hl),h
58fc 69        ld      l,c
58fd 6f        ld      l,a
58fe 6e        ld      l,(hl)
58ff 206e      jr      nz,596fh
5901 75        ld      (hl),l
5902 6d        ld      l,l
5903 62        ld      h,d
5904 65        ld      h,l
5905 72        ld      (hl),d
5906 2020      jr      nz,5928h
5908 2020      jr      nz,592ah
590a 200d      jr      nz,5919h
590c 0a        ld      a,(bc)
590d 24        inc     h
590e 00        nop     
590f 323334    ld      (3433h),a
5912 2e20      ld      l,20h
5914 50        ld      d,b
5915 72        ld      (hl),d
5916 6f        ld      l,a
5917 6d        ld      l,l
5918 6f        ld      l,a
5919 74        ld      (hl),h
591a 65        ld      h,l
591b 72        ld      (hl),d
591c 204d      jr      nz,596bh
591e 72        ld      (hl),d
591f 2052      jr      nz,5973h
5921 2047      jr      nz,596ah
5923 72        ld      (hl),d
5924 69        ld      l,c
5925 66        ld      h,(hl)
5926 66        ld      h,(hl)
5927 69        ld      l,c
5928 6e        ld      l,(hl)
5929 2c        inc     l
592a 2020      jr      nz,594ch
592c 2020      jr      nz,594eh
592e 2020      jr      nz,5950h
5930 2020      jr      nz,5952h
5932 2020      jr      nz,5954h
5934 2020      jr      nz,5956h
5936 2020      jr      nz,5958h
5938 2020      jr      nz,595ah
593a 0d        dec     c
593b 0a        ld      a,(bc)
593c 24        inc     h
593d 00        nop     
593e 35        dec     (hl)
593f 35        dec     (hl)
5940 2044      jr      nz,5986h
5942 65        ld      h,l
5943 72        ld      (hl),d
5944 62        ld      h,d
5945 79        ld      a,c
5946 2044      jr      nz,598ch
5948 72        ld      (hl),d
5949 69        ld      l,c
594a 76        halt    
594b 65        ld      h,l
594c 2c        inc     l
594d 2057      jr      nz,59a6h
594f 41        ld      b,c
5950 313120    ld      sp,2031h
5953 3845      jr      c,599ah
5955 57        ld      d,a
5956 2020      jr      nz,5978h
5958 2020      jr      nz,597ah
595a 2020      jr      nz,597ch
595c 2020      jr      nz,597eh
595e 2020      jr      nz,5980h
5960 2020      jr      nz,5982h
5962 2020      jr      nz,5984h
5964 2020      jr      nz,5986h
5966 2020      jr      nz,5988h
5968 200d      jr      nz,5977h
596a 0a        ld      a,(bc)
596b 24        inc     h
596c 00        nop     
596d 53        ld      d,e
596e 70        ld      (hl),b
596f 6f        ld      l,a
5970 6e        ld      l,(hl)
5971 73        ld      (hl),e
5972 6f        ld      l,a
5973 72        ld      (hl),d
5974 65        ld      h,l
5975 64        ld      h,h
5976 2066      jr      nz,59deh
5978 6f        ld      l,a
5979 72        ld      (hl),d
597a 2067      jr      nz,59e3h
597c 6f        ld      l,a
597d 6f        ld      l,a
597e 64        ld      h,h
597f 2063      jr      nz,59e4h
5981 61        ld      h,c
5982 75        ld      (hl),l
5983 73        ld      (hl),e
5984 65        ld      h,l
5985 73        ld      (hl),e
5986 2062      jr      nz,59eah
5988 79        ld      a,c
5989 204c      jr      nz,59d7h
598b 69        ld      l,c
598c 66        ld      h,(hl)
598d 65        ld      h,l
598e 2020      jr      nz,59b0h
5990 2020      jr      nz,59b2h
5992 2020      jr      nz,59b4h
5994 2020      jr      nz,59b6h
5996 2020      jr      nz,59b8h
5998 0d        dec     c
5999 0a        ld      a,(bc)
599a 24        inc     h
599b 00        nop     
599c 48        ld      c,b
599d 6f        ld      l,a
599e 73        ld      (hl),e
599f 70        ld      (hl),b
59a0 69        ld      l,c
59a1 74        ld      (hl),h
59a2 61        ld      h,c
59a3 6c        ld      l,h
59a4 2054      jr      nz,59fah
59a6 72        ld      (hl),d
59a7 75        ld      (hl),l
59a8 73        ld      (hl),e
59a9 74        ld      (hl),h
59aa 2c        inc     l
59ab 2052      jr      nz,59ffh
59ad 65        ld      h,l
59ae 67        ld      h,a
59af 2043      jr      nz,59f4h
59b1 68        ld      l,b
59b2 61        ld      h,c
59b3 72        ld      (hl),d
59b4 69        ld      l,c
59b5 74        ld      (hl),h
59b6 79        ld      a,c
59b7 204e      jr      nz,5a07h
59b9 6f        ld      l,a
59ba 2031      jr      nz,59edh
59bc 3033      jr      nc,59f1h
59be 313031    ld      sp,3130h
59c1 39        add     hl,sp
59c2 2e20      ld      l,20h
59c4 2020      jr      nz,59e6h
59c6 200d      jr      nz,59d5h
59c8 0a        ld      a,(bc)
59c9 24        inc     h
59ca 00        nop     
59cb 46        ld      b,(hl)
59cc 69        ld      l,c
59cd 6e        ld      l,(hl)
59ce 61        ld      h,c
59cf 6c        ld      l,h
59d0 206c      jr      nz,5a3eh
59d2 6f        ld      l,a
59d3 74        ld      (hl),h
59d4 74        ld      (hl),h
59d5 65        ld      h,l
59d6 72        ld      (hl),d
59d7 79        ld      a,c
59d8 2064      jr      nz,5a3eh
59da 61        ld      h,c
59db 74        ld      (hl),h
59dc 65        ld      h,l
59dd 2c        inc     l
59de 2062      jr      nz,5a42h
59e0 65        ld      h,l
59e1 66        ld      h,(hl)
59e2 6f        ld      l,a
59e3 72        ld      (hl),d
59e4 65        ld      h,l
59e5 2065      jr      nz,5a4ch
59e7 78        ld      a,b
59e8 70        ld      (hl),b
59e9 69        ld      l,c
59ea 72        ld      (hl),d
59eb 79        ld      a,c
59ec 206f      jr      nz,5a5dh
59ee 66        ld      h,(hl)
59ef 2039      jr      nz,5a2ah
59f1 3020      jr      nc,5a13h
59f3 2020      jr      nz,5a15h
59f5 200d      jr      nz,5a04h
59f7 0a        ld      a,(bc)
59f8 24        inc     h
59f9 00        nop     
59fa 64        ld      h,h
59fb 61        ld      h,c
59fc 79        ld      a,c
59fd 73        ld      (hl),e
59fe 2066      jr      nz,5a66h
5a00 72        ld      (hl),d
5a01 6f        ld      l,a
5a02 6d        ld      l,l
5a03 2070      jr      nz,5a75h
5a05 75        ld      (hl),l
5a06 72        ld      (hl),d
5a07 63        ld      h,e
5a08 68        ld      l,b
5a09 61        ld      h,c
5a0a 73        ld      (hl),e
5a0b 65        ld      h,l
5a0c 2e0d      ld      l,0dh
5a0e 0a        ld      a,(bc)
5a0f 24        inc     h
5a10 00        nop     
5a11 0d        dec     c
5a12 0a        ld      a,(bc)
5a13 24        inc     h
5a14 00        nop     
5a15 2863      jr      z,5a7ah
5a17 29        add     hl,hl
5a18 204c      jr      nz,5a66h
5a1a 6f        ld      l,a
5a1b 74        ld      (hl),h
5a1c 74        ld      (hl),h
5a1d 6f        ld      l,a
5a1e 204c      jr      nz,5a6ch
5a20 69        ld      l,c
5a21 6e        ld      l,(hl)
5a22 6b        ld      l,e
5a23 204c      jr      nz,5a71h
5a25 74        ld      (hl),h
5a26 64        ld      h,h
5a27 2032      jr      nz,5a5bh
5a29 3030      jr      nc,5a5bh
5a2b 312e20    ld      sp,202eh
5a2e 50        ld      d,b
5a2f 61        ld      h,c
5a30 74        ld      (hl),h
5a31 65        ld      h,l
5a32 6e        ld      l,(hl)
5a33 74        ld      (hl),h
5a34 2053      jr      nz,5a89h
5a36 3831      jr      c,5a69h
5a38 35        dec     (hl)
5a39 39        add     hl,sp
5a3a 33        inc     sp
5a3b 2e20      ld      l,20h
5a3d 2020      jr      nz,5a5fh
5a3f 200d      jr      nz,5a4eh
5a41 0a        ld      a,(bc)
5a42 24        inc     h
5a43 00        nop     
5a44 0d        dec     c
5a45 0a        ld      a,(bc)
5a46 24        inc     h
5a47 00        nop     
5a48 54        ld      d,h
5a49 69        ld      l,c
5a4a 63        ld      h,e
5a4b 6b        ld      l,e
5a4c 65        ld      h,l
5a4d 74        ld      (hl),h
5a4e 73        ld      (hl),e
5a4f 2069      jr      nz,5abah
5a51 73        ld      (hl),e
5a52 73        ld      (hl),e
5a53 75        ld      (hl),l
5a54 65        ld      h,l
5a55 64        ld      h,h
5a56 2073      jr      nz,5acbh
5a58 75        ld      (hl),l
5a59 62        ld      h,d
5a5a 6a        ld      l,d
5a5b 65        ld      h,l
5a5c 63        ld      h,e
5a5d 74        ld      (hl),h
5a5e 2074      jr      nz,5ad4h
5a60 6f        ld      l,a
5a61 2072      jr      nz,5ad5h
5a63 75        ld      (hl),l
5a64 6c        ld      l,h
5a65 65        ld      h,l
5a66 73        ld      (hl),e
5a67 206f      jr      nz,5ad8h
5a69 66        ld      h,(hl)
5a6a 2064      jr      nz,5ad0h
5a6c 72        ld      (hl),d
5a6d 61        ld      h,c
5a6e 77        ld      (hl),a
5a6f 2e20      ld      l,20h
5a71 2020      jr      nz,5a93h
5a73 0d        dec     c
5a74 0a        ld      a,(bc)
5a75 24        inc     h
5a76 00        nop     
5a77 52        ld      d,d
5a78 65        ld      h,l
5a79 67        ld      h,a
5a7a 69        ld      l,c
5a7b 73        ld      (hl),e
5a7c 74        ld      (hl),h
5a7d 65        ld      h,l
5a7e 72        ld      (hl),d
5a7f 65        ld      h,l
5a80 64        ld      h,h
5a81 2077      jr      nz,5afah
5a83 69        ld      l,c
5a84 74        ld      (hl),h
5a85 68        ld      l,b
5a86 2074      jr      nz,5afch
5a88 68        ld      l,b
5a89 65        ld      h,l
5a8a 2043      jr      nz,5acfh
5a8c 69        ld      l,c
5a8d 74        ld      (hl),h
5a8e 79        ld      a,c
5a8f 206f      jr      nz,5b00h
5a91 66        ld      h,(hl)
5a92 204c      jr      nz,5ae0h
5a94 69        ld      l,c
5a95 76        halt    
5a96 65        ld      h,l
5a97 72        ld      (hl),d
5a98 70        ld      (hl),b
5a99 6f        ld      l,a
5a9a 6f        ld      l,a
5a9b 6c        ld      l,h
5a9c 2c        inc     l
5a9d 2020      jr      nz,5abfh
5a9f 2020      jr      nz,5ac1h
5aa1 200d      jr      nz,5ab0h
5aa3 0a        ld      a,(bc)
5aa4 24        inc     h
5aa5 00        nop     
5aa6 4c        ld      c,h
5aa7 312036    ld      sp,3620h
5aaa 4a        ld      c,d
5aab 47        ld      b,a
5aac 2e20      ld      l,20h
5aae 52        ld      d,d
5aaf 65        ld      h,l
5ab0 67        ld      h,a
5ab1 69        ld      l,c
5ab2 73        ld      (hl),e
5ab3 74        ld      (hl),h
5ab4 72        ld      (hl),d
5ab5 61        ld      h,c
5ab6 74        ld      (hl),h
5ab7 69        ld      l,c
5ab8 6f        ld      l,a
5ab9 6e        ld      l,(hl)
5aba 204e      jr      nz,5b0ah
5abc 75        ld      (hl),l
5abd 6d        ld      l,l
5abe 62        ld      h,d
5abf 65        ld      h,l
5ac0 72        ld      (hl),d
5ac1 2034      jr      nz,5af7h
5ac3 313236    ld      sp,3632h
5ac6 2e20      ld      l,20h
5ac8 2020      jr      nz,5aeah
5aca 2020      jr      nz,5aech
5acc 2020      jr      nz,5aeeh
5ace 2020      jr      nz,5af0h
5ad0 200d      jr      nz,5adfh
5ad2 0a        ld      a,(bc)
5ad3 24        inc     h
5ad4 00        nop     
5ad5 50        ld      d,b
5ad6 72        ld      (hl),d
5ad7 6f        ld      l,a
5ad8 6d        ld      l,l
5ad9 6f        ld      l,a
5ada 74        ld      (hl),h
5adb 65        ld      h,l
5adc 72        ld      (hl),d
5add 2053      jr      nz,5b32h
5adf 2059      jr      nz,5b3ah
5ae1 69        ld      l,c
5ae2 70        ld      (hl),b
5ae3 2c        inc     l
5ae4 2031      jr      nz,5b17h
5ae6 39        add     hl,sp
5ae7 2042      jr      nz,5b2bh
5ae9 61        ld      h,c
5aea 63        ld      h,e
5aeb 6b        ld      l,e
5aec 2043      jr      nz,5b31h
5aee 61        ld      h,c
5aef 6e        ld      l,(hl)
5af0 6e        ld      l,(hl)
5af1 69        ld      l,c
5af2 6e        ld      l,(hl)
5af3 67        ld      h,a
5af4 2053      jr      nz,5b49h
5af6 74        ld      (hl),h
5af7 72        ld      (hl),d
5af8 65        ld      h,l
5af9 65        ld      h,l
5afa 74        ld      (hl),h
5afb 2c        inc     l
5afc 2020      jr      nz,5b1eh
5afe 2020      jr      nz,5b20h
5b00 0d        dec     c
5b01 0a        ld      a,(bc)
5b02 24        inc     h
5b03 00        nop     
5b04 4c        ld      c,h
5b05 3820      jr      c,5b27h
5b07 37        scf     
5b08 50        ld      d,b
5b09 42        ld      b,d
5b0a 2e20      ld      l,20h
5b0c 53        ld      d,e
5b0d 70        ld      (hl),b
5b0e 6f        ld      l,a
5b0f 6e        ld      l,(hl)
5b10 73        ld      (hl),e
5b11 6f        ld      l,a
5b12 72        ld      (hl),d
5b13 65        ld      h,l
5b14 64        ld      h,h
5b15 2066      jr      nz,5b7dh
5b17 6f        ld      l,a
5b18 72        ld      (hl),d
5b19 2067      jr      nz,5b82h
5b1b 6f        ld      l,a
5b1c 6f        ld      l,a
5b1d 64        ld      h,h
5b1e 2063      jr      nz,5b83h
5b20 61        ld      h,c
5b21 75        ld      (hl),l
5b22 73        ld      (hl),e
5b23 65        ld      h,l
5b24 73        ld      (hl),e
5b25 2062      jr      nz,5b89h
5b27 79        ld      a,c
5b28 2020      jr      nz,5b4ah
5b2a 2020      jr      nz,5b4ch
5b2c 2020      jr      nz,5b4eh
5b2e 200d      jr      nz,5b3dh
5b30 0a        ld      a,(bc)
5b31 24        inc     h
5b32 00        nop     
5b33 74        ld      (hl),h
5b34 68        ld      l,b
5b35 65        ld      h,l
5b36 204c      jr      nz,5b84h
5b38 69        ld      l,c
5b39 76        halt    
5b3a 65        ld      h,l
5b3b 72        ld      (hl),d
5b3c 70        ld      (hl),b
5b3d 6f        ld      l,a
5b3e 6f        ld      l,a
5b3f 6c        ld      l,h
5b40 2043      jr      nz,5b85h
5b42 69        ld      l,c
5b43 74        ld      (hl),h
5b44 79        ld      a,c
5b45 2045      jr      nz,5b8ch
5b47 6e        ld      l,(hl)
5b48 76        halt    
5b49 69        ld      l,c
5b4a 72        ld      (hl),d
5b4b 6f        ld      l,a
5b4c 6e        ld      l,(hl)
5b4d 6d        ld      l,l
5b4e 65        ld      h,l
5b4f 6e        ld      l,(hl)
5b50 74        ld      (hl),h
5b51 2043      jr      nz,5b96h
5b53 65        ld      h,l
5b54 6e        ld      l,(hl)
5b55 74        ld      (hl),h
5b56 72        ld      (hl),d
5b57 65        ld      h,l
5b58 2c        inc     l
5b59 2020      jr      nz,5b7bh
5b5b 2020      jr      nz,5b7dh
5b5d 200d      jr      nz,5b6ch
5b5f 0a        ld      a,(bc)
5b60 24        inc     h
5b61 00        nop     
5b62 52        ld      d,d
5b63 65        ld      h,l
5b64 67        ld      h,a
5b65 2043      jr      nz,5baah
5b67 68        ld      l,b
5b68 61        ld      h,c
5b69 72        ld      (hl),d
5b6a 69        ld      l,c
5b6b 74        ld      (hl),h
5b6c 79        ld      a,c
5b6d 204e      jr      nz,5bbdh
5b6f 6f        ld      l,a
5b70 2031      jr      nz,5ba3h
5b72 3037      jr      nc,5babh
5b74 39        add     hl,sp
5b75 34        inc     (hl)
5b76 32372e    ld      (2e37h),a
5b79 2020      jr      nz,5b9bh
5b7b 2020      jr      nz,5b9dh
5b7d 2020      jr      nz,5b9fh
5b7f 2020      jr      nz,5ba1h
5b81 2020      jr      nz,5ba3h
5b83 2020      jr      nz,5ba5h
5b85 2020      jr      nz,5ba7h
5b87 2020      jr      nz,5ba9h
5b89 2020      jr      nz,5babh
5b8b 2020      jr      nz,5badh
5b8d 0d        dec     c
5b8e 0a        ld      a,(bc)
5b8f 24        inc     h
5b90 00        nop     
5b91 46        ld      b,(hl)
5b92 69        ld      l,c
5b93 6e        ld      l,(hl)
5b94 61        ld      h,c
5b95 6c        ld      l,h
5b96 206c      jr      nz,5c04h
5b98 6f        ld      l,a
5b99 74        ld      (hl),h
5b9a 74        ld      (hl),h
5b9b 65        ld      h,l
5b9c 72        ld      (hl),d
5b9d 79        ld      a,c
5b9e 2064      jr      nz,5c04h
5ba0 61        ld      h,c
5ba1 74        ld      (hl),h
5ba2 65        ld      h,l
5ba3 2c        inc     l
5ba4 2062      jr      nz,5c08h
5ba6 65        ld      h,l
5ba7 66        ld      h,(hl)
5ba8 6f        ld      l,a
5ba9 72        ld      (hl),d
5baa 65        ld      h,l
5bab 2065      jr      nz,5c12h
5bad 78        ld      a,b
5bae 70        ld      (hl),b
5baf 69        ld      l,c
5bb0 72        ld      (hl),d
5bb1 79        ld      a,c
5bb2 206f      jr      nz,5c23h
5bb4 66        ld      h,(hl)
5bb5 2039      jr      nz,5bf0h
5bb7 3020      jr      nc,5bd9h
5bb9 2020      jr      nz,5bdbh
5bbb 200d      jr      nz,5bcah
5bbd 0a        ld      a,(bc)
5bbe 24        inc     h
5bbf 00        nop     
5bc0 64        ld      h,h
5bc1 61        ld      h,c
5bc2 79        ld      a,c
5bc3 73        ld      (hl),e
5bc4 2066      jr      nz,5c2ch
5bc6 72        ld      (hl),d
5bc7 6f        ld      l,a
5bc8 6d        ld      l,l
5bc9 2070      jr      nz,5c3bh
5bcb 75        ld      (hl),l
5bcc 72        ld      (hl),d
5bcd 63        ld      h,e
5bce 68        ld      l,b
5bcf 61        ld      h,c
5bd0 73        ld      (hl),e
5bd1 65        ld      h,l
5bd2 2e0d      ld      l,0dh
5bd4 0a        ld      a,(bc)
5bd5 24        inc     h
5bd6 00        nop     
5bd7 0d        dec     c
5bd8 0a        ld      a,(bc)
5bd9 24        inc     h
5bda 00        nop     
5bdb 2863      jr      z,5c40h
5bdd 29        add     hl,hl
5bde 204c      jr      nz,5c2ch
5be0 6f        ld      l,a
5be1 74        ld      (hl),h
5be2 74        ld      (hl),h
5be3 6f        ld      l,a
5be4 204c      jr      nz,5c32h
5be6 69        ld      l,c
5be7 6e        ld      l,(hl)
5be8 6b        ld      l,e
5be9 204c      jr      nz,5c37h
5beb 74        ld      (hl),h
5bec 64        ld      h,h
5bed 2032      jr      nz,5c21h
5bef 3030      jr      nc,5c21h
5bf1 312e20    ld      sp,202eh
5bf4 50        ld      d,b
5bf5 61        ld      h,c
5bf6 74        ld      (hl),h
5bf7 65        ld      h,l
5bf8 6e        ld      l,(hl)
5bf9 74        ld      (hl),h
5bfa 2053      jr      nz,5c4fh
5bfc 3831      jr      c,5c2fh
5bfe 35        dec     (hl)
5bff 39        add     hl,sp
5c00 33        inc     sp
5c01 2e20      ld      l,20h
5c03 2020      jr      nz,5c25h
5c05 200d      jr      nz,5c14h
5c07 0a        ld      a,(bc)
5c08 24        inc     h
5c09 00        nop     
5c0a 56        ld      d,(hl)
5c0b 65        ld      h,l
5c0c 72        ld      (hl),d
5c0d 73        ld      (hl),e
5c0e 69        ld      l,c
5c0f 6f        ld      l,a
5c10 6e        ld      l,(hl)
5c11 204d      jr      nz,5c60h
5c13 69        ld      l,c
5c14 73        ld      (hl),e
5c15 6d        ld      l,l
5c16 61        ld      h,c
5c17 74        ld      (hl),h
5c18 63        ld      h,e
5c19 68        ld      l,b
5c1a 2020      jr      nz,5c3ch
5c1c 2020      jr      nz,5c3eh
5c1e 200d      jr      nz,5c2dh
5c20 0a        ld      a,(bc)
5c21 24        inc     h
5c22 56        ld      d,(hl)
5c23 65        ld      h,l
5c24 72        ld      (hl),d
5c25 73        ld      (hl),e
5c26 69        ld      l,c
5c27 6f        ld      l,a
5c28 6e        ld      l,(hl)
5c29 204e      jr      nz,5c79h
5c2b 6f        ld      l,a
5c2c 2069      jr      nz,5c97h
5c2e 6e        ld      l,(hl)
5c2f 2052      jr      nz,5c83h
5c31 4f        ld      c,a
5c32 4d        ld      c,l
5c33 203d      jr      nz,5c72h
5c35 2024      jr      nz,5c5bh
5c37 56        ld      d,(hl)
5c38 65        ld      h,l
5c39 72        ld      (hl),d
5c3a 73        ld      (hl),e
5c3b 69        ld      l,c
5c3c 6f        ld      l,a
5c3d 6e        ld      l,(hl)
5c3e 204e      jr      nz,5c8eh
5c40 6f        ld      l,a
5c41 2069      jr      nz,5cach
5c43 6e        ld      l,(hl)
5c44 2052      jr      nz,5c98h
5c46 41        ld      b,c
5c47 4d        ld      c,l
5c48 203d      jr      nz,5c87h
5c4a 2024      jr      nz,5c70h
5c4c 2d        dec     l
5c4d 2d        dec     l
5c4e 2d        dec     l
5c4f 204c      jr      nz,5c9dh
5c51 4f        ld      c,a
5c52 54        ld      d,h
5c53 54        ld      d,h
5c54 45        ld      b,l
5c55 52        ld      d,d
5c56 59        ld      e,c
5c57 2054      jr      nz,5cadh
5c59 52        ld      d,d
5c5a 41        ld      b,c
5c5b 4e        ld      c,(hl)
5c5c 53        ld      d,e
5c5d 41        ld      b,c
5c5e 43        ld      b,e
5c5f 54        ld      d,h
5c60 49        ld      c,c
5c61 4f        ld      c,a
5c62 4e        ld      c,(hl)
5c63 2050      jr      nz,5cb5h
5c65 52        ld      d,d
5c66 49        ld      c,c
5c67 4e        ld      c,(hl)
5c68 54        ld      d,h
5c69 4f        ld      c,a
5c6a 55        ld      d,l
5c6b 54        ld      d,h
5c6c 2053      jr      nz,5cc1h
5c6e 54        ld      d,h
5c6f 41        ld      b,c
5c70 52        ld      d,d
5c71 54        ld      d,h
5c72 202d      jr      nz,5ca1h
5c74 2d        dec     l
5c75 2d        dec     l
5c76 0d        dec     c
5c77 0a        ld      a,(bc)
5c78 24        inc     h
5c79 4c        ld      c,h
5c7a 69        ld      l,c
5c7b 73        ld      (hl),e
5c7c 74        ld      (hl),h
5c7d 2050      jr      nz,5ccfh
5c7f 72        ld      (hl),d
5c80 69        ld      l,c
5c81 6e        ld      l,(hl)
5c82 74        ld      (hl),h
5c83 65        ld      h,l
5c84 64        ld      h,h
5c85 2053      jr      nz,5cdah
5c87 69        ld      l,c
5c88 74        ld      (hl),h
5c89 65        ld      h,l
5c8a 2024      jr      nz,5cb0h
5c8c 44        ld      b,h
5c8d 72        ld      (hl),d
5c8e 61        ld      h,c
5c8f 77        ld      (hl),a
5c90 2044      jr      nz,5cd6h
5c92 61        ld      h,c
5c93 74        ld      (hl),h
5c94 65        ld      h,l
5c95 2061      jr      nz,5cf8h
5c97 74        ld      (hl),h
5c98 2053      jr      nz,5cedh
5c9a 69        ld      l,c
5c9b 74        ld      (hl),h
5c9c 65        ld      h,l
5c9d 2024      jr      nz,5cc3h
5c9f 44        ld      b,h
5ca0 72        ld      (hl),d
5ca1 61        ld      h,c
5ca2 77        ld      (hl),a
5ca3 2052      jr      nz,5cf7h
5ca5 65        ld      h,l
5ca6 73        ld      (hl),e
5ca7 75        ld      (hl),l
5ca8 6c        ld      l,h
5ca9 74        ld      (hl),h
5caa 3a2020    ld      a,(2020h)
5cad 2020      jr      nz,5ccfh
5caf 2020      jr      nz,5cd1h
5cb1 2020      jr      nz,5cd3h
5cb3 2020      jr      nz,5cd5h
5cb5 2020      jr      nz,5cd7h
5cb7 2020      jr      nz,5cd9h
5cb9 2020      jr      nz,5cdbh
5cbb 2020      jr      nz,5cddh
5cbd 2020      jr      nz,5cdfh
5cbf 2020      jr      nz,5ce1h
5cc1 2020      jr      nz,5ce3h
5cc3 2042      jr      nz,5d07h
5cc5 6f        ld      l,a
5cc6 6e        ld      l,(hl)
5cc7 75        ld      (hl),l
5cc8 73        ld      (hl),e
5cc9 0d        dec     c
5cca 0a        ld      a,(bc)
5ccb 24        inc     h
5ccc 2c        inc     l
5ccd 2043      jr      nz,5d12h
5ccf 2f        cpl     
5cd0 46        ld      b,(hl)
5cd1 3a2420    ld      a,(2024h)
5cd4 54        ld      d,h
5cd5 6f        ld      l,a
5cd6 74        ld      (hl),h
5cd7 61        ld      h,c
5cd8 6c        ld      l,h
5cd9 2024      jr      nz,5cffh
5cdb 43        ld      b,e
5cdc 61        ld      h,c
5cdd 73        ld      (hl),e
5cde 68        ld      l,b
5cdf 2043      jr      nz,5d24h
5ce1 6e        ld      l,(hl)
5ce2 74        ld      (hl),h
5ce3 2042      jr      nz,5d27h
5ce5 2f        cpl     
5ce6 46        ld      b,(hl)
5ce7 3a2420    ld      a,(2024h)
5cea 2020      jr      nz,5d0ch
5cec 204d      jr      nz,5d3bh
5cee 61        ld      h,c
5cef 63        ld      h,e
5cf0 68        ld      l,b
5cf1 69        ld      l,c
5cf2 6e        ld      l,(hl)
5cf3 65        ld      h,l
5cf4 2052      jr      nz,5d48h
5cf6 65        ld      h,l
5cf7 70        ld      (hl),b
5cf8 6f        ld      l,a
5cf9 72        ld      (hl),d
5cfa 74        ld      (hl),h
5cfb 0d        dec     c
5cfc 0a        ld      a,(bc)
5cfd 24        inc     h
5cfe 46        ld      b,(hl)
5cff 69        ld      l,c
5d00 72        ld      (hl),d
5d01 6d        ld      l,l
5d02 77        ld      (hl),a
5d03 61        ld      h,c
5d04 72        ld      (hl),d
5d05 65        ld      h,l
5d06 2052      jr      nz,5d5ah
5d08 65        ld      h,l
5d09 76        halt    
5d0a 69        ld      l,c
5d0b 73        ld      (hl),e
5d0c 69        ld      l,c
5d0d 6f        ld      l,a
5d0e 6e        ld      l,(hl)
5d0f 2024      jr      nz,5d35h
5d11 52        ld      d,d
5d12 65        ld      h,l
5d13 6d        ld      l,l
5d14 6f        ld      l,a
5d15 74        ld      (hl),h
5d16 65        ld      h,l
5d17 2050      jr      nz,5d69h
5d19 72        ld      (hl),d
5d1a 69        ld      l,c
5d1b 6e        ld      l,(hl)
5d1c 74        ld      (hl),h
5d1d 65        ld      h,l
5d1e 72        ld      (hl),d
5d1f 2052      jr      nz,5d73h
5d21 65        ld      h,l
5d22 70        ld      (hl),b
5d23 6f        ld      l,a
5d24 72        ld      (hl),d
5d25 74        ld      (hl),h
5d26 73        ld      (hl),e
5d27 2050      jr      nz,5d79h
5d29 61        ld      h,c
5d2a 70        ld      (hl),b
5d2b 65        ld      h,l
5d2c 72        ld      (hl),d
5d2d 2024      jr      nz,5d53h
5d2f 4f        ld      c,a
5d30 75        ld      (hl),l
5d31 74        ld      (hl),h
5d32 24        inc     h
5d33 4f        ld      c,a
5d34 4b        ld      c,e
5d35 24        inc     h
5d36 44        ld      b,h
5d37 69        ld      l,c
5d38 61        ld      h,c
5d39 6c        ld      l,h
5d3a 2041      jr      nz,5d7dh
5d3c 74        ld      (hl),h
5d3d 74        ld      (hl),h
5d3e 65        ld      h,l
5d3f 6d        ld      l,l
5d40 70        ld      (hl),b
5d41 74        ld      (hl),h
5d42 2043      jr      nz,5d87h
5d44 6f        ld      l,a
5d45 75        ld      (hl),l
5d46 6e        ld      l,(hl)
5d47 74        ld      (hl),h
5d48 65        ld      h,l
5d49 72        ld      (hl),d
5d4a 2024      jr      nz,5d70h
5d4c 2020      jr      nz,5d6eh
5d4e 2020      jr      nz,5d70h
5d50 4c        ld      c,h
5d51 6f        ld      l,a
5d52 74        ld      (hl),h
5d53 74        ld      (hl),h
5d54 65        ld      h,l
5d55 72        ld      (hl),d
5d56 79        ld      a,c
5d57 2052      jr      nz,5dabh
5d59 65        ld      h,l
5d5a 70        ld      (hl),b
5d5b 6f        ld      l,a
5d5c 72        ld      (hl),d
5d5d 74        ld      (hl),h
5d5e 0d        dec     c
5d5f 0a        ld      a,(bc)
5d60 24        inc     h
5d61 204c      jr      nz,5dafh
5d63 43        ld      b,e
5d64 3058      jr      nc,5dbeh
5d66 58        ld      e,b
5d67 2028      jr      nz,5d91h
5d69 41        ld      b,c
5d6a 6c        ld      l,h
5d6b 6c        ld      l,h
5d6c 2043      jr      nz,5db1h
5d6e 6c        ld      l,h
5d6f 61        ld      h,c
5d70 73        ld      (hl),e
5d71 73        ld      (hl),e
5d72 65        ld      h,l
5d73 73        ld      (hl),e
5d74 29        add     hl,hl
5d75 202e      jr      nz,5da5h
5d77 2e2e      ld      l,2eh
5d79 2e2e      ld      l,2eh
5d7b 24        inc     h
5d7c 204c      jr      nz,5dcah
5d7e 43        ld      b,e
5d7f 3046      jr      nc,5dc7h
5d81 46        ld      b,(hl)
5d82 2028      jr      nz,5dach
5d84 42        ld      b,d
5d85 6c        ld      l,h
5d86 61        ld      h,c
5d87 6e        ld      l,(hl)
5d88 6b        ld      l,e
5d89 29        add     hl,hl
5d8a 202e      jr      nz,5dbah
5d8c 2e2e      ld      l,2eh
5d8e 2e2e      ld      l,2eh
5d90 2e2e      ld      l,2eh
5d92 2e2e      ld      l,2eh
5d94 2e2e      ld      l,2eh
5d96 24        inc     h
5d97 204c      jr      nz,5de5h
5d99 43        ld      b,e
5d9a 3038      jr      nc,5dd4h
5d9c 58        ld      e,b
5d9d 2028      jr      nz,5dc7h
5d9f 49        ld      c,c
5da0 6e        ld      l,(hl)
5da1 76        halt    
5da2 61        ld      h,c
5da3 6c        ld      l,h
5da4 69        ld      l,c
5da5 64        ld      h,h
5da6 2f        cpl     
5da7 44        ld      b,h
5da8 65        ld      h,l
5da9 6c        ld      l,h
5daa 65        ld      h,l
5dab 74        ld      (hl),h
5dac 65        ld      h,l
5dad 64        ld      h,h
5dae 29        add     hl,hl
5daf 202e      jr      nz,5ddfh
5db1 24        inc     h
5db2 204c      jr      nz,5e00h
5db4 43        ld      b,e
5db5 3034      jr      nc,5debh
5db7 322028    ld      (2820h),a
5dba 50        ld      d,b
5dbb 6f        ld      l,a
5dbc 77        ld      (hl),a
5dbd 65        ld      h,l
5dbe 72        ld      (hl),d
5dbf 2055      jr      nz,5e16h
5dc1 70        ld      (hl),b
5dc2 29        add     hl,hl
5dc3 202e      jr      nz,5df3h
5dc5 2e2e      ld      l,2eh
5dc7 2e2e      ld      l,2eh
5dc9 2e2e      ld      l,2eh
5dcb 2e24      ld      l,24h
5dcd 204c      jr      nz,5e1bh
5dcf 43        ld      b,e
5dd0 3034      jr      nc,5e06h
5dd2 312028    ld      sp,2820h
5dd5 50        ld      d,b
5dd6 6f        ld      l,a
5dd7 77        ld      (hl),a
5dd8 65        ld      h,l
5dd9 72        ld      (hl),d
5dda 2044      jr      nz,5e20h
5ddc 6f        ld      l,a
5ddd 77        ld      (hl),a
5dde 6e        ld      l,(hl)
5ddf 29        add     hl,hl
5de0 202e      jr      nz,5e10h
5de2 2e2e      ld      l,2eh
5de4 2e2e      ld      l,2eh
5de6 2e24      ld      l,24h
5de8 204c      jr      nz,5e36h
5dea 43        ld      b,e
5deb 3030      jr      nc,5e1dh
5ded 41        ld      b,c
5dee 2028      jr      nz,5e18h
5df0 53        ld      d,e
5df1 79        ld      a,c
5df2 6e        ld      l,(hl)
5df3 64        ld      h,h
5df4 69        ld      l,c
5df5 63        ld      h,e
5df6 2d        dec     l
5df7 313029    ld      sp,2930h
5dfa 202e      jr      nz,5e2ah
5dfc 2e2e      ld      l,2eh
5dfe 2e2e      ld      l,2eh
5e00 2e2e      ld      l,2eh
5e02 24        inc     h
5e03 204c      jr      nz,5e51h
5e05 43        ld      b,e
5e06 3030      jr      nc,5e38h
5e08 35        dec     (hl)
5e09 2028      jr      nz,5e33h
5e0b 53        ld      d,e
5e0c 79        ld      a,c
5e0d 6e        ld      l,(hl)
5e0e 64        ld      h,h
5e0f 69        ld      l,c
5e10 63        ld      h,e
5e11 2d        dec     l
5e12 3035      jr      nc,5e49h
5e14 29        add     hl,hl
5e15 202e      jr      nz,5e45h
5e17 2e2e      ld      l,2eh
5e19 2e2e      ld      l,2eh
5e1b 2e2e      ld      l,2eh
5e1d 24        inc     h
5e1e 204c      jr      nz,5e6ch
5e20 43        ld      b,e
5e21 3030      jr      nc,5e53h
5e23 312028    ld      sp,2820h
5e26 53        ld      d,e
5e27 79        ld      a,c
5e28 6e        ld      l,(hl)
5e29 64        ld      h,h
5e2a 69        ld      l,c
5e2b 63        ld      h,e
5e2c 2d        dec     l
5e2d 3031      jr      nc,5e60h
5e2f 29        add     hl,hl
5e30 202e      jr      nz,5e60h
5e32 2e2e      ld      l,2eh
5e34 2e2e      ld      l,2eh
5e36 2e2e      ld      l,2eh
5e38 24        inc     h
5e39 204c      jr      nz,5e87h
5e3b 43        ld      b,e
5e3c 3030      jr      nc,5e6eh
5e3e 34        inc     (hl)
5e3f 2028      jr      nz,5e69h
5e41 4d        ld      c,l
5e42 61        ld      h,c
5e43 74        ld      (hl),h
5e44 63        ld      h,e
5e45 68        ld      l,b
5e46 2034      jr      nz,5e7ch
5e48 29        add     hl,hl
5e49 202e      jr      nz,5e79h
5e4b 2e2e      ld      l,2eh
5e4d 2e2e      ld      l,2eh
5e4f 2e2e      ld      l,2eh
5e51 2e2e      ld      l,2eh
5e53 24        inc     h
5e54 204c      jr      nz,5ea2h
5e56 43        ld      b,e
5e57 3030      jr      nc,5e89h
5e59 33        inc     sp
5e5a 2028      jr      nz,5e84h
5e5c 4d        ld      c,l
5e5d 61        ld      h,c
5e5e 74        ld      (hl),h
5e5f 63        ld      h,e
5e60 68        ld      l,b
5e61 2033      jr      nz,5e96h
5e63 29        add     hl,hl
5e64 202e      jr      nz,5e94h
5e66 2e2e      ld      l,2eh
5e68 2e2e      ld      l,2eh
5e6a 2e2e      ld      l,2eh
5e6c 2e2e      ld      l,2eh
5e6e 24        inc     h
5e6f 204c      jr      nz,5ebdh
5e71 43        ld      b,e
5e72 3030      jr      nc,5ea4h
5e74 322028    ld      (2820h),a
5e77 4d        ld      c,l
5e78 61        ld      h,c
5e79 74        ld      (hl),h
5e7a 63        ld      h,e
5e7b 68        ld      l,b
5e7c 2032      jr      nz,5eb0h
5e7e 29        add     hl,hl
5e7f 202e      jr      nz,5eafh
5e81 2e2e      ld      l,2eh
5e83 2e2e      ld      l,2eh
5e85 2e2e      ld      l,2eh
5e87 2e2e      ld      l,2eh
5e89 24        inc     h
5e8a 204c      jr      nz,5ed8h
5e8c 43        ld      b,e
5e8d 3030      jr      nc,5ebfh
5e8f 3020      jr      nc,5eb1h
5e91 2845      jr      z,5ed8h
5e93 72        ld      (hl),d
5e94 72        ld      (hl),d
5e95 6f        ld      l,a
5e96 72        ld      (hl),d
5e97 2043      jr      nz,5edch
5e99 6f        ld      l,a
5e9a 64        ld      h,h
5e9b 65        ld      h,l
5e9c 204c      jr      nz,5eeah
5e9e 4d        ld      c,l
5e9f 61        ld      h,c
5ea0 6b        ld      l,e
5ea1 65        ld      h,l
5ea2 29        add     hl,hl
5ea3 2024      jr      nz,5ec9h
5ea5 2e2e      ld      l,2eh
5ea7 2e2e      ld      l,2eh
5ea9 2e2e      ld      l,2eh
5eab 2e2e      ld      l,2eh
5ead 2e2e      ld      l,2eh
5eaf 2e20      ld      l,20h
5eb1 24        inc     h
5eb2 1b        dec     de
5eb3 2d        dec     l
5eb4 32504f    ld      (4f50h),a
5eb7 57        ld      d,a
5eb8 45        ld      b,l
5eb9 52        ld      d,d
5eba 2044      jr      nz,5f00h
5ebc 4f        ld      c,a
5ebd 57        ld      d,a
5ebe 4e        ld      c,(hl)
5ebf 2f        cpl     
5ec0 50        ld      d,b
5ec1 4f        ld      c,a
5ec2 57        ld      d,a
5ec3 45        ld      b,l
5ec4 52        ld      d,d
5ec5 2055      jr      nz,5f1ch
5ec7 50        ld      d,b
5ec8 204c      jr      nz,5f16h
5eca 49        ld      c,c
5ecb 53        ld      d,e
5ecc 54        ld      d,h
5ecd 1b        dec     de
5ece 2d        dec     l
5ecf 3020      jr      nc,5ef1h
5ed1 0d        dec     c
5ed2 0a        ld      a,(bc)
5ed3 24        inc     h
5ed4 1b        dec     de
5ed5 2d        dec     l
5ed6 32494e    ld      (4e49h),a
5ed9 54        ld      d,h
5eda 45        ld      b,l
5edb 52        ld      d,d
5edc 4e        ld      c,(hl)
5edd 41        ld      b,c
5ede 4c        ld      c,h
5edf 204c      jr      nz,5f2dh
5ee1 4f        ld      c,a
5ee2 47        ld      b,a
5ee3 2053      jr      nz,5f38h
5ee5 55        ld      d,l
5ee6 4d        ld      c,l
5ee7 4d        ld      c,l
5ee8 41        ld      b,c
5ee9 52        ld      d,d
5eea 59        ld      e,c
5eeb 1b        dec     de
5eec 2d        dec     l
5eed 3020      jr      nc,5f0fh
5eef 0d        dec     c
5ef0 0a        ld      a,(bc)
5ef1 24        inc     h
5ef2 1b        dec     de
5ef3 2d        dec     l
5ef4 325749    ld      (4957h),a
5ef7 4e        ld      c,(hl)
5ef8 4e        ld      c,(hl)
5ef9 45        ld      b,l
5efa 52        ld      d,d
5efb 53        ld      d,e
5efc 204c      jr      nz,5f4ah
5efe 49        ld      c,c
5eff 53        ld      d,e
5f00 54        ld      d,h
5f01 1b        dec     de
5f02 2d        dec     l
5f03 3020      jr      nc,5f25h
5f05 0d        dec     c
5f06 0a        ld      a,(bc)
5f07 24        inc     h
5f08 4d        ld      c,l
5f09 61        ld      h,c
5f0a 74        ld      (hl),h
5f0b 63        ld      h,e
5f0c 68        ld      l,b
5f0d 2034      jr      nz,5f43h
5f0f 2045      jr      nz,5f56h
5f11 6e        ld      l,(hl)
5f12 74        ld      (hl),h
5f13 72        ld      (hl),d
5f14 69        ld      l,c
5f15 65        ld      h,l
5f16 73        ld      (hl),e
5f17 2050      jr      nz,5f69h
5f19 6c        ld      l,h
5f1a 61        ld      h,c
5f1b 79        ld      a,c
5f1c 65        ld      h,l
5f1d 64        ld      h,h
5f1e 202e      jr      nz,5f4eh
5f20 2e2e      ld      l,2eh
5f22 2e2e      ld      l,2eh
5f24 2e2e      ld      l,2eh
5f26 2e2e      ld      l,2eh
5f28 2e2e      ld      l,2eh
5f2a 2e2e      ld      l,2eh
5f2c 2e20      ld      l,20h
5f2e 24        inc     h
5f2f 204d      jr      nz,5f7eh
5f31 34        inc     (hl)
5f32 46        ld      b,(hl)
5f33 209c      jr      nz,5ed1h
5f35 33        inc     sp
5f36 3030      jr      nc,5f68h
5f38 3020      jr      nc,5f5ah
5f3a 24        inc     h
5f3b 204d      jr      nz,5f8ah
5f3d 34        inc     (hl)
5f3e 48        ld      c,b
5f3f 209c      jr      nz,5eddh
5f41 313530    ld      sp,3035h
5f44 3020      jr      nc,5f66h
5f46 24        inc     h
5f47 204d      jr      nz,5f96h
5f49 34        inc     (hl)
5f4a 42        ld      b,d
5f4b 2020      jr      nz,5f6dh
5f4d 2020      jr      nz,5f6fh
5f4f 9c        sbc     a,h
5f50 312024    ld      sp,2420h
5f53 54        ld      d,h
5f54 6f        ld      l,a
5f55 74        ld      (hl),h
5f56 61        ld      h,c
5f57 6c        ld      l,h
5f58 206e      jr      nz,5fc8h
5f5a 6f        ld      l,a
5f5b 206f      jr      nz,5fcch
5f5d 66        ld      h,(hl)
5f5e 204d      jr      nz,5fadh
5f60 61        ld      h,c
5f61 74        ld      (hl),h
5f62 63        ld      h,e
5f63 68        ld      l,b
5f64 2034      jr      nz,5f9ah
5f66 2066      jr      nz,5fceh
5f68 75        ld      (hl),l
5f69 6c        ld      l,h
5f6a 6c        ld      l,h
5f6b 2077      jr      nz,5fe4h
5f6d 69        ld      l,c
5f6e 6e        ld      l,(hl)
5f6f 6e        ld      l,(hl)
5f70 65        ld      h,l
5f71 72        ld      (hl),d
5f72 73        ld      (hl),e
5f73 202e      jr      nz,5fa3h
5f75 2e2e      ld      l,2eh
5f77 2e20      ld      l,20h
5f79 24        inc     h
5f7a 54        ld      d,h
5f7b 6f        ld      l,a
5f7c 74        ld      (hl),h
5f7d 61        ld      h,c
5f7e 6c        ld      l,h
5f7f 206e      jr      nz,5fefh
5f81 6f        ld      l,a
5f82 206f      jr      nz,5ff3h
5f84 66        ld      h,(hl)
5f85 204d      jr      nz,5fd4h
5f87 61        ld      h,c
5f88 74        ld      (hl),h
5f89 63        ld      h,e
5f8a 68        ld      l,b
5f8b 2034      jr      nz,5fc1h
5f8d 2068      jr      nz,5ff7h
5f8f 61        ld      h,c
5f90 6c        ld      l,h
5f91 66        ld      h,(hl)
5f92 2077      jr      nz,600bh
5f94 69        ld      l,c
5f95 6e        ld      l,(hl)
5f96 6e        ld      l,(hl)
5f97 65        ld      h,l
5f98 72        ld      (hl),d
5f99 73        ld      (hl),e
5f9a 202e      jr      nz,5fcah
5f9c 2e2e      ld      l,2eh
5f9e 2e20      ld      l,20h
5fa0 24        inc     h
5fa1 54        ld      d,h
5fa2 6f        ld      l,a
5fa3 74        ld      (hl),h
5fa4 61        ld      h,c
5fa5 6c        ld      l,h
5fa6 206e      jr      nz,6016h
5fa8 6f        ld      l,a
5fa9 206f      jr      nz,601ah
5fab 66        ld      h,(hl)
5fac 204d      jr      nz,5ffbh
5fae 61        ld      h,c
5faf 74        ld      (hl),h
5fb0 63        ld      h,e
5fb1 68        ld      l,b
5fb2 2034      jr      nz,5fe8h
5fb4 2062      jr      nz,6018h
5fb6 6f        ld      l,a
5fb7 6e        ld      l,(hl)
5fb8 75        ld      (hl),l
5fb9 73        ld      (hl),e
5fba 2077      jr      nz,6033h
5fbc 69        ld      l,c
5fbd 6e        ld      l,(hl)
5fbe 6e        ld      l,(hl)
5fbf 65        ld      h,l
5fc0 72        ld      (hl),d
5fc1 73        ld      (hl),e
5fc2 202e      jr      nz,5ff2h
5fc4 2e2e      ld      l,2eh
5fc6 2024      jr      nz,5fech
5fc8 4d        ld      c,l
5fc9 61        ld      h,c
5fca 74        ld      (hl),h
5fcb 63        ld      h,e
5fcc 68        ld      l,b
5fcd 2033      jr      nz,6002h
5fcf 2045      jr      nz,6016h
5fd1 6e        ld      l,(hl)
5fd2 74        ld      (hl),h
5fd3 72        ld      (hl),d
5fd4 69        ld      l,c
5fd5 65        ld      h,l
5fd6 73        ld      (hl),e
5fd7 2050      jr      nz,6029h
5fd9 6c        ld      l,h
5fda 61        ld      h,c
5fdb 79        ld      a,c
5fdc 65        ld      h,l
5fdd 64        ld      h,h
5fde 202e      jr      nz,600eh
5fe0 2e2e      ld      l,2eh
5fe2 2e2e      ld      l,2eh
5fe4 2e2e      ld      l,2eh
5fe6 2e2e      ld      l,2eh
5fe8 2e2e      ld      l,2eh
5fea 2e2e      ld      l,2eh
5fec 2e20      ld      l,20h
5fee 24        inc     h
5fef 204d      jr      nz,603eh
5ff1 33        inc     sp
5ff2 46        ld      b,(hl)
5ff3 2020      jr      nz,6015h
5ff5 9c        sbc     a,h
5ff6 33        inc     sp
5ff7 3030      jr      nc,6029h
5ff9 2024      jr      nz,601fh
5ffb 204d      jr      nz,604ah
5ffd 33        inc     sp
5ffe 48        ld      c,b
5fff 2020      jr      nz,6021h
6001 9c        sbc     a,h
6002 313530    ld      sp,3035h
6005 2024      jr      nz,602bh
6007 204d      jr      nz,6056h
6009 33        inc     sp
600a 42        ld      b,d
600b 2020      jr      nz,602dh
600d 2020      jr      nz,602fh
600f 9c        sbc     a,h
6010 312024    ld      sp,2420h
6013 54        ld      d,h
6014 6f        ld      l,a
6015 74        ld      (hl),h
6016 61        ld      h,c
6017 6c        ld      l,h
6018 206e      jr      nz,6088h
601a 6f        ld      l,a
601b 206f      jr      nz,608ch
601d 66        ld      h,(hl)
601e 204d      jr      nz,606dh
6020 61        ld      h,c
6021 74        ld      (hl),h
6022 63        ld      h,e
6023 68        ld      l,b
6024 2033      jr      nz,6059h
6026 2066      jr      nz,608eh
6028 75        ld      (hl),l
6029 6c        ld      l,h
602a 6c        ld      l,h
602b 2077      jr      nz,60a4h
602d 69        ld      l,c
602e 6e        ld      l,(hl)
602f 6e        ld      l,(hl)
6030 65        ld      h,l
6031 72        ld      (hl),d
6032 73        ld      (hl),e
6033 202e      jr      nz,6063h
6035 2e2e      ld      l,2eh
6037 2e20      ld      l,20h
6039 24        inc     h
603a 54        ld      d,h
603b 6f        ld      l,a
603c 74        ld      (hl),h
603d 61        ld      h,c
603e 6c        ld      l,h
603f 206e      jr      nz,60afh
6041 6f        ld      l,a
6042 206f      jr      nz,60b3h
6044 66        ld      h,(hl)
6045 204d      jr      nz,6094h
6047 61        ld      h,c
6048 74        ld      (hl),h
6049 63        ld      h,e
604a 68        ld      l,b
604b 2033      jr      nz,6080h
604d 2068      jr      nz,60b7h
604f 61        ld      h,c
6050 6c        ld      l,h
6051 66        ld      h,(hl)
6052 2077      jr      nz,60cbh
6054 69        ld      l,c
6055 6e        ld      l,(hl)
6056 6e        ld      l,(hl)
6057 65        ld      h,l
6058 72        ld      (hl),d
6059 73        ld      (hl),e
605a 202e      jr      nz,608ah
605c 2e2e      ld      l,2eh
605e 2e20      ld      l,20h
6060 24        inc     h
6061 54        ld      d,h
6062 6f        ld      l,a
6063 74        ld      (hl),h
6064 61        ld      h,c
6065 6c        ld      l,h
6066 206e      jr      nz,60d6h
6068 6f        ld      l,a
6069 206f      jr      nz,60dah
606b 66        ld      h,(hl)
606c 204d      jr      nz,60bbh
606e 61        ld      h,c
606f 74        ld      (hl),h
6070 63        ld      h,e
6071 68        ld      l,b
6072 2033      jr      nz,60a7h
6074 2062      jr      nz,60d8h
6076 6f        ld      l,a
6077 6e        ld      l,(hl)
6078 75        ld      (hl),l
6079 73        ld      (hl),e
607a 2077      jr      nz,60f3h
607c 69        ld      l,c
607d 6e        ld      l,(hl)
607e 6e        ld      l,(hl)
607f 65        ld      h,l
6080 72        ld      (hl),d
6081 73        ld      (hl),e
6082 202e      jr      nz,60b2h
6084 2e2e      ld      l,2eh
6086 2024      jr      nz,60ach
6088 4d        ld      c,l
6089 61        ld      h,c
608a 74        ld      (hl),h
608b 63        ld      h,e
608c 68        ld      l,b
608d 2032      jr      nz,60c1h
608f 2045      jr      nz,60d6h
6091 6e        ld      l,(hl)
6092 74        ld      (hl),h
6093 72        ld      (hl),d
6094 69        ld      l,c
6095 65        ld      h,l
6096 73        ld      (hl),e
6097 2050      jr      nz,60e9h
6099 6c        ld      l,h
609a 61        ld      h,c
609b 79        ld      a,c
609c 65        ld      h,l
609d 64        ld      h,h
609e 202e      jr      nz,60ceh
60a0 2e2e      ld      l,2eh
60a2 2e2e      ld      l,2eh
60a4 2e2e      ld      l,2eh
60a6 2e2e      ld      l,2eh
60a8 2e2e      ld      l,2eh
60aa 2e2e      ld      l,2eh
60ac 2e20      ld      l,20h
60ae 24        inc     h
60af 204d      jr      nz,60feh
60b1 324620    ld      (2046h),a
60b4 2020      jr      nz,60d6h
60b6 9c        sbc     a,h
60b7 33        inc     sp
60b8 3020      jr      nc,60dah
60ba 24        inc     h
60bb 204d      jr      nz,610ah
60bd 324820    ld      (2048h),a
60c0 2020      jr      nz,60e2h
60c2 9c        sbc     a,h
60c3 313520    ld      sp,2035h
60c6 24        inc     h
60c7 204d      jr      nz,6116h
60c9 324220    ld      (2042h),a
60cc 2020      jr      nz,60eeh
60ce 209c      jr      nz,606ch
60d0 312024    ld      sp,2420h
60d3 54        ld      d,h
60d4 6f        ld      l,a
60d5 74        ld      (hl),h
60d6 61        ld      h,c
60d7 6c        ld      l,h
60d8 206e      jr      nz,6148h
60da 6f        ld      l,a
60db 206f      jr      nz,614ch
60dd 66        ld      h,(hl)
60de 204d      jr      nz,612dh
60e0 61        ld      h,c
60e1 74        ld      (hl),h
60e2 63        ld      h,e
60e3 68        ld      l,b
60e4 2032      jr      nz,6118h
60e6 2066      jr      nz,614eh
60e8 75        ld      (hl),l
60e9 6c        ld      l,h
60ea 6c        ld      l,h
60eb 2077      jr      nz,6164h
60ed 69        ld      l,c
60ee 6e        ld      l,(hl)
60ef 6e        ld      l,(hl)
60f0 65        ld      h,l
60f1 72        ld      (hl),d
60f2 73        ld      (hl),e
60f3 202e      jr      nz,6123h
60f5 2e2e      ld      l,2eh
60f7 2e20      ld      l,20h
60f9 24        inc     h
60fa 54        ld      d,h
60fb 6f        ld      l,a
60fc 74        ld      (hl),h
60fd 61        ld      h,c
60fe 6c        ld      l,h
60ff 206e      jr      nz,616fh
6101 6f        ld      l,a
6102 206f      jr      nz,6173h
6104 66        ld      h,(hl)
6105 204d      jr      nz,6154h
6107 61        ld      h,c
6108 74        ld      (hl),h
6109 63        ld      h,e
610a 68        ld      l,b
610b 2032      jr      nz,613fh
610d 2068      jr      nz,6177h
610f 61        ld      h,c
6110 6c        ld      l,h
6111 66        ld      h,(hl)
6112 2077      jr      nz,618bh
6114 69        ld      l,c
6115 6e        ld      l,(hl)
6116 6e        ld      l,(hl)
6117 65        ld      h,l
6118 72        ld      (hl),d
6119 73        ld      (hl),e
611a 202e      jr      nz,614ah
611c 2e2e      ld      l,2eh
611e 2e20      ld      l,20h
6120 24        inc     h
6121 54        ld      d,h
6122 6f        ld      l,a
6123 74        ld      (hl),h
6124 61        ld      h,c
6125 6c        ld      l,h
6126 206e      jr      nz,6196h
6128 6f        ld      l,a
6129 206f      jr      nz,619ah
612b 66        ld      h,(hl)
612c 204d      jr      nz,617bh
612e 61        ld      h,c
612f 74        ld      (hl),h
6130 63        ld      h,e
6131 68        ld      l,b
6132 2032      jr      nz,6166h
6134 2062      jr      nz,6198h
6136 6f        ld      l,a
6137 6e        ld      l,(hl)
6138 75        ld      (hl),l
6139 73        ld      (hl),e
613a 2077      jr      nz,61b3h
613c 69        ld      l,c
613d 6e        ld      l,(hl)
613e 6e        ld      l,(hl)
613f 65        ld      h,l
6140 72        ld      (hl),d
6141 73        ld      (hl),e
6142 202e      jr      nz,6172h
6144 2e2e      ld      l,2eh
6146 2024      jr      nz,616ch
6148 53        ld      d,e
6149 79        ld      a,c
614a 6e        ld      l,(hl)
614b 64        ld      h,h
614c 69        ld      l,c
614d 63        ld      h,e
614e 61        ld      h,c
614f 74        ld      (hl),h
6150 65        ld      h,l
6151 2031      jr      nz,6184h
6153 3020      jr      nc,6175h
6155 43        ld      b,e
6156 6f        ld      l,a
6157 6d        ld      l,l
6158 62        ld      h,d
6159 69        ld      l,c
615a 6e        ld      l,(hl)
615b 61        ld      h,c
615c 74        ld      (hl),h
615d 69        ld      l,c
615e 6f        ld      l,a
615f 6e        ld      l,(hl)
6160 73        ld      (hl),e
6161 2050      jr      nz,61b3h
6163 6c        ld      l,h
6164 61        ld      h,c
6165 79        ld      a,c
6166 65        ld      h,l
6167 64        ld      h,h
6168 202e      jr      nz,6198h
616a 2e2e      ld      l,2eh
616c 2e20      ld      l,20h
616e 24        inc     h
616f 2053      jr      nz,61c4h
6171 54        ld      d,h
6172 34        inc     (hl)
6173 209c      jr      nz,6111h
6175 33        inc     sp
6176 3030      jr      nc,61a8h
6178 3020      jr      nc,619ah
617a 24        inc     h
617b 2053      jr      nz,61d0h
617d 54        ld      d,h
617e 33        inc     sp
617f 2020      jr      nz,61a1h
6181 9c        sbc     a,h
6182 33        inc     sp
6183 3030      jr      nc,61b5h
6185 2024      jr      nz,61abh
6187 2053      jr      nz,61dch
6189 54        ld      d,h
618a 322020    ld      (2020h),a
618d 209c      jr      nz,612bh
618f 33        inc     sp
6190 3020      jr      nc,61b2h
6192 24        inc     h
6193 2053      jr      nz,61e8h
6195 54        ld      d,h
6196 312020    ld      sp,2020h
6199 209c      jr      nz,6137h
619b 313020    ld      sp,2030h
619e 24        inc     h
619f 54        ld      d,h
61a0 6f        ld      l,a
61a1 74        ld      (hl),h
61a2 61        ld      h,c
61a3 6c        ld      l,h
61a4 206e      jr      nz,6214h
61a6 6f        ld      l,a
61a7 2053      jr      nz,61fch
61a9 79        ld      a,c
61aa 6e        ld      l,(hl)
61ab 64        ld      h,h
61ac 69        ld      l,c
61ad 63        ld      h,e
61ae 2d        dec     l
61af 313020    ld      sp,2030h
61b2 4d        ld      c,l
61b3 61        ld      h,c
61b4 74        ld      (hl),h
61b5 63        ld      h,e
61b6 68        ld      l,b
61b7 2034      jr      nz,61edh
61b9 2077      jr      nz,6232h
61bb 69        ld      l,c
61bc 6e        ld      l,(hl)
61bd 6e        ld      l,(hl)
61be 65        ld      h,l
61bf 72        ld      (hl),d
61c0 73        ld      (hl),e
61c1 202e      jr      nz,61f1h
61c3 2e20      ld      l,20h
61c5 24        inc     h
61c6 54        ld      d,h
61c7 6f        ld      l,a
61c8 74        ld      (hl),h
61c9 61        ld      h,c
61ca 6c        ld      l,h
61cb 206e      jr      nz,623bh
61cd 6f        ld      l,a
61ce 2053      jr      nz,6223h
61d0 79        ld      a,c
61d1 6e        ld      l,(hl)
61d2 64        ld      h,h
61d3 69        ld      l,c
61d4 63        ld      h,e
61d5 2d        dec     l
61d6 313020    ld      sp,2030h
61d9 4d        ld      c,l
61da 61        ld      h,c
61db 74        ld      (hl),h
61dc 63        ld      h,e
61dd 68        ld      l,b
61de 2033      jr      nz,6213h
61e0 2077      jr      nz,6259h
61e2 69        ld      l,c
61e3 6e        ld      l,(hl)
61e4 6e        ld      l,(hl)
61e5 65        ld      h,l
61e6 72        ld      (hl),d
61e7 73        ld      (hl),e
61e8 202e      jr      nz,6218h
61ea 2e20      ld      l,20h
61ec 24        inc     h
61ed 54        ld      d,h
61ee 6f        ld      l,a
61ef 74        ld      (hl),h
61f0 61        ld      h,c
61f1 6c        ld      l,h
61f2 206e      jr      nz,6262h
61f4 6f        ld      l,a
61f5 2053      jr      nz,624ah
61f7 79        ld      a,c
61f8 6e        ld      l,(hl)
61f9 64        ld      h,h
61fa 69        ld      l,c
61fb 63        ld      h,e
61fc 2d        dec     l
61fd 313020    ld      sp,2030h
6200 4d        ld      c,l
6201 61        ld      h,c
6202 74        ld      (hl),h
6203 63        ld      h,e
6204 68        ld      l,b
6205 2032      jr      nz,6239h
6207 2077      jr      nz,6280h
6209 69        ld      l,c
620a 6e        ld      l,(hl)
620b 6e        ld      l,(hl)
620c 65        ld      h,l
620d 72        ld      (hl),d
620e 73        ld      (hl),e
620f 202e      jr      nz,623fh
6211 2e20      ld      l,20h
6213 24        inc     h
6214 54        ld      d,h
6215 6f        ld      l,a
6216 74        ld      (hl),h
6217 61        ld      h,c
6218 6c        ld      l,h
6219 206e      jr      nz,6289h
621b 6f        ld      l,a
621c 2053      jr      nz,6271h
621e 79        ld      a,c
621f 6e        ld      l,(hl)
6220 64        ld      h,h
6221 69        ld      l,c
6222 63        ld      h,e
6223 2d        dec     l
6224 313020    ld      sp,2030h
6227 42        ld      b,d
6228 6f        ld      l,a
6229 6e        ld      l,(hl)
622a 75        ld      (hl),l
622b 73        ld      (hl),e
622c 2031      jr      nz,625fh
622e 2077      jr      nz,62a7h
6230 69        ld      l,c
6231 6e        ld      l,(hl)
6232 6e        ld      l,(hl)
6233 65        ld      h,l
6234 72        ld      (hl),d
6235 73        ld      (hl),e
6236 202e      jr      nz,6266h
6238 2e20      ld      l,20h
623a 24        inc     h
623b 54        ld      d,h
623c 6f        ld      l,a
623d 74        ld      (hl),h
623e 61        ld      h,c
623f 6c        ld      l,h
6240 206e      jr      nz,62b0h
6242 6f        ld      l,a
6243 2053      jr      nz,6298h
6245 79        ld      a,c
6246 6e        ld      l,(hl)
6247 64        ld      h,h
6248 69        ld      l,c
6249 63        ld      h,e
624a 2d        dec     l
624b 313020    ld      sp,2030h
624e 4c        ld      c,h
624f 6f        ld      l,a
6250 73        ld      (hl),e
6251 65        ld      h,l
6252 72        ld      (hl),d
6253 73        ld      (hl),e
6254 202e      jr      nz,6284h
6256 2e2e      ld      l,2eh
6258 2e2e      ld      l,2eh
625a 2e2e      ld      l,2eh
625c 2e2e      ld      l,2eh
625e 2e2e      ld      l,2eh
6260 2024      jr      nz,6286h
6262 53        ld      d,e
6263 79        ld      a,c
6264 6e        ld      l,(hl)
6265 64        ld      h,h
6266 69        ld      l,c
6267 63        ld      h,e
6268 61        ld      h,c
6269 74        ld      (hl),h
626a 65        ld      h,l
626b 2030      jr      nz,629dh
626d 35        dec     (hl)
626e 2043      jr      nz,62b3h
6270 6f        ld      l,a
6271 6d        ld      l,l
6272 62        ld      h,d
6273 69        ld      l,c
6274 6e        ld      l,(hl)
6275 61        ld      h,c
6276 74        ld      (hl),h
6277 69        ld      l,c
6278 6f        ld      l,a
6279 6e        ld      l,(hl)
627a 73        ld      (hl),e
627b 2050      jr      nz,62cdh
627d 6c        ld      l,h
627e 61        ld      h,c
627f 79        ld      a,c
6280 65        ld      h,l
6281 64        ld      h,h
6282 202e      jr      nz,62b2h
6284 2e2e      ld      l,2eh
6286 2e20      ld      l,20h
6288 24        inc     h
6289 2053      jr      nz,62deh
628b 46        ld      b,(hl)
628c 34        inc     (hl)
628d 209c      jr      nz,622bh
628f 313530    ld      sp,3035h
6292 3020      jr      nc,62b4h
6294 24        inc     h
6295 2053      jr      nz,62eah
6297 46        ld      b,(hl)
6298 33        inc     sp
6299 2020      jr      nz,62bbh
629b 9c        sbc     a,h
629c 313530    ld      sp,3035h
629f 2024      jr      nz,62c5h
62a1 2053      jr      nz,62f6h
62a3 46        ld      b,(hl)
62a4 322020    ld      (2020h),a
62a7 209c      jr      nz,6245h
62a9 313520    ld      sp,2035h
62ac 24        inc     h
62ad 2053      jr      nz,6302h
62af 46        ld      b,(hl)
62b0 312020    ld      sp,2020h
62b3 2020      jr      nz,62d5h
62b5 9c        sbc     a,h
62b6 35        dec     (hl)
62b7 2024      jr      nz,62ddh
62b9 54        ld      d,h
62ba 6f        ld      l,a
62bb 74        ld      (hl),h
62bc 61        ld      h,c
62bd 6c        ld      l,h
62be 206e      jr      nz,632eh
62c0 6f        ld      l,a
62c1 2053      jr      nz,6316h
62c3 79        ld      a,c
62c4 6e        ld      l,(hl)
62c5 64        ld      h,h
62c6 69        ld      l,c
62c7 63        ld      h,e
62c8 2d        dec     l
62c9 3035      jr      nc,6300h
62cb 204d      jr      nz,631ah
62cd 61        ld      h,c
62ce 74        ld      (hl),h
62cf 63        ld      h,e
62d0 68        ld      l,b
62d1 2034      jr      nz,6307h
62d3 2077      jr      nz,634ch
62d5 69        ld      l,c
62d6 6e        ld      l,(hl)
62d7 6e        ld      l,(hl)
62d8 65        ld      h,l
62d9 72        ld      (hl),d
62da 73        ld      (hl),e
62db 202e      jr      nz,630bh
62dd 2e20      ld      l,20h
62df 24        inc     h
62e0 54        ld      d,h
62e1 6f        ld      l,a
62e2 74        ld      (hl),h
62e3 61        ld      h,c
62e4 6c        ld      l,h
62e5 206e      jr      nz,6355h
62e7 6f        ld      l,a
62e8 2053      jr      nz,633dh
62ea 79        ld      a,c
62eb 6e        ld      l,(hl)
62ec 64        ld      h,h
62ed 69        ld      l,c
62ee 63        ld      h,e
62ef 2d        dec     l
62f0 3035      jr      nc,6327h
62f2 204d      jr      nz,6341h
62f4 61        ld      h,c
62f5 74        ld      (hl),h
62f6 63        ld      h,e
62f7 68        ld      l,b
62f8 2033      jr      nz,632dh
62fa 2077      jr      nz,6373h
62fc 69        ld      l,c
62fd 6e        ld      l,(hl)
62fe 6e        ld      l,(hl)
62ff 65        ld      h,l
6300 72        ld      (hl),d
6301 73        ld      (hl),e
6302 202e      jr      nz,6332h
6304 2e20      ld      l,20h
6306 24        inc     h
6307 54        ld      d,h
6308 6f        ld      l,a
6309 74        ld      (hl),h
630a 61        ld      h,c
630b 6c        ld      l,h
630c 206e      jr      nz,637ch
630e 6f        ld      l,a
630f 2053      jr      nz,6364h
6311 79        ld      a,c
6312 6e        ld      l,(hl)
6313 64        ld      h,h
6314 69        ld      l,c
6315 63        ld      h,e
6316 2d        dec     l
6317 3035      jr      nc,634eh
6319 204d      jr      nz,6368h
631b 61        ld      h,c
631c 74        ld      (hl),h
631d 63        ld      h,e
631e 68        ld      l,b
631f 2032      jr      nz,6353h
6321 2077      jr      nz,639ah
6323 69        ld      l,c
6324 6e        ld      l,(hl)
6325 6e        ld      l,(hl)
6326 65        ld      h,l
6327 72        ld      (hl),d
6328 73        ld      (hl),e
6329 202e      jr      nz,6359h
632b 2e20      ld      l,20h
632d 24        inc     h
632e 54        ld      d,h
632f 6f        ld      l,a
6330 74        ld      (hl),h
6331 61        ld      h,c
6332 6c        ld      l,h
6333 206e      jr      nz,63a3h
6335 6f        ld      l,a
6336 2053      jr      nz,638bh
6338 79        ld      a,c
6339 6e        ld      l,(hl)
633a 64        ld      h,h
633b 69        ld      l,c
633c 63        ld      h,e
633d 2d        dec     l
633e 3035      jr      nc,6375h
6340 2042      jr      nz,6384h
6342 6f        ld      l,a
6343 6e        ld      l,(hl)
6344 75        ld      (hl),l
6345 73        ld      (hl),e
6346 2031      jr      nz,6379h
6348 2077      jr      nz,63c1h
634a 69        ld      l,c
634b 6e        ld      l,(hl)
634c 6e        ld      l,(hl)
634d 65        ld      h,l
634e 72        ld      (hl),d
634f 73        ld      (hl),e
6350 202e      jr      nz,6380h
6352 2e20      ld      l,20h
6354 24        inc     h
6355 54        ld      d,h
6356 6f        ld      l,a
6357 74        ld      (hl),h
6358 61        ld      h,c
6359 6c        ld      l,h
635a 206e      jr      nz,63cah
635c 6f        ld      l,a
635d 2053      jr      nz,63b2h
635f 79        ld      a,c
6360 6e        ld      l,(hl)
6361 64        ld      h,h
6362 69        ld      l,c
6363 63        ld      h,e
6364 2d        dec     l
6365 3035      jr      nc,639ch
6367 204c      jr      nz,63b5h
6369 6f        ld      l,a
636a 73        ld      (hl),e
636b 65        ld      h,l
636c 72        ld      (hl),d
636d 73        ld      (hl),e
636e 202e      jr      nz,639eh
6370 2e2e      ld      l,2eh
6372 2e2e      ld      l,2eh
6374 2e2e      ld      l,2eh
6376 2e2e      ld      l,2eh
6378 2e2e      ld      l,2eh
637a 2024      jr      nz,63a0h
637c 53        ld      d,e
637d 79        ld      a,c
637e 6e        ld      l,(hl)
637f 64        ld      h,h
6380 69        ld      l,c
6381 63        ld      h,e
6382 61        ld      h,c
6383 74        ld      (hl),h
6384 65        ld      h,l
6385 2030      jr      nz,63b7h
6387 312043    ld      sp,4320h
638a 6f        ld      l,a
638b 6d        ld      l,l
638c 62        ld      h,d
638d 69        ld      l,c
638e 6e        ld      l,(hl)
638f 61        ld      h,c
6390 74        ld      (hl),h
6391 69        ld      l,c
6392 6f        ld      l,a
6393 6e        ld      l,(hl)
6394 73        ld      (hl),e
6395 2050      jr      nz,63e7h
6397 6c        ld      l,h
6398 61        ld      h,c
6399 79        ld      a,c
639a 65        ld      h,l
639b 64        ld      h,h
639c 202e      jr      nz,63cch
639e 2e2e      ld      l,2eh
63a0 2e20      ld      l,20h
63a2 24        inc     h
63a3 2053      jr      nz,63f8h
63a5 55        ld      d,l
63a6 34        inc     (hl)
63a7 2020      jr      nz,63c9h
63a9 9c        sbc     a,h
63aa 33        inc     sp
63ab 3030      jr      nc,63ddh
63ad 2024      jr      nz,63d3h
63af 2053      jr      nz,6404h
63b1 55        ld      d,l
63b2 33        inc     sp
63b3 2020      jr      nz,63d5h
63b5 209c      jr      nz,6353h
63b7 33        inc     sp
63b8 3020      jr      nc,63dah
63ba 24        inc     h
63bb 2053      jr      nz,6410h
63bd 55        ld      d,l
63be 322020    ld      (2020h),a
63c1 2020      jr      nz,63e3h
63c3 9c        sbc     a,h
63c4 33        inc     sp
63c5 2024      jr      nz,63ebh
63c7 2053      jr      nz,641ch
63c9 55        ld      d,l
63ca 312020    ld      sp,2020h
63cd 2020      jr      nz,63efh
63cf 9c        sbc     a,h
63d0 312024    ld      sp,2420h
63d3 54        ld      d,h
63d4 6f        ld      l,a
63d5 74        ld      (hl),h
63d6 61        ld      h,c
63d7 6c        ld      l,h
63d8 206e      jr      nz,6448h
63da 6f        ld      l,a
63db 2053      jr      nz,6430h
63dd 79        ld      a,c
63de 6e        ld      l,(hl)
63df 64        ld      h,h
63e0 69        ld      l,c
63e1 63        ld      h,e
63e2 2d        dec     l
63e3 3031      jr      nc,6416h
63e5 204d      jr      nz,6434h
63e7 61        ld      h,c
63e8 74        ld      (hl),h
63e9 63        ld      h,e
63ea 68        ld      l,b
63eb 2034      jr      nz,6421h
63ed 2077      jr      nz,6466h
63ef 69        ld      l,c
63f0 6e        ld      l,(hl)
63f1 6e        ld      l,(hl)
63f2 65        ld      h,l
63f3 72        ld      (hl),d
63f4 73        ld      (hl),e
63f5 202e      jr      nz,6425h
63f7 2e20      ld      l,20h
63f9 24        inc     h
63fa 54        ld      d,h
63fb 6f        ld      l,a
63fc 74        ld      (hl),h
63fd 61        ld      h,c
63fe 6c        ld      l,h
63ff 206e      jr      nz,646fh
6401 6f        ld      l,a
6402 2053      jr      nz,6457h
6404 79        ld      a,c
6405 6e        ld      l,(hl)
6406 64        ld      h,h
6407 69        ld      l,c
6408 63        ld      h,e
6409 2d        dec     l
640a 3031      jr      nc,643dh
640c 204d      jr      nz,645bh
640e 61        ld      h,c
640f 74        ld      (hl),h
6410 63        ld      h,e
6411 68        ld      l,b
6412 2033      jr      nz,6447h
6414 2077      jr      nz,648dh
6416 69        ld      l,c
6417 6e        ld      l,(hl)
6418 6e        ld      l,(hl)
6419 65        ld      h,l
641a 72        ld      (hl),d
641b 73        ld      (hl),e
641c 202e      jr      nz,644ch
641e 2e20      ld      l,20h
6420 24        inc     h
6421 54        ld      d,h
6422 6f        ld      l,a
6423 74        ld      (hl),h
6424 61        ld      h,c
6425 6c        ld      l,h
6426 206e      jr      nz,6496h
6428 6f        ld      l,a
6429 2053      jr      nz,647eh
642b 79        ld      a,c
642c 6e        ld      l,(hl)
642d 64        ld      h,h
642e 69        ld      l,c
642f 63        ld      h,e
6430 2d        dec     l
6431 3031      jr      nc,6464h
6433 204d      jr      nz,6482h
6435 61        ld      h,c
6436 74        ld      (hl),h
6437 63        ld      h,e
6438 68        ld      l,b
6439 2032      jr      nz,646dh
643b 2077      jr      nz,64b4h
643d 69        ld      l,c
643e 6e        ld      l,(hl)
643f 6e        ld      l,(hl)
6440 65        ld      h,l
6441 72        ld      (hl),d
6442 73        ld      (hl),e
6443 202e      jr      nz,6473h
6445 2e20      ld      l,20h
6447 24        inc     h
6448 54        ld      d,h
6449 6f        ld      l,a
644a 74        ld      (hl),h
644b 61        ld      h,c
644c 6c        ld      l,h
644d 206e      jr      nz,64bdh
644f 6f        ld      l,a
6450 2053      jr      nz,64a5h
6452 79        ld      a,c
6453 6e        ld      l,(hl)
6454 64        ld      h,h
6455 69        ld      l,c
6456 63        ld      h,e
6457 2d        dec     l
6458 3031      jr      nc,648bh
645a 2042      jr      nz,649eh
645c 6f        ld      l,a
645d 6e        ld      l,(hl)
645e 75        ld      (hl),l
645f 73        ld      (hl),e
6460 2031      jr      nz,6493h
6462 2077      jr      nz,64dbh
6464 69        ld      l,c
6465 6e        ld      l,(hl)
6466 6e        ld      l,(hl)
6467 65        ld      h,l
6468 72        ld      (hl),d
6469 73        ld      (hl),e
646a 202e      jr      nz,649ah
646c 2e20      ld      l,20h
646e 24        inc     h
646f 54        ld      d,h
6470 6f        ld      l,a
6471 74        ld      (hl),h
6472 61        ld      h,c
6473 6c        ld      l,h
6474 206e      jr      nz,64e4h
6476 6f        ld      l,a
6477 2053      jr      nz,64cch
6479 79        ld      a,c
647a 6e        ld      l,(hl)
647b 64        ld      h,h
647c 69        ld      l,c
647d 63        ld      h,e
647e 2d        dec     l
647f 3031      jr      nc,64b2h
6481 204c      jr      nz,64cfh
6483 6f        ld      l,a
6484 73        ld      (hl),e
6485 65        ld      h,l
6486 72        ld      (hl),d
6487 73        ld      (hl),e
6488 202e      jr      nz,64b8h
648a 2e2e      ld      l,2eh
648c 2e2e      ld      l,2eh
648e 2e2e      ld      l,2eh
6490 2e2e      ld      l,2eh
6492 2e2e      ld      l,2eh
6494 2024      jr      nz,64bah
6496 2d        dec     l
6497 2d        dec     l
6498 2d        dec     l
6499 2d        dec     l
649a 204c      jr      nz,64e8h
649c 4f        ld      c,a
649d 54        ld      d,h
649e 54        ld      d,h
649f 45        ld      b,l
64a0 52        ld      d,d
64a1 59        ld      e,c
64a2 2054      jr      nz,64f8h
64a4 52        ld      d,d
64a5 41        ld      b,c
64a6 4e        ld      c,(hl)
64a7 53        ld      d,e
64a8 41        ld      b,c
64a9 43        ld      b,e
64aa 54        ld      d,h
64ab 49        ld      c,c
64ac 4f        ld      c,a
64ad 4e        ld      c,(hl)
64ae 2050      jr      nz,6500h
64b0 52        ld      d,d
64b1 49        ld      c,c
64b2 4e        ld      c,(hl)
64b3 54        ld      d,h
64b4 4f        ld      c,a
64b5 55        ld      d,l
64b6 54        ld      d,h
64b7 2045      jr      nz,64feh
64b9 4e        ld      c,(hl)
64ba 44        ld      b,h
64bb 202d      jr      nz,64eah
64bd 2d        dec     l
64be 2d        dec     l
64bf 2d        dec     l
64c0 0d        dec     c
64c1 0a        ld      a,(bc)
64c2 24        inc     h
64c3 2020      jr      nz,64e5h
64c5 2020      jr      nz,64e7h
64c7 1b        dec     de
64c8 2d        dec     l
64c9 325745    ld      (4557h),a
64cc 44        ld      b,h
64cd 4e        ld      c,(hl)
64ce 45        ld      b,l
64cf 53        ld      d,e
64d0 44        ld      b,h
64d1 41        ld      b,c
64d2 59        ld      e,c
64d3 2053      jr      nz,6528h
64d5 55        ld      d,l
64d6 4d        ld      c,l
64d7 4d        ld      c,l
64d8 41        ld      b,c
64d9 52        ld      d,d
64da 59        ld      e,c
64db 2042      jr      nz,651fh
64dd 43        ld      b,e
64de 4c        ld      c,h
64df 3032      jr      nc,6513h
64e1 2053      jr      nz,6536h
64e3 49        ld      c,c
64e4 54        ld      d,h
64e5 45        ld      b,l
64e6 2024      jr      nz,650ch
64e8 1b        dec     de
64e9 2d        dec     l
64ea 3020      jr      nc,650ch
64ec 2020      jr      nz,650eh
64ee 2020      jr      nz,6510h
64f0 0d        dec     c
64f1 0a        ld      a,(bc)
64f2 24        inc     h
64f3 0d        dec     c
64f4 0a        ld      a,(bc)
64f5 24        inc     h
64f6 2020      jr      nz,6518h
64f8 2020      jr      nz,651ah
64fa 2d        dec     l
64fb 2d        dec     l
64fc 2d        dec     l
64fd 2d        dec     l
64fe 2d        dec     l
64ff 2d        dec     l
6500 2d        dec     l
6501 2046      jr      nz,6549h
6503 6f        ld      l,a
6504 72        ld      (hl),d
6505 2044      jr      nz,654bh
6507 72        ld      (hl),d
6508 61        ld      h,c
6509 77        ld      (hl),a
650a 2024      jr      nz,6530h
650c 202d      jr      nz,653bh
650e 2d        dec     l
650f 2d        dec     l
6510 2d        dec     l
6511 2d        dec     l
6512 2d        dec     l
6513 2d        dec     l
6514 0d        dec     c
6515 0a        ld      a,(bc)
6516 24        inc     h
6517 2020      jr      nz,6539h
6519 2020      jr      nz,653bh
651b 2020      jr      nz,653dh
651d 2020      jr      nz,653fh
651f 2020      jr      nz,6541h
6521 2020      jr      nz,6543h
6523 2020      jr      nz,6545h
6525 2020      jr      nz,6547h
6527 2020      jr      nz,6549h
6529 2020      jr      nz,654bh
652b 2020      jr      nz,654dh
652d 2020      jr      nz,654fh
652f 2020      jr      nz,6551h
6531 2020      jr      nz,6553h
6533 2020      jr      nz,6555h
6535 2020      jr      nz,6557h
6537 2050      jr      nz,6589h
6539 6f        ld      l,a
653a 75        ld      (hl),l
653b 6e        ld      l,(hl)
653c 64        ld      h,h
653d 73        ld      (hl),e
653e 0d        dec     c
653f 0a        ld      a,(bc)
6540 24        inc     h
6541 2020      jr      nz,6563h
6543 2020      jr      nz,6565h
6545 2020      jr      nz,6567h
6547 2020      jr      nz,6569h
6549 2020      jr      nz,656bh
654b 2020      jr      nz,656dh
654d 2020      jr      nz,656fh
654f 2020      jr      nz,6571h
6551 2053      jr      nz,65a6h
6553 61        ld      h,c
6554 6c        ld      l,h
6555 65        ld      h,l
6556 73        ld      (hl),e
6557 2028      jr      nz,6581h
6559 57        ld      d,a
655a 65        ld      h,l
655b 64        ld      h,h
655c 29        add     hl,hl
655d 2024      jr      nz,6583h
655f 43        ld      b,e
6560 2f        cpl     
6561 46        ld      b,(hl)
6562 2024      jr      nz,6588h
6564 42        ld      b,d
6565 2f        cpl     
6566 46        ld      b,(hl)
6567 2024      jr      nz,658dh
6569 2044      jr      nz,65afh
656b 2020      jr      nz,658dh
656d 200d      jr      nz,657ch
656f 0a        ld      a,(bc)
6570 24        inc     h
6571 2020      jr      nz,6593h
6573 2020      jr      nz,6595h
6575 2020      jr      nz,6597h
6577 2020      jr      nz,6599h
6579 2020      jr      nz,659bh
657b 2020      jr      nz,659dh
657d 43        ld      b,e
657e 6f        ld      l,a
657f 6d        ld      l,l
6580 6d        ld      l,l
6581 69        ld      l,c
6582 73        ld      (hl),e
6583 73        ld      (hl),e
6584 69        ld      l,c
6585 6f        ld      l,a
6586 6e        ld      l,(hl)
6587 2028      jr      nz,65b1h
6589 57        ld      d,a
658a 65        ld      h,l
658b 64        ld      h,h
658c 29        add     hl,hl
658d 2024      jr      nz,65b3h
658f 2043      jr      nz,65d4h
6591 2020      jr      nz,65b3h
6593 200d      jr      nz,65a2h
6595 0a        ld      a,(bc)
6596 24        inc     h
6597 2020      jr      nz,65b9h
6599 2020      jr      nz,65bbh
659b 2020      jr      nz,65bdh
659d 50        ld      d,b
659e 72        ld      (hl),d
659f 69        ld      l,c
65a0 7a        ld      a,d
65a1 65        ld      h,l
65a2 73        ld      (hl),e
65a3 2042      jr      nz,65e7h
65a5 65        ld      h,l
65a6 6c        ld      l,h
65a7 6f        ld      l,a
65a8 77        ld      (hl),a
65a9 2031      jr      nz,65dch
65ab 35        dec     (hl)
65ac 3020      jr      nc,65ceh
65ae 2857      jr      z,6607h
65b0 65        ld      h,l
65b1 64        ld      h,h
65b2 29        add     hl,hl
65b3 2024      jr      nz,65d9h
65b5 2020      jr      nz,65d7h
65b7 2020      jr      nz,65d9h
65b9 2020      jr      nz,65dbh
65bb 2020      jr      nz,65ddh
65bd 2020      jr      nz,65dfh
65bf 2020      jr      nz,65e1h
65c1 2020      jr      nz,65e3h
65c3 2020      jr      nz,65e5h
65c5 2020      jr      nz,65e7h
65c7 2020      jr      nz,65e9h
65c9 2020      jr      nz,65ebh
65cb 2020      jr      nz,65edh
65cd 2020      jr      nz,65efh
65cf 2020      jr      nz,65f1h
65d1 2020      jr      nz,65f3h
65d3 2020      jr      nz,65f5h
65d5 202d      jr      nz,6604h
65d7 2d        dec     l
65d8 2d        dec     l
65d9 2d        dec     l
65da 2020      jr      nz,65fch
65dc 2020      jr      nz,65feh
65de 200d      jr      nz,65edh
65e0 0a        ld      a,(bc)
65e1 24        inc     h
65e2 2020      jr      nz,6604h
65e4 2020      jr      nz,6606h
65e6 2020      jr      nz,6608h
65e8 2020      jr      nz,660ah
65ea 2020      jr      nz,660ch
65ec 2020      jr      nz,660eh
65ee 2020      jr      nz,6610h
65f0 2020      jr      nz,6612h
65f2 2020      jr      nz,6614h
65f4 2042      jr      nz,6638h
65f6 61        ld      h,c
65f7 6c        ld      l,h
65f8 61        ld      h,c
65f9 6e        ld      l,(hl)
65fa 63        ld      h,e
65fb 65        ld      h,l
65fc 2028      jr      nz,6626h
65fe 57        ld      d,a
65ff 65        ld      h,l
6600 64        ld      h,h
6601 29        add     hl,hl
6602 2024      jr      nz,6628h
6604 2020      jr      nz,6626h
6606 2028      jr      nz,6630h
6608 54        ld      d,h
6609 68        ld      l,b
660a 65        ld      h,l
660b 2061      jr      nz,666eh
660d 62        ld      h,d
660e 6f        ld      l,a
660f 76        halt    
6610 65        ld      h,l
6611 2066      jr      nz,6679h
6613 69        ld      l,c
6614 67        ld      h,a
6615 75        ld      (hl),l
6616 72        ld      (hl),d
6617 65        ld      h,l
6618 73        ld      (hl),e
6619 2077      jr      nz,6692h
661b 69        ld      l,c
661c 6c        ld      l,h
661d 6c        ld      l,h
661e 2062      jr      nz,6682h
6620 65        ld      h,l
6621 2073      jr      nz,6696h
6623 61        ld      h,c
6624 76        halt    
6625 65        ld      h,l
6626 64        ld      h,h
6627 2061      jr      nz,668ah
6629 6e        ld      l,(hl)
662a 64        ld      h,h
662b 2020      jr      nz,664dh
662d 200d      jr      nz,663ch
662f 0a        ld      a,(bc)
6630 24        inc     h
6631 2020      jr      nz,6653h
6633 2020      jr      nz,6655h
6635 63        ld      h,e
6636 61        ld      h,c
6637 72        ld      (hl),d
6638 72        ld      (hl),d
6639 69        ld      l,c
663a 65        ld      h,l
663b 64        ld      h,h
663c 2066      jr      nz,66a4h
663e 6f        ld      l,a
663f 72        ld      (hl),d
6640 77        ld      (hl),a
6641 61        ld      h,c
6642 72        ld      (hl),d
6643 64        ld      h,h
6644 2074      jr      nz,66bah
6646 6f        ld      l,a
6647 2074      jr      nz,66bdh
6649 68        ld      l,b
664a 65        ld      h,l
664b 2052      jr      nz,669fh
664d 65        ld      h,l
664e 6d        ld      l,l
664f 69        ld      l,c
6650 74        ld      (hl),h
6651 74        ld      (hl),h
6652 61        ld      h,c
6653 6e        ld      l,(hl)
6654 63        ld      h,e
6655 65        ld      h,l
6656 2020      jr      nz,6678h
6658 2020      jr      nz,667ah
665a 200d      jr      nz,6669h
665c 0a        ld      a,(bc)
665d 24        inc     h
665e 2020      jr      nz,6680h
6660 2020      jr      nz,6682h
6662 61        ld      h,c
6663 64        ld      h,h
6664 76        halt    
6665 69        ld      l,c
6666 63        ld      h,e
6667 65        ld      h,l
6668 2074      jr      nz,66deh
666a 6f        ld      l,a
666b 2062      jr      nz,66cfh
666d 65        ld      h,l
666e 2070      jr      nz,66e0h
6670 72        ld      (hl),d
6671 69        ld      l,c
6672 6e        ld      l,(hl)
6673 74        ld      (hl),h
6674 65        ld      h,l
6675 64        ld      h,h
6676 206e      jr      nz,66e6h
6678 65        ld      h,l
6679 78        ld      a,b
667a 74        ld      (hl),h
667b 2053      jr      nz,66d0h
667d 61        ld      h,c
667e 74        ld      (hl),h
667f 75        ld      (hl),l
6680 72        ld      (hl),d
6681 64        ld      h,h
6682 61        ld      h,c
6683 79        ld      a,c
6684 29        add     hl,hl
6685 2020      jr      nz,66a7h
6687 200d      jr      nz,6696h
6689 0a        ld      a,(bc)
668a 24        inc     h
668b 2020      jr      nz,66adh
668d 2020      jr      nz,66afh
668f 1b        dec     de
6690 2d        dec     l
6691 325341    ld      (4153h),a
6694 54        ld      d,h
6695 55        ld      d,l
6696 52        ld      d,d
6697 44        ld      b,h
6698 41        ld      b,c
6699 59        ld      e,c
669a 2053      jr      nz,66efh
669c 55        ld      d,l
669d 4d        ld      c,l
669e 4d        ld      c,l
669f 41        ld      b,c
66a0 52        ld      d,d
66a1 59        ld      e,c
66a2 2020      jr      nz,66c4h
66a4 42        ld      b,d
66a5 43        ld      b,e
66a6 4c        ld      c,h
66a7 3032      jr      nc,66dbh
66a9 2053      jr      nz,66feh
66ab 49        ld      c,c
66ac 54        ld      d,h
66ad 45        ld      b,l
66ae 2024      jr      nz,66d4h
66b0 2020      jr      nz,66d2h
66b2 2020      jr      nz,66d4h
66b4 2020      jr      nz,66d6h
66b6 2020      jr      nz,66d8h
66b8 2020      jr      nz,66dah
66ba 2020      jr      nz,66dch
66bc 2020      jr      nz,66deh
66be 2020      jr      nz,66e0h
66c0 2053      jr      nz,6715h
66c2 61        ld      h,c
66c3 6c        ld      l,h
66c4 65        ld      h,l
66c5 73        ld      (hl),e
66c6 2028      jr      nz,66f0h
66c8 53        ld      d,e
66c9 61        ld      h,c
66ca 74        ld      (hl),h
66cb 29        add     hl,hl
66cc 2024      jr      nz,66f2h
66ce 2020      jr      nz,66f0h
66d0 2020      jr      nz,66f2h
66d2 2020      jr      nz,66f4h
66d4 2020      jr      nz,66f6h
66d6 2020      jr      nz,66f8h
66d8 2020      jr      nz,66fah
66da 43        ld      b,e
66db 6f        ld      l,a
66dc 6d        ld      l,l
66dd 6d        ld      l,l
66de 69        ld      l,c
66df 73        ld      (hl),e
66e0 73        ld      (hl),e
66e1 69        ld      l,c
66e2 6f        ld      l,a
66e3 6e        ld      l,(hl)
66e4 2028      jr      nz,670eh
66e6 53        ld      d,e
66e7 61        ld      h,c
66e8 74        ld      (hl),h
66e9 29        add     hl,hl
66ea 2024      jr      nz,6710h
66ec 2020      jr      nz,670eh
66ee 2020      jr      nz,6710h
66f0 2020      jr      nz,6712h
66f2 50        ld      d,b
66f3 72        ld      (hl),d
66f4 69        ld      l,c
66f5 7a        ld      a,d
66f6 65        ld      h,l
66f7 73        ld      (hl),e
66f8 2042      jr      nz,673ch
66fa 65        ld      h,l
66fb 6c        ld      l,h
66fc 6f        ld      l,a
66fd 77        ld      (hl),a
66fe 2031      jr      nz,6731h
6700 35        dec     (hl)
6701 3020      jr      nc,6723h
6703 2853      jr      z,6758h
6705 61        ld      h,c
6706 74        ld      (hl),h
6707 29        add     hl,hl
6708 2024      jr      nz,672eh
670a 2020      jr      nz,672ch
670c 2020      jr      nz,672eh
670e 2020      jr      nz,6730h
6710 2020      jr      nz,6732h
6712 2020      jr      nz,6734h
6714 2020      jr      nz,6736h
6716 2020      jr      nz,6738h
6718 2020      jr      nz,673ah
671a 2020      jr      nz,673ch
671c 2042      jr      nz,6760h
671e 61        ld      h,c
671f 6c        ld      l,h
6720 61        ld      h,c
6721 6e        ld      l,(hl)
6722 63        ld      h,e
6723 65        ld      h,l
6724 2028      jr      nz,674eh
6726 53        ld      d,e
6727 61        ld      h,c
6728 74        ld      (hl),h
6729 29        add     hl,hl
672a 2024      jr      nz,6750h
672c 2020      jr      nz,674eh
672e 2020      jr      nz,6750h
6730 1b        dec     de
6731 2d        dec     l
6732 325245    ld      (4552h),a
6735 4d        ld      c,l
6736 49        ld      c,c
6737 54        ld      d,h
6738 54        ld      d,h
6739 41        ld      b,c
673a 4e        ld      c,(hl)
673b 43        ld      b,e
673c 45        ld      b,l
673d 2041      jr      nz,6780h
673f 44        ld      b,h
6740 56        ld      d,(hl)
6741 49        ld      c,c
6742 43        ld      b,e
6743 45        ld      b,l
6744 2042      jr      nz,6788h
6746 43        ld      b,e
6747 4c        ld      c,h
6748 3032      jr      nc,677ch
674a 2053      jr      nz,679fh
674c 49        ld      c,c
674d 54        ld      d,h
674e 45        ld      b,l
674f 2024      jr      nz,6775h
6751 2020      jr      nz,6773h
6753 2020      jr      nz,6775h
6755 2d        dec     l
6756 2d        dec     l
6757 2d        dec     l
6758 2d        dec     l
6759 2d        dec     l
675a 2046      jr      nz,67a2h
675c 6f        ld      l,a
675d 72        ld      (hl),d
675e 2057      jr      nz,67b7h
6760 65        ld      h,l
6761 65        ld      h,l
6762 6b        ld      l,e
6763 2045      jr      nz,67aah
6765 6e        ld      l,(hl)
6766 64        ld      h,h
6767 2024      jr      nz,678dh
6769 202d      jr      nz,6798h
676b 2d        dec     l
676c 2d        dec     l
676d 2d        dec     l
676e 2d        dec     l
676f 0d        dec     c
6770 0a        ld      a,(bc)
6771 24        inc     h
6772 2020      jr      nz,6794h
6774 2020      jr      nz,6796h
6776 2020      jr      nz,6798h
6778 2020      jr      nz,679ah
677a 2020      jr      nz,679ch
677c 2020      jr      nz,679eh
677e 2020      jr      nz,67a0h
6780 2020      jr      nz,67a2h
6782 2020      jr      nz,67a4h
6784 42        ld      b,d
6785 61        ld      h,c
6786 6c        ld      l,h
6787 61        ld      h,c
6788 6e        ld      l,(hl)
6789 63        ld      h,e
678a 65        ld      h,l
678b 2028      jr      nz,67b5h
678d 57        ld      d,a
678e 65        ld      h,l
678f 65        ld      h,l
6790 6b        ld      l,e
6791 29        add     hl,hl
6792 2024      jr      nz,67b8h
6794 2020      jr      nz,67b6h
6796 2020      jr      nz,67b8h
6798 2020      jr      nz,67bah
679a 2020      jr      nz,67bch
679c 2020      jr      nz,67beh
679e 52        ld      d,d
679f 65        ld      h,l
67a0 63        ld      h,e
67a1 65        ld      h,l
67a2 69        ld      l,c
67a3 76        halt    
67a4 65        ld      h,l
67a5 2074      jr      nz,681bh
67a7 68        ld      l,b
67a8 65        ld      h,l
67a9 2073      jr      nz,681eh
67ab 75        ld      (hl),l
67ac 6d        ld      l,l
67ad 206f      jr      nz,681eh
67af 77        ld      (hl),a
67b0 69        ld      l,c
67b1 6e        ld      l,(hl)
67b2 67        ld      h,a
67b3 2020      jr      nz,67d5h
67b5 2020      jr      nz,67d7h
67b7 2020      jr      nz,67d9h
67b9 2020      jr      nz,67dbh
67bb 2020      jr      nz,67ddh
67bd 200d      jr      nz,67cch
67bf 0a        ld      a,(bc)
67c0 24        inc     h
67c1 2020      jr      nz,67e3h
67c3 2020      jr      nz,67e5h
67c5 2020      jr      nz,67e7h
67c7 66        ld      h,(hl)
67c8 72        ld      (hl),d
67c9 6f        ld      l,a
67ca 6d        ld      l,l
67cb 2042      jr      nz,680fh
67cd 69        ld      l,c
67ce 67        ld      h,a
67cf 2043      jr      nz,6814h
67d1 68        ld      l,b
67d2 61        ld      h,c
67d3 6e        ld      l,(hl)
67d4 63        ld      h,e
67d5 65        ld      h,l
67d6 2077      jr      nz,684fh
67d8 69        ld      l,c
67d9 74        ld      (hl),h
67da 68        ld      l,b
67db 69        ld      l,c
67dc 6e        ld      l,(hl)
67dd 2037      jr      nz,6816h
67df 2064      jr      nz,6845h
67e1 61        ld      h,c
67e2 79        ld      a,c
67e3 73        ld      (hl),e
67e4 2020      jr      nz,6806h
67e6 2020      jr      nz,6808h
67e8 2020      jr      nz,680ah
67ea 200d      jr      nz,67f9h
67ec 0a        ld      a,(bc)
67ed 24        inc     h
67ee 2020      jr      nz,6810h
67f0 2020      jr      nz,6812h
67f2 2020      jr      nz,6814h
67f4 2050      jr      nz,6846h
67f6 61        ld      h,c
67f7 79        ld      a,c
67f8 2074      jr      nz,686eh
67fa 68        ld      l,b
67fb 65        ld      h,l
67fc 2061      jr      nz,685fh
67fe 6d        ld      l,l
67ff 6f        ld      l,a
6800 75        ld      (hl),l
6801 6e        ld      l,(hl)
6802 74        ld      (hl),h
6803 2064      jr      nz,6869h
6805 75        ld      (hl),l
6806 65        ld      h,l
6807 2069      jr      nz,6872h
6809 6e        ld      l,(hl)
680a 74        ld      (hl),h
680b 6f        ld      l,a
680c 2074      jr      nz,6882h
680e 68        ld      l,b
680f 65        ld      h,l
6810 2020      jr      nz,6832h
6812 2020      jr      nz,6834h
6814 2020      jr      nz,6836h
6816 2020      jr      nz,6838h
6818 0d        dec     c
6819 0a        ld      a,(bc)
681a 24        inc     h
681b 2020      jr      nz,683dh
681d 42        ld      b,d
681e 69        ld      l,c
681f 67        ld      h,a
6820 2043      jr      nz,6865h
6822 68        ld      l,b
6823 61        ld      h,c
6824 6e        ld      l,(hl)
6825 63        ld      h,e
6826 65        ld      h,l
6827 204c      jr      nz,6875h
6829 6f        ld      l,a
682a 74        ld      (hl),h
682b 74        ld      (hl),h
682c 65        ld      h,l
682d 72        ld      (hl),d
682e 79        ld      a,c
682f 2042      jr      nz,6873h
6831 61        ld      h,c
6832 6e        ld      l,(hl)
6833 6b        ld      l,e
6834 2077      jr      nz,68adh
6836 69        ld      l,c
6837 74        ld      (hl),h
6838 68        ld      l,b
6839 69        ld      l,c
683a 6e        ld      l,(hl)
683b 2037      jr      nz,6874h
683d 2064      jr      nz,68a3h
683f 61        ld      h,c
6840 79        ld      a,c
6841 73        ld      (hl),e
6842 2020      jr      nz,6864h
6844 200d      jr      nz,6853h
6846 0a        ld      a,(bc)
6847 24        inc     h
6848 2020      jr      nz,686ah
684a 204d      jr      nz,6899h
684c 65        ld      h,l
684d 73        ld      (hl),e
684e 73        ld      (hl),e
684f 61        ld      h,c
6850 67        ld      h,a
6851 65        ld      h,l
6852 2074      jr      nz,68c8h
6854 6f        ld      l,a
6855 2041      jr      nz,6898h
6857 67        ld      h,a
6858 65        ld      h,l
6859 6e        ld      l,(hl)
685a 74        ld      (hl),h
685b 2020      jr      nz,687dh
685d 200d      jr      nz,686ch
685f 0a        ld      a,(bc)
6860 24        inc     h
6861 24        inc     h
6862 0d        dec     c
6863 0a        ld      a,(bc)
6864 24        inc     h
6865 24        inc     h
6866 24        inc     h
6867 24        inc     h
6868 24        inc     h
6869 24        inc     h
686a 2e20      ld      l,20h
686c 202e      jr      nz,689ch
686e 2020      jr      nz,6890h
6870 2e20      ld      l,20h
6872 202e      jr      nz,68a2h
6874 2020      jr      nz,6896h
6876 2e20      ld      l,20h
6878 202e      jr      nz,68a8h
687a 2020      jr      nz,689ch
687c 2e20      ld      l,20h
687e 202e      jr      nz,68aeh
6880 2020      jr      nz,68a2h
6882 2e20      ld      l,20h
6884 202e      jr      nz,68b4h
6886 2020      jr      nz,68a8h
6888 2e20      ld      l,20h
688a 202e      jr      nz,68bah
688c 2020      jr      nz,68aeh
688e 2e20      ld      l,20h
6890 202e      jr      nz,68c0h
6892 2020      jr      nz,68b4h
6894 2e0d      ld      l,0dh
6896 0a        ld      a,(bc)
6897 24        inc     h
6898 2e20      ld      l,20h
689a 4e        ld      c,(hl)
689b 6f        ld      l,a
689c 74        ld      (hl),h
689d 65        ld      h,l
689e 3a2043    ld      a,(4320h)
68a1 61        ld      h,c
68a2 6c        ld      l,h
68a3 63        ld      h,e
68a4 75        ld      (hl),l
68a5 6c        ld      l,h
68a6 61        ld      h,c
68a7 74        ld      (hl),h
68a8 69        ld      l,c
68a9 6f        ld      l,a
68aa 6e        ld      l,(hl)
68ab 73        ld      (hl),e
68ac 206f      jr      nz,691dh
68ae 66        ld      h,(hl)
68af 2063      jr      nz,6914h
68b1 75        ld      (hl),l
68b2 72        ld      (hl),d
68b3 72        ld      (hl),d
68b4 65        ld      h,l
68b5 6e        ld      l,(hl)
68b6 63        ld      h,e
68b7 79        ld      a,c
68b8 2061      jr      nz,691bh
68ba 6d        ld      l,l
68bb 6f        ld      l,a
68bc 75        ld      (hl),l
68bd 6e        ld      l,(hl)
68be 74        ld      (hl),h
68bf 73        ld      (hl),e
68c0 3a202e    ld      a,(2e20h)
68c3 0d        dec     c
68c4 0a        ld      a,(bc)
68c5 24        inc     h
68c6 2e20      ld      l,20h
68c8 44        ld      b,h
68c9 65        ld      h,l
68ca 63        ld      h,e
68cb 69        ld      l,c
68cc 6d        ld      l,l
68cd 61        ld      h,c
68ce 6c        ld      l,h
68cf 73        ld      (hl),e
68d0 202e      jr      nz,6900h
68d2 35        dec     (hl)
68d3 3020      jr      nc,68f5h
68d5 61        ld      h,c
68d6 6e        ld      l,(hl)
68d7 64        ld      h,h
68d8 2061      jr      nz,693bh
68da 62        ld      h,d
68db 6f        ld      l,a
68dc 76        halt    
68dd 65        ld      h,l
68de 2061      jr      nz,6941h
68e0 72        ld      (hl),d
68e1 65        ld      h,l
68e2 2072      jr      nz,6956h
68e4 6f        ld      l,a
68e5 75        ld      (hl),l
68e6 6e        ld      l,(hl)
68e7 64        ld      h,h
68e8 65        ld      h,l
68e9 64        ld      h,h
68ea 2075      jr      nz,6961h
68ec 70        ld      (hl),b
68ed 2020      jr      nz,690fh
68ef 202e      jr      nz,691fh
68f1 0d        dec     c
68f2 0a        ld      a,(bc)
68f3 24        inc     h
68f4 2e20      ld      l,20h
68f6 44        ld      b,h
68f7 65        ld      h,l
68f8 63        ld      h,e
68f9 69        ld      l,c
68fa 6d        ld      l,l
68fb 61        ld      h,c
68fc 6c        ld      l,h
68fd 73        ld      (hl),e
68fe 2062      jr      nz,6962h
6900 65        ld      h,l
6901 6c        ld      l,h
6902 6f        ld      l,a
6903 77        ld      (hl),a
6904 202e      jr      nz,6934h
6906 35        dec     (hl)
6907 3020      jr      nc,6929h
6909 61        ld      h,c
690a 72        ld      (hl),d
690b 65        ld      h,l
690c 2072      jr      nz,6980h
690e 6f        ld      l,a
690f 75        ld      (hl),l
6910 6e        ld      l,(hl)
6911 64        ld      h,h
6912 65        ld      h,l
6913 64        ld      h,h
6914 2064      jr      nz,697ah
6916 6f        ld      l,a
6917 77        ld      (hl),a
6918 6e        ld      l,(hl)
6919 2020      jr      nz,693bh
691b 2020      jr      nz,693dh
691d 202e      jr      nz,694dh
691f 0d        dec     c
6920 0a        ld      a,(bc)
6921 24        inc     h
6922 2e28      ld      l,28h
6924 41        ld      b,c
6925 6c        ld      l,h
6926 6c        ld      l,h
6927 2072      jr      nz,699bh
6929 6f        ld      l,a
692a 75        ld      (hl),l
692b 6e        ld      l,(hl)
692c 64        ld      h,h
692d 65        ld      h,l
692e 64        ld      h,h
692f 2074      jr      nz,69a5h
6931 6f        ld      l,a
6932 2074      jr      nz,69a8h
6934 68        ld      l,b
6935 65        ld      h,l
6936 206e      jr      nz,69a6h
6938 65        ld      h,l
6939 61        ld      h,c
693a 72        ld      (hl),d
693b 65        ld      h,l
693c 73        ld      (hl),e
693d 74        ld      (hl),h
693e 2077      jr      nz,69b7h
6940 68        ld      l,b
6941 6f        ld      l,a
6942 6c        ld      l,h
6943 65        ld      h,l
6944 206e      jr      nz,69b4h
6946 75        ld      (hl),l
6947 6d        ld      l,l
6948 62        ld      h,d
6949 65        ld      h,l
694a 72        ld      (hl),d
694b 29        add     hl,hl
694c 2e0d      ld      l,0dh
694e 0a        ld      a,(bc)
694f 24        inc     h
6950 2e20      ld      l,20h
6952 202e      jr      nz,6982h
6954 2020      jr      nz,6976h
6956 2e20      ld      l,20h
6958 202e      jr      nz,6988h
695a 2020      jr      nz,697ch
695c 2e20      ld      l,20h
695e 202e      jr      nz,698eh
6960 2020      jr      nz,6982h
6962 2e20      ld      l,20h
6964 202e      jr      nz,6994h
6966 2020      jr      nz,6988h
6968 2e20      ld      l,20h
696a 202e      jr      nz,699ah
696c 2020      jr      nz,698eh
696e 2e20      ld      l,20h
6970 202e      jr      nz,69a0h
6972 2020      jr      nz,6994h
6974 2e20      ld      l,20h
6976 202e      jr      nz,69a6h
6978 2020      jr      nz,699ah
697a 2e0d      ld      l,0dh
697c 0a        ld      a,(bc)
697d 24        inc     h
697e 53        ld      d,e
697f 79        ld      a,c
6980 6e        ld      l,(hl)
6981 64        ld      h,h
6982 69        ld      l,c
6983 63        ld      h,e
6984 2d        dec     l
6985 313020    ld      sp,2030h
6988 43        ld      b,e
6989 6f        ld      l,a
698a 6d        ld      l,l
698b 62        ld      h,d
698c 69        ld      l,c
698d 6e        ld      l,(hl)
698e 61        ld      h,c
698f 74        ld      (hl),h
6990 69        ld      l,c
6991 6f        ld      l,a
6992 6e        ld      l,(hl)
6993 0d        dec     c
6994 0a        ld      a,(bc)
6995 24        inc     h
6996 53        ld      d,e
6997 79        ld      a,c
6998 6e        ld      l,(hl)
6999 64        ld      h,h
699a 69        ld      l,c
699b 63        ld      h,e
699c 2d        dec     l
699d 3035      jr      nc,69d4h
699f 2043      jr      nz,69e4h
69a1 6f        ld      l,a
69a2 6d        ld      l,l
69a3 62        ld      h,d
69a4 69        ld      l,c
69a5 6e        ld      l,(hl)
69a6 61        ld      h,c
69a7 74        ld      (hl),h
69a8 69        ld      l,c
69a9 6f        ld      l,a
69aa 6e        ld      l,(hl)
69ab 0d        dec     c
69ac 0a        ld      a,(bc)
69ad 24        inc     h
69ae 2020      jr      nz,69d0h
69b0 2053      jr      nz,6a05h
69b2 79        ld      a,c
69b3 6e        ld      l,(hl)
69b4 64        ld      h,h
69b5 69        ld      l,c
69b6 63        ld      h,e
69b7 61        ld      h,c
69b8 74        ld      (hl),h
69b9 65        ld      h,l
69ba 2054      jr      nz,6a10h
69bc 69        ld      l,c
69bd 63        ld      h,e
69be 6b        ld      l,e
69bf 65        ld      h,l
69c0 74        ld      (hl),h
69c1 2020      jr      nz,69e3h
69c3 0d        dec     c
69c4 0a        ld      a,(bc)
69c5 24        inc     h
69c6 4e        ld      c,(hl)
69c7 75        ld      (hl),l
69c8 6d        ld      l,l
69c9 62        ld      h,d
69ca 65        ld      h,l
69cb 72        ld      (hl),d
69cc 206f      jr      nz,6a3dh
69ce 66        ld      h,(hl)
69cf 204f      jr      nz,6a20h
69d1 6e        ld      l,(hl)
69d2 65        ld      h,l
69d3 2050      jr      nz,6a25h
69d5 6f        ld      l,a
69d6 75        ld      (hl),l
69d7 6e        ld      l,(hl)
69d8 64        ld      h,h
69d9 2045      jr      nz,6a20h
69db 6e        ld      l,(hl)
69dc 74        ld      (hl),h
69dd 72        ld      (hl),d
69de 69        ld      l,c
69df 65        ld      h,l
69e0 73        ld      (hl),e
69e1 3a2024    ld      a,(2420h)
69e4 54        ld      d,h
69e5 65        ld      h,l
69e6 6e        ld      l,(hl)
69e7 2024      jr      nz,6a0dh
69e9 46        ld      b,(hl)
69ea 69        ld      l,c
69eb 76        halt    
69ec 65        ld      h,l
69ed 24        inc     h
69ee 4f        ld      c,a
69ef 6e        ld      l,(hl)
69f0 65        ld      h,l
69f1 2024      jr      nz,6a17h
69f3 2e2e      ld      l,2eh
69f5 2e2e      ld      l,2eh
69f7 2e2e      ld      l,2eh
69f9 2e2e      ld      l,2eh
69fb 2e2e      ld      l,2eh
69fd 2e2e      ld      l,2eh
69ff 313024    ld      sp,2430h
6a02 2e2e      ld      l,2eh
6a04 2e2e      ld      l,2eh
6a06 2e2e      ld      l,2eh
6a08 2e2e      ld      l,2eh
6a0a 2e2e      ld      l,2eh
6a0c 2e2e      ld      l,2eh
6a0e 2e35      ld      l,35h
6a10 24        inc     h
6a11 2e2e      ld      l,2eh
6a13 2e2e      ld      l,2eh
6a15 2e2e      ld      l,2eh
6a17 2e2e      ld      l,2eh
6a19 2e2e      ld      l,2eh
6a1b 2e2e      ld      l,2eh
6a1d 2e31      ld      l,31h
6a1f 24        inc     h
6a20 2020      jr      nz,6a42h
6a22 2020      jr      nz,6a44h
6a24 2020      jr      nz,6a46h
6a26 2020      jr      nz,6a48h
6a28 2020      jr      nz,6a4ah
6a2a 2020      jr      nz,6a4ch
6a2c 2020      jr      nz,6a4eh
6a2e 2020      jr      nz,6a50h
6a30 2020      jr      nz,6a52h
6a32 2020      jr      nz,6a54h
6a34 24        inc     h
6a35 4c        ld      c,h
6a36 69        ld      l,c
6a37 6e        ld      l,(hl)
6a38 65        ld      h,l
6a39 73        ld      (hl),e
6a3a 2041      jr      nz,6a7dh
6a3c 2d        dec     l
6a3d 4b        ld      c,e
6a3e 3a200d    ld      a,(0d20h)
6a41 0a        ld      a,(bc)
6a42 24        inc     h
6a43 4f        ld      c,a
6a44 6e        ld      l,(hl)
6a45 6c        ld      l,h
6a46 79        ld      a,c
6a47 2074      jr      nz,6abdh
6a49 68        ld      l,b
6a4a 65        ld      h,l
6a4b 2036      jr      nz,6a83h
6a4d 206d      jr      nz,6abch
6a4f 61        ld      h,c
6a50 69        ld      l,c
6a51 6e        ld      l,(hl)
6a52 206e      jr      nz,6ac2h
6a54 75        ld      (hl),l
6a55 6d        ld      l,l
6a56 62        ld      h,d
6a57 65        ld      h,l
6a58 72        ld      (hl),d
6a59 73        ld      (hl),e
6a5a 2063      jr      nz,6abfh
6a5c 61        ld      h,c
6a5d 6e        ld      l,(hl)
6a5e 2062      jr      nz,6ac2h
6a60 65        ld      h,l
6a61 2075      jr      nz,6ad8h
6a63 73        ld      (hl),e
6a64 65        ld      h,l
6a65 64        ld      h,h
6a66 200d      jr      nz,6a75h
6a68 0a        ld      a,(bc)
6a69 24        inc     h
6a6a 4c        ld      c,h
6a6b 69        ld      l,c
6a6c 6e        ld      l,(hl)
6a6d 65        ld      h,l
6a6e 73        ld      (hl),e
6a6f 204c      jr      nz,6abdh
6a71 2d        dec     l
6a72 53        ld      d,e
6a73 3a200d    ld      a,(0d20h)
6a76 0a        ld      a,(bc)
6a77 24        inc     h
6a78 4f        ld      c,a
6a79 6e        ld      l,(hl)
6a7a 6c        ld      l,h
6a7b 79        ld      a,c
6a7c 2074      jr      nz,6af2h
6a7e 68        ld      l,b
6a7f 65        ld      h,l
6a80 2062      jr      nz,6ae4h
6a82 6f        ld      l,a
6a83 6e        ld      l,(hl)
6a84 75        ld      (hl),l
6a85 73        ld      (hl),e
6a86 206e      jr      nz,6af6h
6a88 75        ld      (hl),l
6a89 6d        ld      l,l
6a8a 62        ld      h,d
6a8b 65        ld      h,l
6a8c 72        ld      (hl),d
6a8d 2063      jr      nz,6af2h
6a8f 61        ld      h,c
6a90 6e        ld      l,(hl)
6a91 2062      jr      nz,6af5h
6a93 65        ld      h,l
6a94 2075      jr      nz,6b0bh
6a96 73        ld      (hl),e
6a97 65        ld      h,l
6a98 64        ld      h,h
6a99 200d      jr      nz,6aa8h
6a9b 0a        ld      a,(bc)
6a9c 24        inc     h
6a9d 1b        dec     de
6a9e 2d        dec     l
6a9f 325379    ld      (7953h),a
6aa2 6e        ld      l,(hl)
6aa3 64        ld      h,h
6aa4 69        ld      l,c
6aa5 63        ld      h,e
6aa6 61        ld      h,c
6aa7 74        ld      (hl),h
6aa8 65        ld      h,l
6aa9 2043      jr      nz,6aeeh
6aab 6f        ld      l,a
6aac 6d        ld      l,l
6aad 62        ld      h,d
6aae 69        ld      l,c
6aaf 6e        ld      l,(hl)
6ab0 61        ld      h,c
6ab1 74        ld      (hl),h
6ab2 69        ld      l,c
6ab3 6f        ld      l,a
6ab4 6e        ld      l,(hl)
6ab5 1b        dec     de
6ab6 2d        dec     l
6ab7 300d      jr      nc,6ac6h
6ab9 0a        ld      a,(bc)
6aba 24        inc     h
6abb 54        ld      d,h
6abc 68        ld      l,b
6abd 69        ld      l,c
6abe 73        ld      (hl),e
6abf 2073      jr      nz,6b34h
6ac1 79        ld      a,c
6ac2 6e        ld      l,(hl)
6ac3 64        ld      h,h
6ac4 69        ld      l,c
6ac5 63        ld      h,e
6ac6 61        ld      h,c
6ac7 74        ld      (hl),h
6ac8 65        ld      h,l
6ac9 2063      jr      nz,6b2eh
6acb 6f        ld      l,a
6acc 6d        ld      l,l
6acd 62        ld      h,d
6ace 69        ld      l,c
6acf 6e        ld      l,(hl)
6ad0 61        ld      h,c
6ad1 74        ld      (hl),h
6ad2 69        ld      l,c
6ad3 6f        ld      l,a
6ad4 6e        ld      l,(hl)
6ad5 2063      jr      nz,6b3ah
6ad7 6f        ld      l,a
6ad8 6d        ld      l,l
6ad9 70        ld      (hl),b
6ada 72        ld      (hl),d
6adb 69        ld      l,c
6adc 73        ld      (hl),e
6add 65        ld      h,l
6ade 73        ld      (hl),e
6adf 2024      jr      nz,6b05h
6ae1 313024    ld      sp,2430h
6ae4 73        ld      (hl),e
6ae5 69        ld      l,c
6ae6 6e        ld      l,(hl)
6ae7 67        ld      h,a
6ae8 6c        ld      l,h
6ae9 65        ld      h,l
6aea 2073      jr      nz,6b5fh
6aec 79        ld      a,c
6aed 6e        ld      l,(hl)
6aee 64        ld      h,h
6aef 69        ld      l,c
6af0 63        ld      h,e
6af1 61        ld      h,c
6af2 74        ld      (hl),h
6af3 65        ld      h,l
6af4 2074      jr      nz,6b6ah
6af6 69        ld      l,c
6af7 63        ld      h,e
6af8 6b        ld      l,e
6af9 65        ld      h,l
6afa 74        ld      (hl),h
6afb 2065      jr      nz,6b62h
6afd 6e        ld      l,(hl)
6afe 74        ld      (hl),h
6aff 72        ld      (hl),d
6b00 69        ld      l,c
6b01 65        ld      h,l
6b02 73        ld      (hl),e
6b03 2c        inc     l
6b04 2069      jr      nz,6b6fh
6b06 64        ld      h,h
6b07 65        ld      h,l
6b08 6e        ld      l,(hl)
6b09 74        ld      (hl),h
6b0a 69        ld      l,c
6b0b 63        ld      h,e
6b0c 61        ld      h,c
6b0d 6c        ld      l,h
6b0e 200d      jr      nz,6b1dh
6b10 0a        ld      a,(bc)
6b11 24        inc     h
6b12 69        ld      l,c
6b13 6e        ld      l,(hl)
6b14 2063      jr      nz,6b79h
6b16 6f        ld      l,a
6b17 6d        ld      l,l
6b18 62        ld      h,d
6b19 69        ld      l,c
6b1a 6e        ld      l,(hl)
6b1b 61        ld      h,c
6b1c 74        ld      (hl),h
6b1d 69        ld      l,c
6b1e 6f        ld      l,a
6b1f 6e        ld      l,(hl)
6b20 2077      jr      nz,6b99h
6b22 69        ld      l,c
6b23 74        ld      (hl),h
6b24 68        ld      l,b
6b25 2065      jr      nz,6b8ch
6b27 61        ld      h,c
6b28 63        ld      h,e
6b29 68        ld      l,b
6b2a 2063      jr      nz,6b8fh
6b2c 6f        ld      l,a
6b2d 73        ld      (hl),e
6b2e 74        ld      (hl),h
6b2f 69        ld      l,c
6b30 6e        ld      l,(hl)
6b31 67        ld      h,a
6b32 206f      jr      nz,6ba3h
6b34 6e        ld      l,(hl)
6b35 65        ld      h,l
6b36 200d      jr      nz,6b45h
6b38 0a        ld      a,(bc)
6b39 24        inc     h
6b3a 70        ld      (hl),b
6b3b 6f        ld      l,a
6b3c 75        ld      (hl),l
6b3d 6e        ld      l,(hl)
6b3e 64        ld      h,h
6b3f 2e20      ld      l,20h
6b41 54        ld      d,h
6b42 68        ld      l,b
6b43 65        ld      h,l
6b44 2070      jr      nz,6bb6h
6b46 72        ld      (hl),d
6b47 69        ld      l,c
6b48 7a        ld      a,d
6b49 65        ld      h,l
6b4a 73        ld      (hl),e
6b4b 2073      jr      nz,6bc0h
6b4d 68        ld      l,b
6b4e 6f        ld      l,a
6b4f 77        ld      (hl),a
6b50 6e        ld      l,(hl)
6b51 2069      jr      nz,6bbch
6b53 6e        ld      l,(hl)
6b54 63        ld      h,e
6b55 6c        ld      l,h
6b56 75        ld      (hl),l
6b57 64        ld      h,h
6b58 65        ld      h,l
6b59 2061      jr      nz,6bbch
6b5b 206d      jr      nz,6bcah
6b5d 75        ld      (hl),l
6b5e 6c        ld      l,h
6b5f 74        ld      (hl),h
6b60 69        ld      l,c
6b61 70        ld      (hl),b
6b62 6c        ld      l,h
6b63 65        ld      h,l
6b64 200d      jr      nz,6b73h
6b66 0a        ld      a,(bc)
6b67 24        inc     h
6b68 66        ld      h,(hl)
6b69 61        ld      h,c
6b6a 63        ld      h,e
6b6b 74        ld      (hl),h
6b6c 6f        ld      l,a
6b6d 72        ld      (hl),d
6b6e 206f      jr      nz,6bdfh
6b70 66        ld      h,(hl)
6b71 2024      jr      nz,6b97h
6b73 2e20      ld      l,20h
6b75 54        ld      d,h
6b76 68        ld      l,b
6b77 65        ld      h,l
6b78 2063      jr      nz,6bddh
6b7a 6f        ld      l,a
6b7b 6d        ld      l,l
6b7c 62        ld      h,d
6b7d 69        ld      l,c
6b7e 6e        ld      l,(hl)
6b7f 61        ld      h,c
6b80 74        ld      (hl),h
6b81 69        ld      l,c
6b82 6f        ld      l,a
6b83 6e        ld      l,(hl)
6b84 2069      jr      nz,6befh
6b86 73        ld      (hl),e
6b87 2069      jr      nz,6bf2h
6b89 73        ld      (hl),e
6b8a 73        ld      (hl),e
6b8b 75        ld      (hl),l
6b8c 65        ld      h,l
6b8d 64        ld      h,h
6b8e 200d      jr      nz,6b9dh
6b90 0a        ld      a,(bc)
6b91 24        inc     h
6b92 69        ld      l,c
6b93 6e        ld      l,(hl)
6b94 2074      jr      nz,6c0ah
6b96 68        ld      l,b
6b97 69        ld      l,c
6b98 73        ld      (hl),e
6b99 2077      jr      nz,6c12h
6b9b 61        ld      h,c
6b9c 79        ld      a,c
6b9d 2066      jr      nz,6c05h
6b9f 6f        ld      l,a
6ba0 72        ld      (hl),d
6ba1 2074      jr      nz,6c17h
6ba3 68        ld      l,b
6ba4 65        ld      h,l
6ba5 2063      jr      nz,6c0ah
6ba7 6f        ld      l,a
6ba8 6e        ld      l,(hl)
6ba9 76        halt    
6baa 65        ld      h,l
6bab 6e        ld      l,(hl)
6bac 69        ld      l,c
6bad 65        ld      h,l
6bae 6e        ld      l,(hl)
6baf 63        ld      h,e
6bb0 65        ld      h,l
6bb1 206f      jr      nz,6c22h
6bb3 66        ld      h,(hl)
6bb4 2067      jr      nz,6c1dh
6bb6 72        ld      (hl),d
6bb7 6f        ld      l,a
6bb8 75        ld      (hl),l
6bb9 70        ld      (hl),b
6bba 73        ld      (hl),e
6bbb 2e20      ld      l,20h
6bbd 0d        dec     c
6bbe 0a        ld      a,(bc)
6bbf 24        inc     h
6bc0 41        ld      b,c
6bc1 2073      jr      nz,6c36h
6bc3 69        ld      l,c
6bc4 6e        ld      l,(hl)
6bc5 67        ld      h,a
6bc6 6c        ld      l,h
6bc7 65        ld      h,l
6bc8 2073      jr      nz,6c3dh
6bca 79        ld      a,c
6bcb 6e        ld      l,(hl)
6bcc 64        ld      h,h
6bcd 69        ld      l,c
6bce 63        ld      h,e
6bcf 61        ld      h,c
6bd0 74        ld      (hl),h
6bd1 65        ld      h,l
6bd2 2074      jr      nz,6c48h
6bd4 69        ld      l,c
6bd5 63        ld      h,e
6bd6 6b        ld      l,e
6bd7 65        ld      h,l
6bd8 74        ld      (hl),h
6bd9 2065      jr      nz,6c40h
6bdb 6e        ld      l,(hl)
6bdc 74        ld      (hl),h
6bdd 72        ld      (hl),d
6bde 79        ld      a,c
6bdf 2063      jr      nz,6c44h
6be1 61        ld      h,c
6be2 6e        ld      l,(hl)
6be3 2061      jr      nz,6c46h
6be5 6c        ld      l,h
6be6 73        ld      (hl),e
6be7 6f        ld      l,a
6be8 200d      jr      nz,6bf7h
6bea 0a        ld      a,(bc)
6beb 24        inc     h
6bec 62        ld      h,d
6bed 65        ld      h,l
6bee 2070      jr      nz,6c60h
6bf0 75        ld      (hl),l
6bf1 72        ld      (hl),d
6bf2 63        ld      h,e
6bf3 68        ld      l,b
6bf4 61        ld      h,c
6bf5 73        ld      (hl),e
6bf6 65        ld      h,l
6bf7 64        ld      h,h
6bf8 2e20      ld      l,20h
6bfa 0d        dec     c
6bfb 0a        ld      a,(bc)
6bfc 24        inc     h
6bfd 35        dec     (hl)
6bfe 24        inc     h
6bff 54        ld      d,h
6c00 6f        ld      l,a
6c01 2061      jr      nz,6c64h
6c03 63        ld      h,e
6c04 63        ld      h,e
6c05 6f        ld      l,a
6c06 6d        ld      l,l
6c07 6d        ld      l,l
6c08 6f        ld      l,a
6c09 64        ld      h,h
6c0a 61        ld      h,c
6c0b 74        ld      (hl),h
6c0c 65        ld      h,l
6c0d 2067      jr      nz,6c76h
6c0f 72        ld      (hl),d
6c10 6f        ld      l,a
6c11 75        ld      (hl),l
6c12 70        ld      (hl),b
6c13 73        ld      (hl),e
6c14 2c        inc     l
6c15 2073      jr      nz,6c8ah
6c17 69        ld      l,c
6c18 6e        ld      l,(hl)
6c19 67        ld      h,a
6c1a 6c        ld      l,h
6c1b 65        ld      h,l
6c1c 2073      jr      nz,6c91h
6c1e 79        ld      a,c
6c1f 6e        ld      l,(hl)
6c20 64        ld      h,h
6c21 69        ld      l,c
6c22 63        ld      h,e
6c23 61        ld      h,c
6c24 74        ld      (hl),h
6c25 65        ld      h,l
6c26 200d      jr      nz,6c35h
6c28 0a        ld      a,(bc)
6c29 24        inc     h
6c2a 74        ld      (hl),h
6c2b 69        ld      l,c
6c2c 63        ld      h,e
6c2d 6b        ld      l,e
6c2e 65        ld      h,l
6c2f 74        ld      (hl),h
6c30 73        ld      (hl),e
6c31 2063      jr      nz,6c96h
6c33 61        ld      h,c
6c34 6e        ld      l,(hl)
6c35 2061      jr      nz,6c98h
6c37 6c        ld      l,h
6c38 73        ld      (hl),e
6c39 6f        ld      l,a
6c3a 2062      jr      nz,6c9eh
6c3c 65        ld      h,l
6c3d 2070      jr      nz,6cafh
6c3f 75        ld      (hl),l
6c40 72        ld      (hl),d
6c41 63        ld      h,e
6c42 68        ld      l,b
6c43 61        ld      h,c
6c44 73        ld      (hl),e
6c45 65        ld      h,l
6c46 64        ld      h,h
6c47 2069      jr      nz,6cb2h
6c49 6e        ld      l,(hl)
6c4a 200d      jr      nz,6c59h
6c4c 0a        ld      a,(bc)
6c4d 24        inc     h
6c4e 63        ld      h,e
6c4f 6f        ld      l,a
6c50 6d        ld      l,l
6c51 62        ld      h,d
6c52 69        ld      l,c
6c53 6e        ld      l,(hl)
6c54 61        ld      h,c
6c55 74        ld      (hl),h
6c56 69        ld      l,c
6c57 6f        ld      l,a
6c58 6e        ld      l,(hl)
6c59 73        ld      (hl),e
6c5a 206f      jr      nz,6ccbh
6c5c 66        ld      h,(hl)
6c5d 2035      jr      nz,6c94h
6c5f 206f      jr      nz,6cd0h
6c61 72        ld      (hl),d
6c62 2031      jr      nz,6c95h
6c64 302e      jr      nc,6c94h
6c66 200d      jr      nz,6c75h
6c68 0a        ld      a,(bc)
6c69 24        inc     h
6c6a 2d        dec     l
6c6b 4d        ld      c,l
6c6c 12        ld      (de),a
6c6d 8c        adc     a,h
6c6e 9d        sbc     a,l
6c6f 48        ld      c,b
6c70 86        add     a,(hl)
6c71 4c        ld      c,h
6c72 00        nop     
6c73 00        nop     
6c74 114c19    ld      de,194ch
6c77 4c        ld      c,h
6c78 15        dec     d
6c79 4c        ld      c,h
6c7a 9d        sbc     a,l
6c7b 48        ld      c,b
6c7c 86        add     a,(hl)
6c7d 4c        ld      c,h
6c7e 12        ld      (de),a
6c7f 8c        adc     a,h
6c80 9d        sbc     a,l
6c81 48        ld      c,b
6c82 00        nop     
6c83 00        nop     
6c84 86        add     a,(hl)
6c85 4c        ld      c,h
6c86 114c09    ld      de,094ch
6c89 019d48    ld      bc,489dh
6c8c 15        dec     d
6c8d 4c        ld      c,h
6c8e 9d        sbc     a,l
6c8f 48        ld      c,b
6c90 86        add     a,(hl)
6c91 4c        ld      c,h
6c92 6f        ld      l,a
6c93 4d        ld      c,l
6c94 328c9d    ld      (9d8ch),a
6c97 48        ld      c,b
6c98 86        add     a,(hl)
6c99 4c        ld      c,h
6c9a 78        ld      a,b
6c9b 4d        ld      c,l
6c9c 00        nop     
6c9d 00        nop     
6c9e 114c19    ld      de,194ch
6ca1 4c        ld      c,h
6ca2 15        dec     d
6ca3 4c        ld      c,h
6ca4 9d        sbc     a,l
6ca5 48        ld      c,b
6ca6 b3        or      e
6ca7 81        add     a,c
6ca8 e28111    jp      po,1181h
6cab 82        add     a,d
6cac 40        ld      b,b
6cad 82        add     a,d
6cae 9d        sbc     a,l
6caf 48        ld      c,b
6cb0 12        ld      (de),a
6cb1 8c        adc     a,h
6cb2 9d        sbc     a,l
6cb3 48        ld      c,b
6cb4 5f        ld      e,a
6cb5 52        ld      d,d
6cb6 9d        sbc     a,l
6cb7 48        ld      c,b
6cb8 00        nop     
6cb9 00        nop     
6cba 114c3c    ld      de,3c4ch
6cbd 53        ld      d,e
6cbe 15        dec     d
6cbf 4c        ld      c,h
6cc0 00        nop     
6cc1 00        nop     
6cc2 9d        sbc     a,l
6cc3 48        ld      c,b
6cc4 23        inc     hl
6cc5 6a        ld      l,d
6cc6 54        ld      d,h
6cc7 53        ld      d,e
6cc8 63        ld      h,e
6cc9 53        ld      d,e
6cca 96        sub     (hl)
6ccb 53        ld      d,e
6ccc b9        cp      c
6ccd 53        ld      d,e
6cce e653      and     53h
6cd0 206a      jr      nz,6d3ch
6cd2 13        inc     de
6cd3 54        ld      d,h
6cd4 1e54      ld      e,54h
6cd6 48        ld      c,b
6cd7 54        ld      d,h
6cd8 9d        sbc     a,l
6cd9 48        ld      c,b
6cda 114c41    ld      de,414ch
6cdd 8c        adc     a,h
6cde 15        dec     d
6cdf 4c        ld      c,h
6ce0 70        ld      (hl),b
6ce1 8c        adc     a,h
6ce2 00        nop     
6ce3 00        nop     
6ce4 9d        sbc     a,l
6ce5 48        ld      c,b
6ce6 114c6f    ld      de,6f4ch
6ce9 82        add     a,d
6cea 89        adc     a,c
6ceb 82        add     a,d
6cec a3        and     e
6ced 82        add     a,d
6cee bd        cp      l
6cef 82        add     a,d
6cf0 15        dec     d
6cf1 4c        ld      c,h
6cf2 0b        dec     bc
6cf3 83        add     a,e
6cf4 3a8369    ld      a,(6983h)
6cf7 83        add     a,e
6cf8 98        sbc     a,b
6cf9 83        add     a,e
6cfa 25        dec     h
6cfb 84        add     a,h
6cfc 54        ld      d,h
6cfd 84        add     a,h
6cfe 83        add     a,e
6cff 84        add     a,h
6d00 b2        or      d
6d01 84        add     a,h
6d02 e1        pop     hl
6d03 84        add     a,h
6d04 1085      djnz    6c8bh
6d06 3f        ccf     
6d07 85        add     a,l
6d08 6e        ld      l,(hl)
6d09 85        add     a,l
6d0a 9d        sbc     a,l
6d0b 85        add     a,l
6d0c cc85fb    call    z,0fb85h
6d0f 85        add     a,l
6d10 2a8600    ld      hl,(0086h)
6d13 00        nop     
6d14 114c19    ld      de,194ch
6d17 4c        ld      c,h
6d18 15        dec     d
6d19 4c        ld      c,h
6d1a 9d        sbc     a,l
6d1b 48        ld      c,b
6d1c b3        or      e
6d1d 81        add     a,c
6d1e e28111    jp      po,1181h
6d21 82        add     a,d
6d22 40        ld      b,b
6d23 82        add     a,d
6d24 9d        sbc     a,l
6d25 48        ld      c,b
6d26 12        ld      (de),a
6d27 8c        adc     a,h
6d28 9d        sbc     a,l
6d29 48        ld      c,b
6d2a c669      add     a,69h
6d2c e4699b    call    po,9b69h
6d2f 48        ld      c,b
6d30 114c7e    ld      de,7e4ch
6d33 69        ld      l,c
6d34 15        dec     d
6d35 4c        ld      c,h
6d36 9d        sbc     a,l
6d37 48        ld      c,b
6d38 00        nop     
6d39 00        nop     
6d3a 9d        sbc     a,l
6d3b 48        ld      c,b
6d3c 23        inc     hl
6d3d 6a        ld      l,d
6d3e 54        ld      d,h
6d3f 53        ld      d,e
6d40 63        ld      h,e
6d41 53        ld      d,e
6d42 96        sub     (hl)
6d43 53        ld      d,e
6d44 24        inc     h
6d45 6a        ld      l,d
6d46 35        dec     (hl)
6d47 6a        ld      l,d
6d48 43        ld      b,e
6d49 6a        ld      l,d
6d4a 24        inc     h
6d4b 6a        ld      l,d
6d4c 6a        ld      l,d
6d4d 6a        ld      l,d
6d4e 78        ld      a,b
6d4f 6a        ld      l,d
6d50 9d        sbc     a,l
6d51 48        ld      c,b
6d52 114c41    ld      de,414ch
6d55 8c        adc     a,h
6d56 15        dec     d
6d57 4c        ld      c,h
6d58 70        ld      (hl),b
6d59 8c        adc     a,h
6d5a 9d        sbc     a,l
6d5b 48        ld      c,b
6d5c 2b        dec     hl
6d5d 6a        ld      l,d
6d5e 9d        sbc     a,l
6d5f 6a        ld      l,d
6d60 00        nop     
6d61 00        nop     
6d62 bb        cp      e
6d63 6a        ld      l,d
6d64 e1        pop     hl
6d65 6a        ld      l,d
6d66 9d        sbc     a,l
6d67 48        ld      c,b
6d68 e46a12    call    po,126ah
6d6b 6b        ld      l,e
6d6c 3a6b68    ld      a,(686bh)
6d6f 6b        ld      l,e
6d70 e1        pop     hl
6d71 6a        ld      l,d
6d72 73        ld      (hl),e
6d73 6b        ld      l,e
6d74 92        sub     d
6d75 6b        ld      l,e
6d76 c0        ret     nz

6d77 6b        ld      l,e
6d78 ec6b00    call    pe,006bh
6d7b 00        nop     
6d7c 9d        sbc     a,l
6d7d 48        ld      c,b
6d7e 114c19    ld      de,194ch
6d81 4c        ld      c,h
6d82 15        dec     d
6d83 4c        ld      c,h
6d84 9d        sbc     a,l
6d85 48        ld      c,b
6d86 b3        or      e
6d87 81        add     a,c
6d88 e28111    jp      po,1181h
6d8b 82        add     a,d
6d8c 40        ld      b,b
6d8d 82        add     a,d
6d8e 9d        sbc     a,l
6d8f 48        ld      c,b
6d90 59        ld      e,c
6d91 4c        ld      c,h
6d92 00        nop     
6d93 00        nop     
6d94 114c9d    ld      de,9d4ch
6d97 48        ld      c,b
6d98 f3        di      
6d99 50        ld      d,b
6d9a 15        dec     d
6d9b 4c        ld      c,h
6d9c 9d        sbc     a,l
6d9d 48        ld      c,b
6d9e 05        dec     b
6d9f 51        ld      d,c
6da0 325100    ld      (0051h),a
6da3 00        nop     
6da4 60        ld      h,b
6da5 51        ld      d,c
6da6 9d        sbc     a,l
6da7 48        ld      c,b
6da8 59        ld      e,c
6da9 4c        ld      c,h
6daa 9b        sbc     a,e
6dab 48        ld      c,b
6dac 00        nop     
6dad 00        nop     
6dae 114c19    ld      de,194ch
6db1 4c        ld      c,h
6db2 15        dec     d
6db3 4c        ld      c,h
6db4 9d        sbc     a,l
6db5 48        ld      c,b
6db6 b3        or      e
6db7 81        add     a,c
6db8 e28111    jp      po,1181h
6dbb 82        add     a,d
6dbc 40        ld      b,b
6dbd 82        add     a,d
6dbe 9d        sbc     a,l
6dbf 48        ld      c,b
6dc0 12        ld      (de),a
6dc1 8c        adc     a,h
6dc2 9d        sbc     a,l
6dc3 48        ld      c,b
6dc4 c669      add     a,69h
6dc6 e9        jp      (hl)
6dc7 69        ld      l,c
6dc8 9b        sbc     a,e
6dc9 48        ld      c,b
6dca 114c96    ld      de,964ch
6dcd 69        ld      l,c
6dce 15        dec     d
6dcf 4c        ld      c,h
6dd0 9d        sbc     a,l
6dd1 48        ld      c,b
6dd2 00        nop     
6dd3 00        nop     
6dd4 bb        cp      e
6dd5 6a        ld      l,d
6dd6 fd6b      ld      iyl,e
6dd8 9d        sbc     a,l
6dd9 48        ld      c,b
6dda e46a12    call    po,126ah
6ddd 6b        ld      l,e
6dde 3a6b68    ld      a,(686bh)
6de1 6b        ld      l,e
6de2 fd6b      ld      iyl,e
6de4 73        ld      (hl),e
6de5 6b        ld      l,e
6de6 92        sub     d
6de7 6b        ld      l,e
6de8 c0        ret     nz

6de9 6b        ld      l,e
6dea ec6b00    call    pe,006bh
6ded 00        nop     
6dee 114c19    ld      de,194ch
6df1 4c        ld      c,h
6df2 15        dec     d
6df3 4c        ld      c,h
6df4 9d        sbc     a,l
6df5 48        ld      c,b
6df6 b3        or      e
6df7 81        add     a,c
6df8 e28111    jp      po,1181h
6dfb 82        add     a,d
6dfc 40        ld      b,b
6dfd 82        add     a,d
6dfe 9d        sbc     a,l
6dff 48        ld      c,b
6e00 12        ld      (de),a
6e01 8c        adc     a,h
6e02 9d        sbc     a,l
6e03 48        ld      c,b
6e04 c669      add     a,69h
6e06 ee69      xor     69h
6e08 9b        sbc     a,e
6e09 48        ld      c,b
6e0a 114cae    ld      de,0ae4ch
6e0d 69        ld      l,c
6e0e 15        dec     d
6e0f 4c        ld      c,h
6e10 9d        sbc     a,l
6e11 48        ld      c,b
6e12 00        nop     
6e13 00        nop     
6e14 ff        rst     38h
6e15 6b        ld      l,e
6e16 2a6c4e    ld      hl,(4e6ch)
6e19 6c        ld      l,h
6e1a 00        nop     
6e1b 00        nop     
6e1c 9d        sbc     a,l
6e1d 48        ld      c,b
6e1e 114c19    ld      de,194ch
6e21 4c        ld      c,h
6e22 15        dec     d
6e23 4c        ld      c,h
6e24 9d        sbc     a,l
6e25 48        ld      c,b
6e26 b3        or      e
6e27 81        add     a,c
6e28 e28111    jp      po,1181h
6e2b 82        add     a,d
6e2c 40        ld      b,b
6e2d 82        add     a,d
6e2e 9d        sbc     a,l
6e2f 48        ld      c,b
6e30 59        ld      e,c
6e31 4c        ld      c,h
6e32 4c        ld      c,h
6e33 5c        ld      e,h
6e34 9d        sbc     a,l
6e35 48        ld      c,b
6e36 00        nop     
6e37 00        nop     
6e38 114ce9    ld      de,0e94ch
6e3b 5c        ld      e,h
6e3c 15        dec     d
6e3d 4c        ld      c,h
6e3e 9d        sbc     a,l
6e3f 48        ld      c,b
6e40 00        nop     
6e41 00        nop     
6e42 fe5c      cp      5ch
6e44 0d        dec     c
6e45 019d48    ld      bc,489dh
6e48 00        nop     
6e49 00        nop     
6e4a 365d      ld      (hl),5dh
6e4c 12        ld      (de),a
6e4d 8c        adc     a,h
6e4e 9d        sbc     a,l
6e4f 48        ld      c,b
6e50 00        nop     
6e51 00        nop     
6e52 115d2f    ld      de,2f5dh
6e55 5d        ld      e,l
6e56 9d        sbc     a,l
6e57 48        ld      c,b
6e58 00        nop     
6e59 00        nop     
6e5a 115d33    ld      de,335dh
6e5d 5d        ld      e,l
6e5e 9d        sbc     a,l
6e5f 48        ld      c,b
6e60 00        nop     
6e61 00        nop     
6e62 9d        sbc     a,l
6e63 48        ld      c,b
6e64 2a6ad4    ld      hl,(0d46ah)
6e67 5e        ld      e,(hl)
6e68 9d        sbc     a,l
6e69 48        ld      c,b
6e6a 00        nop     
6e6b 00        nop     
6e6c 9d        sbc     a,l
6e6d 48        ld      c,b
6e6e 2b        dec     hl
6e6f 6a        ld      l,d
6e70 b2        or      d
6e71 5e        ld      e,(hl)
6e72 9d        sbc     a,l
6e73 48        ld      c,b
6e74 00        nop     
6e75 00        nop     
6e76 9d        sbc     a,l
6e77 48        ld      c,b
6e78 86        add     a,(hl)
6e79 4c        ld      c,h
6e7a 9d        sbc     a,l
6e7b 48        ld      c,b
6e7c 00        nop     
6e7d 00        nop     
6e7e 114c4c    ld      de,4c4ch
6e81 5d        ld      e,l
6e82 15        dec     d
6e83 4c        ld      c,h
6e84 9d        sbc     a,l
6e85 48        ld      c,b
6e86 25        dec     h
6e87 6a        ld      l,d
6e88 f25e9d    jp      p,9d5eh
6e8b 48        ld      c,b
6e8c 00        nop     
6e8d 00        nop     
6e8e 9d        sbc     a,l
6e8f 48        ld      c,b
6e90 86        add     a,(hl)
6e91 4c        ld      c,h
6e92 114c9d    ld      de,9d4ch
6e95 48        ld      c,b
6e96 73        ld      (hl),e
6e97 87        add     a,a
6e98 8d        adc     a,l
6e99 87        add     a,a
6e9a 15        dec     d
6e9b 4c        ld      c,h
6e9c c1        pop     bc
6e9d 87        add     a,a
6e9e f0        ret     p

6e9f 87        add     a,a
6ea0 1f        rra     
6ea1 88        adc     a,b
6ea2 4e        ld      c,(hl)
6ea3 88        adc     a,b
6ea4 7d        ld      a,l
6ea5 88        adc     a,b
6ea6 ac        xor     h
6ea7 88        adc     a,b
6ea8 db88      in      a,(88h)
6eaa 0a        ld      a,(bc)
6eab 89        adc     a,c
6eac 39        add     hl,sp
6ead 89        adc     a,c
6eae 68        ld      l,b
6eaf 89        adc     a,c
6eb0 97        sub     a
6eb1 89        adc     a,c
6eb2 c689      add     a,89h
6eb4 9d        sbc     a,l
6eb5 48        ld      c,b
6eb6 00        nop     
6eb7 00        nop     
6eb8 9d        sbc     a,l
6eb9 48        ld      c,b
6eba 96        sub     (hl)
6ebb 64        ld      h,h
6ebc 59        ld      e,c
6ebd 4c        ld      c,h
6ebe 00        nop     
6ebf 00        nop     
6ec0 ff        rst     38h
6ec1 00        nop     
6ec2 0f        rrca    
6ec3 f0        ret     p

6ec4 c5        push    bc
6ec5 3aa35c    ld      a,(5ca3h)
6ec8 2a2057    ld      hl,(5720h)
6ecb 41        ld      b,c
6ecc 52        ld      d,d
6ecd 4e        ld      c,(hl)
6ece 49        ld      c,c
6ecf 4e        ld      c,(hl)
6ed0 47        ld      b,a
6ed1 202a      jr      nz,6efdh
6ed3 2043      jr      nz,6f18h
6ed5 48        ld      c,b
6ed6 45        ld      b,l
6ed7 43        ld      b,e
6ed8 4b        ld      c,e
6ed9 53        ld      d,e
6eda 55        ld      d,l
6edb 4d        ld      c,l
6edc 24        inc     h
6edd 2020      jr      nz,6effh
6edf 49        ld      c,c
6ee0 53        ld      d,e
6ee1 2053      jr      nz,6f36h
6ee3 54        ld      d,h
6ee4 49        ld      c,c
6ee5 4c        ld      c,h
6ee6 4c        ld      c,h
6ee7 2043      jr      nz,6f2ch
6ee9 4f        ld      c,a
6eea 52        ld      d,d
6eeb 52        ld      d,d
6eec 55        ld      d,l
6eed 50        ld      d,b
6eee 54        ld      d,h
6eef 2020      jr      nz,6f11h
6ef1 24        inc     h
6ef2 2e2e      ld      l,2eh
6ef4 2e2e      ld      l,2eh
6ef6 2e33      ld      l,33h
6ef8 32312e    ld      (2e31h),a
6efb 2e2e      ld      l,2eh
6efd 2e2e      ld      l,2eh
6eff 3635      ld      (hl),35h
6f01 34        inc     (hl)
6f02 2e2e      ld      l,2eh
6f04 2e2e      ld      l,2eh
6f06 2e39      ld      l,39h
6f08 3837      jr      c,6f41h
6f0a 2e2e      ld      l,2eh
6f0c 2e2e      ld      l,2eh
6f0e 2e23      ld      l,23h
6f10 302a      jr      nc,6f3ch
6f12 2e2e      ld      l,2eh
6f14 2e2e      ld      l,2eh
6f16 2e2e      ld      l,2eh
6f18 2e2e      ld      l,2eh
6f1a 2e2e      ld      l,2eh
6f1c 2e2e      ld      l,2eh
6f1e 2e2e      ld      l,2eh
6f20 2e2e      ld      l,2eh
6f22 2e2e      ld      l,2eh
6f24 2e2e      ld      l,2eh
6f26 2e2e      ld      l,2eh
6f28 2e2e      ld      l,2eh
6f2a 43        ld      b,e
6f2b 50        ld      d,b
6f2c 52        ld      d,d
6f2d 59        ld      e,c
6f2e 47        ld      b,a
6f2f 53        ld      d,e
6f30 2e2e      ld      l,2eh
6f32 00        nop     
6f33 1b        dec     de
6f34 3d        dec     a
6f35 011b40    ld      bc,401bh
6f38 1d        dec     e
6f39 50        ld      d,b
6f3a 00        nop     
6f3b 00        nop     
6f3c 1b        dec     de
6f3d 321b20    ld      (201bh),a
6f40 00        nop     
6f41 1b        dec     de
6f42 61        ld      h,c
6f43 00        nop     
6f44 1b        dec     de
6f45 21001b    ld      hl,1b00h
6f48 45        ld      b,l
6f49 00        nop     
6f4a 1b        dec     de
6f4b 52        ld      d,d
6f4c 00        nop     
6f4d 1b        dec     de
6f4e 74        ld      (hl),h
6f4f 00        nop     
6f50 1b        dec     de
6f51 63        ld      h,e
6f52 35        dec     (hl)
6f53 00        nop     
6f54 1d        dec     e
6f55 45        ld      b,l
6f56 08        ex      af,af'
6f57 24        inc     h
6f58 0e3d      ld      c,3dh
6f5a 2b        dec     hl
6f5b 3d        dec     a
6f5c 313d37    ld      sp,373dh
6f5f 3d        dec     a
6f60 3d        dec     a
6f61 3d        dec     a
6f62 45        ld      b,l
6f63 3d        dec     a
6f64 4b        ld      c,e
6f65 3d        dec     a
6f66 51        ld      d,c
6f67 3d        dec     a
6f68 57        ld      d,a
6f69 3d        dec     a
6f6a 5d        ld      e,l
6f6b 3d        dec     a
6f6c 65        ld      h,l
6f6d 3d        dec     a
6f6e 7a        ld      a,d
6f6f 3d        dec     a
6f70 80        add     a,b
6f71 3d        dec     a
6f72 93        sub     e
6f73 3d        dec     a
6f74 a6        and     (hl)
6f75 3d        dec     a
6f76 b9        cp      c
6f77 3d        dec     a
6f78 cc3dd2    call    z,0d23dh
6f7b 3d        dec     a
6f7c d8        ret     c

6f7d 3d        dec     a
6f7e f5        push    af
6f7f 3d        dec     a
6f80 fb        ei      
6f81 3d        dec     a
6f82 013e00    ld      bc,003eh
6f85 00        nop     
6f86 00        nop     
6f87 00        nop     
6f88 12        ld      (de),a
6f89 010190    ld      bc,9001h
6f8c 19        add     hl,de
6f8d 53        ld      d,e
6f8e 75        ld      (hl),l
6f8f 6e        ld      l,(hl)
6f90 64        ld      h,h
6f91 61        ld      h,c
6f92 79        ld      a,c
6f93 2020      jr      nz,6fb5h
6f95 204d      jr      nz,6fe4h
6f97 6f        ld      l,a
6f98 6e        ld      l,(hl)
6f99 64        ld      h,h
6f9a 61        ld      h,c
6f9b 79        ld      a,c
6f9c 2020      jr      nz,6fbeh
6f9e 2054      jr      nz,6ff4h
6fa0 75        ld      (hl),l
6fa1 65        ld      h,l
6fa2 73        ld      (hl),e
6fa3 64        ld      h,h
6fa4 61        ld      h,c
6fa5 79        ld      a,c
6fa6 2020      jr      nz,6fc8h
6fa8 57        ld      d,a
6fa9 65        ld      h,l
6faa 64        ld      h,h
6fab 6e        ld      l,(hl)
6fac 65        ld      h,l
6fad 73        ld      (hl),e
6fae 64        ld      h,h
6faf 61        ld      h,c
6fb0 79        ld      a,c
6fb1 54        ld      d,h
6fb2 68        ld      l,b
6fb3 75        ld      (hl),l
6fb4 72        ld      (hl),d
6fb5 73        ld      (hl),e
6fb6 64        ld      h,h
6fb7 61        ld      h,c
6fb8 79        ld      a,c
6fb9 2046      jr      nz,7001h
6fbb 72        ld      (hl),d
6fbc 69        ld      l,c
6fbd 64        ld      h,h
6fbe 61        ld      h,c
6fbf 79        ld      a,c
6fc0 2020      jr      nz,6fe2h
6fc2 2053      jr      nz,7017h
6fc4 61        ld      h,c
6fc5 74        ld      (hl),h
6fc6 75        ld      (hl),l
6fc7 72        ld      (hl),d
6fc8 64        ld      h,h
6fc9 61        ld      h,c
6fca 79        ld      a,c
6fcb 204a      jr      nz,7017h
6fcd 61        ld      h,c
6fce 6e        ld      l,(hl)
6fcf 75        ld      (hl),l
6fd0 61        ld      h,c
6fd1 72        ld      (hl),d
6fd2 79        ld      a,c
6fd3 2020      jr      nz,6ff5h
6fd5 46        ld      b,(hl)
6fd6 65        ld      h,l
6fd7 62        ld      h,d
6fd8 72        ld      (hl),d
6fd9 75        ld      (hl),l
6fda 61        ld      h,c
6fdb 72        ld      (hl),d
6fdc 79        ld      a,c
6fdd 204d      jr      nz,702ch
6fdf 61        ld      h,c
6fe0 72        ld      (hl),d
6fe1 63        ld      h,e
6fe2 68        ld      l,b
6fe3 2020      jr      nz,7005h
6fe5 2020      jr      nz,7007h
6fe7 41        ld      b,c
6fe8 70        ld      (hl),b
6fe9 72        ld      (hl),d
6fea 69        ld      l,c
6feb 6c        ld      l,h
6fec 2020      jr      nz,700eh
6fee 2020      jr      nz,7010h
6ff0 4d        ld      c,l
6ff1 61        ld      h,c
6ff2 79        ld      a,c
6ff3 2020      jr      nz,7015h
6ff5 2020      jr      nz,7017h
6ff7 2020      jr      nz,7019h
6ff9 4a        ld      c,d
6ffa 75        ld      (hl),l
6ffb 6e        ld      l,(hl)
6ffc 65        ld      h,l
6ffd 2020      jr      nz,701fh
6fff 2020      jr      nz,7021h
7001 204a      jr      nz,704dh
7003 75        ld      (hl),l
7004 6c        ld      l,h
7005 79        ld      a,c
7006 2020      jr      nz,7028h
7008 2020      jr      nz,702ah
700a 2041      jr      nz,704dh
700c 75        ld      (hl),l
700d 67        ld      h,a
700e 75        ld      (hl),l
700f 73        ld      (hl),e
7010 74        ld      (hl),h
7011 2020      jr      nz,7033h
7013 2053      jr      nz,7068h
7015 65        ld      h,l
7016 70        ld      (hl),b
7017 74        ld      (hl),h
7018 65        ld      h,l
7019 6d        ld      l,l
701a 62        ld      h,d
701b 65        ld      h,l
701c 72        ld      (hl),d
701d 4f        ld      c,a
701e 63        ld      h,e
701f 74        ld      (hl),h
7020 6f        ld      l,a
7021 62        ld      h,d
7022 65        ld      h,l
7023 72        ld      (hl),d
7024 2020      jr      nz,7046h
7026 4e        ld      c,(hl)
7027 6f        ld      l,a
7028 76        halt    
7029 65        ld      h,l
702a 6d        ld      l,l
702b 62        ld      h,d
702c 65        ld      h,l
702d 72        ld      (hl),d
702e 2044      jr      nz,7074h
7030 65        ld      h,l
7031 63        ld      h,e
7032 65        ld      h,l
7033 6d        ld      l,l
7034 62        ld      h,d
7035 65        ld      h,l
7036 72        ld      (hl),d
7037 2073      jr      nz,70ach
7039 74        ld      (hl),h
703a 6e        ld      l,(hl)
703b 64        ld      h,h
703c 72        ld      (hl),d
703d 64        ld      h,h
703e 74        ld      (hl),h
703f 68        ld      l,b
7040 41        ld      b,c
7041 4d        ld      c,l
7042 50        ld      d,b
7043 4d        ld      c,l
7044 41        ld      b,c
7045 2e4d      ld      l,4dh
7047 2e50      ld      l,50h
7049 2e4d      ld      l,4dh
704b 2e61      ld      l,61h
704d 6d        ld      l,l
704e 70        ld      (hl),b
704f 6d        ld      l,l
7050 61        ld      h,c
7051 2e6d      ld      l,6dh
7053 2e70      ld      l,70h
7055 2e6d      ld      l,6dh
7057 2e42      ld      l,42h
7059 53        ld      d,e
705a 54        ld      d,h
705b 47        ld      b,a
705c 4d        ld      c,l
705d 54        ld      d,h
705e 41        ld      b,c
705f 3a4320    ld      a,(2043h)
7062 37        scf     
7063 2f        cpl     
7064 382f      jr      c,7095h
7066 35        dec     (hl)
7067 24        inc     h
7068 37        scf     
7069 2036      jr      nz,70a1h
706b 2034      jr      nz,70a1h
706d 24        inc     h
706e ff        rst     38h
706f ff        rst     38h
7070 ff        rst     38h
7071 ff        rst     38h
7072 ff        rst     38h
7073 ff        rst     38h
7074 ff        rst     38h
7075 ff        rst     38h
7076 ff        rst     38h
7077 ff        rst     38h
7078 ff        rst     38h
7079 ff        rst     38h
707a ff        rst     38h
707b ff        rst     38h
707c ff        rst     38h
707d ff        rst     38h
707e ff        rst     38h
707f ff        rst     38h
7080 ff        rst     38h
7081 ff        rst     38h
7082 ff        rst     38h
7083 ff        rst     38h
7084 ff        rst     38h
7085 45        ld      b,l
7086 4e        ld      c,(hl)
7087 44        ld      b,h
7088 ff        rst     38h
7089 ff        rst     38h
708a ff        rst     38h
708b ff        rst     38h
708c ff        rst     38h
708d ff        rst     38h
708e ff        rst     38h
708f ff        rst     38h
7090 ff        rst     38h
7091 ff        rst     38h
7092 ff        rst     38h
7093 ff        rst     38h
7094 ff        rst     38h
7095 ff        rst     38h
7096 ff        rst     38h
7097 ff        rst     38h
7098 ff        rst     38h
7099 ff        rst     38h
709a ff        rst     38h
709b ff        rst     38h
709c ff        rst     38h
709d ff        rst     38h
709e ff        rst     38h
709f ff        rst     38h
70a0 ff        rst     38h
70a1 ff        rst     38h
70a2 ff        rst     38h
70a3 ff        rst     38h
70a4 ff        rst     38h
70a5 00        nop     
70a6 ff        rst     38h
70a7 ff        rst     38h
70a8 ff        rst     38h
70a9 ff        rst     38h
70aa ff        rst     38h
70ab ff        rst     38h
70ac ff        rst     38h
70ad ff        rst     38h
70ae ff        rst     38h
70af ff        rst     38h
70b0 ff        rst     38h
70b1 ff        rst     38h
70b2 ff        rst     38h
70b3 ff        rst     38h
70b4 ff        rst     38h
70b5 ff        rst     38h
70b6 ff        rst     38h
70b7 ff        rst     38h
70b8 ff        rst     38h
70b9 ff        rst     38h
70ba ff        rst     38h
70bb ff        rst     38h
70bc ff        rst     38h
70bd ff        rst     38h
70be ff        rst     38h
70bf ff        rst     38h
70c0 ff        rst     38h
70c1 ff        rst     38h
70c2 ff        rst     38h
70c3 ff        rst     38h
70c4 ff        rst     38h
70c5 ff        rst     38h
70c6 ff        rst     38h
70c7 ff        rst     38h
70c8 ff        rst     38h
70c9 ff        rst     38h
70ca ff        rst     38h
70cb ff        rst     38h
70cc ff        rst     38h
70cd ff        rst     38h
70ce ff        rst     38h
70cf ff        rst     38h
70d0 ff        rst     38h
70d1 ff        rst     38h
70d2 ff        rst     38h
70d3 ff        rst     38h
70d4 ff        rst     38h
70d5 ff        rst     38h
70d6 ff        rst     38h
70d7 ff        rst     38h
70d8 ff        rst     38h
70d9 ff        rst     38h
70da ff        rst     38h
70db ff        rst     38h
70dc ff        rst     38h
70dd ff        rst     38h
70de ff        rst     38h
70df ff        rst     38h
70e0 ff        rst     38h
70e1 ff        rst     38h
70e2 ff        rst     38h
70e3 ff        rst     38h
70e4 ff        rst     38h
70e5 ff        rst     38h
70e6 ff        rst     38h
70e7 ff        rst     38h
70e8 ff        rst     38h
70e9 ff        rst     38h
70ea ff        rst     38h
70eb ff        rst     38h
70ec ff        rst     38h
70ed ff        rst     38h
70ee ff        rst     38h
70ef ff        rst     38h
70f0 ff        rst     38h
70f1 ff        rst     38h
70f2 ff        rst     38h
70f3 ff        rst     38h
70f4 ff        rst     38h
70f5 ff        rst     38h
70f6 ff        rst     38h
70f7 ff        rst     38h
70f8 ff        rst     38h
70f9 ff        rst     38h
70fa ff        rst     38h
70fb ff        rst     38h
70fc ff        rst     38h
70fd ff        rst     38h
70fe ff        rst     38h
70ff ff        rst     38h
7100 ff        rst     38h
7101 ff        rst     38h
7102 ff        rst     38h
7103 ff        rst     38h
7104 ff        rst     38h
7105 ff        rst     38h
7106 ff        rst     38h
7107 ff        rst     38h
7108 ff        rst     38h
7109 ff        rst     38h
710a ff        rst     38h
710b ff        rst     38h
710c ff        rst     38h
710d ff        rst     38h
710e ff        rst     38h
710f ff        rst     38h
7110 ff        rst     38h
7111 ff        rst     38h
7112 ff        rst     38h
7113 ff        rst     38h
7114 ff        rst     38h
7115 ff        rst     38h
7116 ff        rst     38h
7117 ff        rst     38h
7118 ff        rst     38h
7119 ff        rst     38h
711a ff        rst     38h
711b ff        rst     38h
711c ff        rst     38h
711d ff        rst     38h
711e ff        rst     38h
711f ff        rst     38h
7120 ff        rst     38h
7121 ff        rst     38h
7122 ff        rst     38h
7123 ff        rst     38h
7124 ff        rst     38h
7125 ff        rst     38h
7126 ff        rst     38h
7127 ff        rst     38h
7128 ff        rst     38h
7129 ff        rst     38h
712a ff        rst     38h
712b ff        rst     38h
712c ff        rst     38h
712d ff        rst     38h
712e ff        rst     38h
712f ff        rst     38h
7130 ff        rst     38h
7131 ff        rst     38h
7132 ff        rst     38h
7133 ff        rst     38h
7134 ff        rst     38h
7135 ff        rst     38h
7136 ff        rst     38h
7137 ff        rst     38h
7138 ff        rst     38h
7139 ff        rst     38h
713a ff        rst     38h
713b ff        rst     38h
713c ff        rst     38h
713d ff        rst     38h
713e ff        rst     38h
713f ff        rst     38h
7140 ff        rst     38h
7141 ff        rst     38h
7142 ff        rst     38h
7143 ff        rst     38h
7144 ff        rst     38h
7145 ff        rst     38h
7146 ff        rst     38h
7147 ff        rst     38h
7148 ff        rst     38h
7149 ff        rst     38h
714a ff        rst     38h
714b ff        rst     38h
714c ff        rst     38h
714d ff        rst     38h
714e ff        rst     38h
714f ff        rst     38h
7150 ff        rst     38h
7151 ff        rst     38h
7152 ff        rst     38h
7153 ff        rst     38h
7154 ff        rst     38h
7155 ff        rst     38h
7156 ff        rst     38h
7157 ff        rst     38h
7158 ff        rst     38h
7159 ff        rst     38h
715a ff        rst     38h
715b ff        rst     38h
715c ff        rst     38h
715d ff        rst     38h
715e ff        rst     38h
715f ff        rst     38h
7160 ff        rst     38h
7161 ff        rst     38h
7162 ff        rst     38h
7163 ff        rst     38h
7164 ff        rst     38h
7165 ff        rst     38h
7166 ff        rst     38h
7167 ff        rst     38h
7168 ff        rst     38h
7169 ff        rst     38h
716a ff        rst     38h
716b ff        rst     38h
716c ff        rst     38h
716d ff        rst     38h
716e ff        rst     38h
716f ff        rst     38h
7170 ff        rst     38h
7171 ff        rst     38h
7172 ff        rst     38h
7173 ff        rst     38h
7174 ff        rst     38h
7175 ff        rst     38h
7176 ff        rst     38h
7177 ff        rst     38h
7178 ff        rst     38h
7179 ff        rst     38h
717a ff        rst     38h
717b ff        rst     38h
717c ff        rst     38h
717d ff        rst     38h
717e ff        rst     38h
717f ff        rst     38h
7180 ff        rst     38h
7181 ff        rst     38h
7182 ff        rst     38h
7183 ff        rst     38h
7184 ff        rst     38h
7185 ff        rst     38h
7186 ff        rst     38h
7187 ff        rst     38h
7188 ff        rst     38h
7189 ff        rst     38h
718a ff        rst     38h
718b ff        rst     38h
718c ff        rst     38h
718d ff        rst     38h
718e ff        rst     38h
718f ff        rst     38h
7190 ff        rst     38h
7191 ff        rst     38h
7192 ff        rst     38h
7193 ff        rst     38h
7194 ff        rst     38h
7195 ff        rst     38h
7196 ff        rst     38h
7197 ff        rst     38h
7198 ff        rst     38h
7199 ff        rst     38h
719a ff        rst     38h
719b ff        rst     38h
719c ff        rst     38h
719d ff        rst     38h
719e ff        rst     38h
719f ff        rst     38h
71a0 ff        rst     38h
71a1 ff        rst     38h
71a2 ff        rst     38h
71a3 ff        rst     38h
71a4 ff        rst     38h
71a5 ff        rst     38h
71a6 ff        rst     38h
71a7 ff        rst     38h
71a8 ff        rst     38h
71a9 ff        rst     38h
71aa ff        rst     38h
71ab ff        rst     38h
71ac ff        rst     38h
71ad ff        rst     38h
71ae ff        rst     38h
71af ff        rst     38h
71b0 ff        rst     38h
71b1 ff        rst     38h
71b2 ff        rst     38h
71b3 ff        rst     38h
71b4 ff        rst     38h
71b5 ff        rst     38h
71b6 ff        rst     38h
71b7 ff        rst     38h
71b8 ff        rst     38h
71b9 ff        rst     38h
71ba ff        rst     38h
71bb ff        rst     38h
71bc ff        rst     38h
71bd ff        rst     38h
71be ff        rst     38h
71bf ff        rst     38h
71c0 ff        rst     38h
71c1 ff        rst     38h
71c2 ff        rst     38h
71c3 ff        rst     38h
71c4 ff        rst     38h
71c5 ff        rst     38h
71c6 ff        rst     38h
71c7 ff        rst     38h
71c8 ff        rst     38h
71c9 ff        rst     38h
71ca ff        rst     38h
71cb ff        rst     38h
71cc ff        rst     38h
71cd ff        rst     38h
71ce ff        rst     38h
71cf ff        rst     38h
71d0 ff        rst     38h
71d1 ff        rst     38h
71d2 ff        rst     38h
71d3 ff        rst     38h
71d4 ff        rst     38h
71d5 ff        rst     38h
71d6 ff        rst     38h
71d7 ff        rst     38h
71d8 ff        rst     38h
71d9 ff        rst     38h
71da ff        rst     38h
71db ff        rst     38h
71dc ff        rst     38h
71dd ff        rst     38h
71de ff        rst     38h
71df ff        rst     38h
71e0 ff        rst     38h
71e1 ff        rst     38h
71e2 ff        rst     38h
71e3 ff        rst     38h
71e4 ff        rst     38h
71e5 ff        rst     38h
71e6 ff        rst     38h
71e7 ff        rst     38h
71e8 ff        rst     38h
71e9 ff        rst     38h
71ea ff        rst     38h
71eb ff        rst     38h
71ec ff        rst     38h
71ed ff        rst     38h
71ee ff        rst     38h
71ef ff        rst     38h
71f0 ff        rst     38h
71f1 ff        rst     38h
71f2 ff        rst     38h
71f3 ff        rst     38h
71f4 ff        rst     38h
71f5 ff        rst     38h
71f6 ff        rst     38h
71f7 ff        rst     38h
71f8 ff        rst     38h
71f9 ff        rst     38h
71fa ff        rst     38h
71fb ff        rst     38h
71fc ff        rst     38h
71fd ff        rst     38h
71fe ff        rst     38h
71ff ff        rst     38h
7200 ff        rst     38h
7201 ff        rst     38h
7202 ff        rst     38h
7203 ff        rst     38h
7204 ff        rst     38h
7205 ff        rst     38h
7206 ff        rst     38h
7207 ff        rst     38h
7208 ff        rst     38h
7209 ff        rst     38h
720a ff        rst     38h
720b ff        rst     38h
720c ff        rst     38h
720d ff        rst     38h
720e ff        rst     38h
720f ff        rst     38h
7210 ff        rst     38h
7211 ff        rst     38h
7212 ff        rst     38h
7213 ff        rst     38h
7214 ff        rst     38h
7215 ff        rst     38h
7216 ff        rst     38h
7217 ff        rst     38h
7218 ff        rst     38h
7219 ff        rst     38h
721a ff        rst     38h
721b ff        rst     38h
721c ff        rst     38h
721d ff        rst     38h
721e ff        rst     38h
721f ff        rst     38h
7220 ff        rst     38h
7221 ff        rst     38h
7222 ff        rst     38h
7223 ff        rst     38h
7224 ff        rst     38h
7225 ff        rst     38h
7226 ff        rst     38h
7227 ff        rst     38h
7228 ff        rst     38h
7229 ff        rst     38h
722a ff        rst     38h
722b ff        rst     38h
722c ff        rst     38h
722d ff        rst     38h
722e ff        rst     38h
722f ff        rst     38h
7230 ff        rst     38h
7231 ff        rst     38h
7232 ff        rst     38h
7233 ff        rst     38h
7234 ff        rst     38h
7235 ff        rst     38h
7236 ff        rst     38h
7237 ff        rst     38h
7238 ff        rst     38h
7239 ff        rst     38h
723a ff        rst     38h
723b ff        rst     38h
723c ff        rst     38h
723d ff        rst     38h
723e ff        rst     38h
723f ff        rst     38h
7240 ff        rst     38h
7241 ff        rst     38h
7242 ff        rst     38h
7243 ff        rst     38h
7244 ff        rst     38h
7245 ff        rst     38h
7246 ff        rst     38h
7247 ff        rst     38h
7248 ff        rst     38h
7249 ff        rst     38h
724a ff        rst     38h
724b ff        rst     38h
724c ff        rst     38h
724d ff        rst     38h
724e ff        rst     38h
724f ff        rst     38h
7250 ff        rst     38h
7251 ff        rst     38h
7252 ff        rst     38h
7253 ff        rst     38h
7254 ff        rst     38h
7255 ff        rst     38h
7256 ff        rst     38h
7257 ff        rst     38h
7258 ff        rst     38h
7259 ff        rst     38h
725a ff        rst     38h
725b ff        rst     38h
725c ff        rst     38h
725d ff        rst     38h
725e ff        rst     38h
725f ff        rst     38h
7260 ff        rst     38h
7261 ff        rst     38h
7262 ff        rst     38h
7263 ff        rst     38h
7264 ff        rst     38h
7265 ff        rst     38h
7266 ff        rst     38h
7267 ff        rst     38h
7268 ff        rst     38h
7269 ff        rst     38h
726a ff        rst     38h
726b ff        rst     38h
726c ff        rst     38h
726d ff        rst     38h
726e ff        rst     38h
726f ff        rst     38h
7270 ff        rst     38h
7271 ff        rst     38h
7272 ff        rst     38h
7273 ff        rst     38h
7274 ff        rst     38h
7275 ff        rst     38h
7276 ff        rst     38h
7277 ff        rst     38h
7278 ff        rst     38h
7279 ff        rst     38h
727a ff        rst     38h
727b ff        rst     38h
727c ff        rst     38h
727d ff        rst     38h
727e ff        rst     38h
727f ff        rst     38h
7280 ff        rst     38h
7281 ff        rst     38h
7282 ff        rst     38h
7283 ff        rst     38h
7284 ff        rst     38h
7285 ff        rst     38h
7286 ff        rst     38h
7287 ff        rst     38h
7288 ff        rst     38h
7289 ff        rst     38h
728a ff        rst     38h
728b ff        rst     38h
728c ff        rst     38h
728d ff        rst     38h
728e ff        rst     38h
728f ff        rst     38h
7290 ff        rst     38h
7291 ff        rst     38h
7292 ff        rst     38h
7293 ff        rst     38h
7294 ff        rst     38h
7295 ff        rst     38h
7296 ff        rst     38h
7297 ff        rst     38h
7298 ff        rst     38h
7299 ff        rst     38h
729a ff        rst     38h
729b ff        rst     38h
729c ff        rst     38h
729d ff        rst     38h
729e ff        rst     38h
729f ff        rst     38h
72a0 ff        rst     38h
72a1 ff        rst     38h
72a2 ff        rst     38h
72a3 ff        rst     38h
72a4 ff        rst     38h
72a5 ff        rst     38h
72a6 ff        rst     38h
72a7 ff        rst     38h
72a8 ff        rst     38h
72a9 ff        rst     38h
72aa ff        rst     38h
72ab ff        rst     38h
72ac ff        rst     38h
72ad ff        rst     38h
72ae ff        rst     38h
72af ff        rst     38h
72b0 ff        rst     38h
72b1 ff        rst     38h
72b2 ff        rst     38h
72b3 ff        rst     38h
72b4 ff        rst     38h
72b5 ff        rst     38h
72b6 ff        rst     38h
72b7 ff        rst     38h
72b8 ff        rst     38h
72b9 ff        rst     38h
72ba ff        rst     38h
72bb ff        rst     38h
72bc ff        rst     38h
72bd ff        rst     38h
72be ff        rst     38h
72bf ff        rst     38h
72c0 ff        rst     38h
72c1 ff        rst     38h
72c2 ff        rst     38h
72c3 ff        rst     38h
72c4 ff        rst     38h
72c5 ff        rst     38h
72c6 ff        rst     38h
72c7 ff        rst     38h
72c8 ff        rst     38h
72c9 ff        rst     38h
72ca ff        rst     38h
72cb ff        rst     38h
72cc ff        rst     38h
72cd ff        rst     38h
72ce ff        rst     38h
72cf ff        rst     38h
72d0 ff        rst     38h
72d1 ff        rst     38h
72d2 ff        rst     38h
72d3 ff        rst     38h
72d4 ff        rst     38h
72d5 ff        rst     38h
72d6 ff        rst     38h
72d7 ff        rst     38h
72d8 ff        rst     38h
72d9 ff        rst     38h
72da ff        rst     38h
72db ff        rst     38h
72dc ff        rst     38h
72dd ff        rst     38h
72de ff        rst     38h
72df ff        rst     38h
72e0 ff        rst     38h
72e1 ff        rst     38h
72e2 ff        rst     38h
72e3 ff        rst     38h
72e4 ff        rst     38h
72e5 ff        rst     38h
72e6 ff        rst     38h
72e7 ff        rst     38h
72e8 ff        rst     38h
72e9 ff        rst     38h
72ea ff        rst     38h
72eb ff        rst     38h
72ec ff        rst     38h
72ed ff        rst     38h
72ee ff        rst     38h
72ef ff        rst     38h
72f0 ff        rst     38h
72f1 ff        rst     38h
72f2 ff        rst     38h
72f3 ff        rst     38h
72f4 ff        rst     38h
72f5 ff        rst     38h
72f6 ff        rst     38h
72f7 ff        rst     38h
72f8 ff        rst     38h
72f9 ff        rst     38h
72fa ff        rst     38h
72fb ff        rst     38h
72fc ff        rst     38h
72fd ff        rst     38h
72fe ff        rst     38h
72ff ff        rst     38h
7300 ff        rst     38h
7301 ff        rst     38h
7302 ff        rst     38h
7303 ff        rst     38h
7304 ff        rst     38h
7305 ff        rst     38h
7306 ff        rst     38h
7307 ff        rst     38h
7308 ff        rst     38h
7309 ff        rst     38h
730a ff        rst     38h
730b ff        rst     38h
730c ff        rst     38h
730d ff        rst     38h
730e ff        rst     38h
730f ff        rst     38h
7310 ff        rst     38h
7311 ff        rst     38h
7312 ff        rst     38h
7313 ff        rst     38h
7314 ff        rst     38h
7315 ff        rst     38h
7316 ff        rst     38h
7317 ff        rst     38h
7318 ff        rst     38h
7319 ff        rst     38h
731a ff        rst     38h
731b ff        rst     38h
731c ff        rst     38h
731d ff        rst     38h
731e ff        rst     38h
731f ff        rst     38h
7320 ff        rst     38h
7321 ff        rst     38h
7322 ff        rst     38h
7323 ff        rst     38h
7324 ff        rst     38h
7325 ff        rst     38h
7326 ff        rst     38h
7327 ff        rst     38h
7328 ff        rst     38h
7329 ff        rst     38h
732a ff        rst     38h
732b ff        rst     38h
732c ff        rst     38h
732d ff        rst     38h
732e ff        rst     38h
732f ff        rst     38h
7330 ff        rst     38h
7331 ff        rst     38h
7332 ff        rst     38h
7333 ff        rst     38h
7334 ff        rst     38h
7335 ff        rst     38h
7336 ff        rst     38h
7337 ff        rst     38h
7338 ff        rst     38h
7339 ff        rst     38h
733a ff        rst     38h
733b ff        rst     38h
733c ff        rst     38h
733d ff        rst     38h
733e ff        rst     38h
733f ff        rst     38h
7340 ff        rst     38h
7341 ff        rst     38h
7342 ff        rst     38h
7343 ff        rst     38h
7344 ff        rst     38h
7345 ff        rst     38h
7346 ff        rst     38h
7347 ff        rst     38h
7348 ff        rst     38h
7349 ff        rst     38h
734a ff        rst     38h
734b ff        rst     38h
734c ff        rst     38h
734d ff        rst     38h
734e ff        rst     38h
734f ff        rst     38h
7350 ff        rst     38h
7351 ff        rst     38h
7352 ff        rst     38h
7353 ff        rst     38h
7354 ff        rst     38h
7355 ff        rst     38h
7356 ff        rst     38h
7357 ff        rst     38h
7358 ff        rst     38h
7359 ff        rst     38h
735a ff        rst     38h
735b ff        rst     38h
735c ff        rst     38h
735d ff        rst     38h
735e ff        rst     38h
735f ff        rst     38h
7360 ff        rst     38h
7361 ff        rst     38h
7362 ff        rst     38h
7363 ff        rst     38h
7364 ff        rst     38h
7365 ff        rst     38h
7366 ff        rst     38h
7367 ff        rst     38h
7368 ff        rst     38h
7369 ff        rst     38h
736a ff        rst     38h
736b ff        rst     38h
736c ff        rst     38h
736d ff        rst     38h
736e ff        rst     38h
736f ff        rst     38h
7370 ff        rst     38h
7371 ff        rst     38h
7372 ff        rst     38h
7373 ff        rst     38h
7374 ff        rst     38h
7375 ff        rst     38h
7376 ff        rst     38h
7377 ff        rst     38h
7378 ff        rst     38h
7379 ff        rst     38h
737a ff        rst     38h
737b ff        rst     38h
737c ff        rst     38h
737d ff        rst     38h
737e ff        rst     38h
737f ff        rst     38h
7380 ff        rst     38h
7381 ff        rst     38h
7382 ff        rst     38h
7383 ff        rst     38h
7384 ff        rst     38h
7385 ff        rst     38h
7386 ff        rst     38h
7387 ff        rst     38h
7388 ff        rst     38h
7389 ff        rst     38h
738a ff        rst     38h
738b ff        rst     38h
738c ff        rst     38h
738d ff        rst     38h
738e ff        rst     38h
738f ff        rst     38h
7390 ff        rst     38h
7391 ff        rst     38h
7392 ff        rst     38h
7393 ff        rst     38h
7394 ff        rst     38h
7395 ff        rst     38h
7396 ff        rst     38h
7397 ff        rst     38h
7398 ff        rst     38h
7399 ff        rst     38h
739a ff        rst     38h
739b ff        rst     38h
739c ff        rst     38h
739d ff        rst     38h
739e ff        rst     38h
739f ff        rst     38h
73a0 ff        rst     38h
73a1 ff        rst     38h
73a2 ff        rst     38h
73a3 ff        rst     38h
73a4 ff        rst     38h
73a5 ff        rst     38h
73a6 ff        rst     38h
73a7 ff        rst     38h
73a8 ff        rst     38h
73a9 ff        rst     38h
73aa ff        rst     38h
73ab ff        rst     38h
73ac ff        rst     38h
73ad ff        rst     38h
73ae ff        rst     38h
73af ff        rst     38h
73b0 ff        rst     38h
73b1 ff        rst     38h
73b2 ff        rst     38h
73b3 ff        rst     38h
73b4 ff        rst     38h
73b5 ff        rst     38h
73b6 ff        rst     38h
73b7 ff        rst     38h
73b8 ff        rst     38h
73b9 ff        rst     38h
73ba ff        rst     38h
73bb ff        rst     38h
73bc ff        rst     38h
73bd ff        rst     38h
73be ff        rst     38h
73bf ff        rst     38h
73c0 ff        rst     38h
73c1 ff        rst     38h
73c2 ff        rst     38h
73c3 ff        rst     38h
73c4 ff        rst     38h
73c5 ff        rst     38h
73c6 ff        rst     38h
73c7 ff        rst     38h
73c8 ff        rst     38h
73c9 ff        rst     38h
73ca ff        rst     38h
73cb ff        rst     38h
73cc ff        rst     38h
73cd ff        rst     38h
73ce ff        rst     38h
73cf ff        rst     38h
73d0 ff        rst     38h
73d1 ff        rst     38h
73d2 ff        rst     38h
73d3 ff        rst     38h
73d4 ff        rst     38h
73d5 ff        rst     38h
73d6 ff        rst     38h
73d7 ff        rst     38h
73d8 ff        rst     38h
73d9 ff        rst     38h
73da ff        rst     38h
73db ff        rst     38h
73dc ff        rst     38h
73dd ff        rst     38h
73de ff        rst     38h
73df ff        rst     38h
73e0 ff        rst     38h
73e1 ff        rst     38h
73e2 ff        rst     38h
73e3 ff        rst     38h
73e4 ff        rst     38h
73e5 ff        rst     38h
73e6 ff        rst     38h
73e7 ff        rst     38h
73e8 ff        rst     38h
73e9 ff        rst     38h
73ea ff        rst     38h
73eb ff        rst     38h
73ec ff        rst     38h
73ed ff        rst     38h
73ee ff        rst     38h
73ef ff        rst     38h
73f0 ff        rst     38h
73f1 ff        rst     38h
73f2 ff        rst     38h
73f3 ff        rst     38h
73f4 ff        rst     38h
73f5 ff        rst     38h
73f6 ff        rst     38h
73f7 ff        rst     38h
73f8 ff        rst     38h
73f9 ff        rst     38h
73fa ff        rst     38h
73fb ff        rst     38h
73fc ff        rst     38h
73fd ff        rst     38h
73fe ff        rst     38h
73ff ff        rst     38h
7400 ff        rst     38h
7401 ff        rst     38h
7402 ff        rst     38h
7403 ff        rst     38h
7404 ff        rst     38h
7405 ff        rst     38h
7406 ff        rst     38h
7407 ff        rst     38h
7408 ff        rst     38h
7409 ff        rst     38h
740a ff        rst     38h
740b ff        rst     38h
740c ff        rst     38h
740d ff        rst     38h
740e ff        rst     38h
740f ff        rst     38h
7410 ff        rst     38h
7411 ff        rst     38h
7412 ff        rst     38h
7413 ff        rst     38h
7414 ff        rst     38h
7415 ff        rst     38h
7416 ff        rst     38h
7417 ff        rst     38h
7418 ff        rst     38h
7419 ff        rst     38h
741a ff        rst     38h
741b ff        rst     38h
741c ff        rst     38h
741d ff        rst     38h
741e ff        rst     38h
741f ff        rst     38h
7420 ff        rst     38h
7421 ff        rst     38h
7422 ff        rst     38h
7423 ff        rst     38h
7424 ff        rst     38h
7425 ff        rst     38h
7426 ff        rst     38h
7427 ff        rst     38h
7428 ff        rst     38h
7429 ff        rst     38h
742a ff        rst     38h
742b ff        rst     38h
742c ff        rst     38h
742d ff        rst     38h
742e ff        rst     38h
742f ff        rst     38h
7430 ff        rst     38h
7431 ff        rst     38h
7432 ff        rst     38h
7433 ff        rst     38h
7434 ff        rst     38h
7435 ff        rst     38h
7436 ff        rst     38h
7437 ff        rst     38h
7438 ff        rst     38h
7439 ff        rst     38h
743a ff        rst     38h
743b ff        rst     38h
743c ff        rst     38h
743d ff        rst     38h
743e ff        rst     38h
743f ff        rst     38h
7440 ff        rst     38h
7441 ff        rst     38h
7442 ff        rst     38h
7443 ff        rst     38h
7444 ff        rst     38h
7445 ff        rst     38h
7446 ff        rst     38h
7447 ff        rst     38h
7448 ff        rst     38h
7449 ff        rst     38h
744a ff        rst     38h
744b ff        rst     38h
744c ff        rst     38h
744d ff        rst     38h
744e ff        rst     38h
744f ff        rst     38h
7450 ff        rst     38h
7451 ff        rst     38h
7452 ff        rst     38h
7453 ff        rst     38h
7454 ff        rst     38h
7455 ff        rst     38h
7456 ff        rst     38h
7457 ff        rst     38h
7458 ff        rst     38h
7459 ff        rst     38h
745a ff        rst     38h
745b ff        rst     38h
745c ff        rst     38h
745d ff        rst     38h
745e ff        rst     38h
745f ff        rst     38h
7460 ff        rst     38h
7461 ff        rst     38h
7462 ff        rst     38h
7463 ff        rst     38h
7464 ff        rst     38h
7465 ff        rst     38h
7466 ff        rst     38h
7467 ff        rst     38h
7468 ff        rst     38h
7469 ff        rst     38h
746a ff        rst     38h
746b ff        rst     38h
746c ff        rst     38h
746d ff        rst     38h
746e ff        rst     38h
746f ff        rst     38h
7470 ff        rst     38h
7471 ff        rst     38h
7472 ff        rst     38h
7473 ff        rst     38h
7474 ff        rst     38h
7475 ff        rst     38h
7476 ff        rst     38h
7477 ff        rst     38h
7478 ff        rst     38h
7479 ff        rst     38h
747a ff        rst     38h
747b ff        rst     38h
747c ff        rst     38h
747d ff        rst     38h
747e ff        rst     38h
747f ff        rst     38h
7480 ff        rst     38h
7481 ff        rst     38h
7482 ff        rst     38h
7483 ff        rst     38h
7484 ff        rst     38h
7485 ff        rst     38h
7486 ff        rst     38h
7487 ff        rst     38h
7488 ff        rst     38h
7489 ff        rst     38h
748a ff        rst     38h
748b ff        rst     38h
748c ff        rst     38h
748d ff        rst     38h
748e ff        rst     38h
748f ff        rst     38h
7490 ff        rst     38h
7491 ff        rst     38h
7492 ff        rst     38h
7493 ff        rst     38h
7494 ff        rst     38h
7495 ff        rst     38h
7496 ff        rst     38h
7497 ff        rst     38h
7498 ff        rst     38h
7499 ff        rst     38h
749a ff        rst     38h
749b ff        rst     38h
749c ff        rst     38h
749d ff        rst     38h
749e ff        rst     38h
749f ff        rst     38h
74a0 ff        rst     38h
74a1 ff        rst     38h
74a2 ff        rst     38h
74a3 ff        rst     38h
74a4 ff        rst     38h
74a5 ff        rst     38h
74a6 ff        rst     38h
74a7 ff        rst     38h
74a8 ff        rst     38h
74a9 ff        rst     38h
74aa ff        rst     38h
74ab ff        rst     38h
74ac ff        rst     38h
74ad ff        rst     38h
74ae ff        rst     38h
74af ff        rst     38h
74b0 ff        rst     38h
74b1 ff        rst     38h
74b2 ff        rst     38h
74b3 ff        rst     38h
74b4 ff        rst     38h
74b5 ff        rst     38h
74b6 ff        rst     38h
74b7 ff        rst     38h
74b8 ff        rst     38h
74b9 ff        rst     38h
74ba ff        rst     38h
74bb ff        rst     38h
74bc ff        rst     38h
74bd ff        rst     38h
74be ff        rst     38h
74bf ff        rst     38h
74c0 ff        rst     38h
74c1 ff        rst     38h
74c2 ff        rst     38h
74c3 ff        rst     38h
74c4 ff        rst     38h
74c5 ff        rst     38h
74c6 ff        rst     38h
74c7 ff        rst     38h
74c8 ff        rst     38h
74c9 ff        rst     38h
74ca ff        rst     38h
74cb ff        rst     38h
74cc ff        rst     38h
74cd ff        rst     38h
74ce ff        rst     38h
74cf ff        rst     38h
74d0 ff        rst     38h
74d1 ff        rst     38h
74d2 ff        rst     38h
74d3 ff        rst     38h
74d4 ff        rst     38h
74d5 ff        rst     38h
74d6 ff        rst     38h
74d7 ff        rst     38h
74d8 ff        rst     38h
74d9 ff        rst     38h
74da ff        rst     38h
74db ff        rst     38h
74dc ff        rst     38h
74dd ff        rst     38h
74de ff        rst     38h
74df ff        rst     38h
74e0 ff        rst     38h
74e1 ff        rst     38h
74e2 ff        rst     38h
74e3 ff        rst     38h
74e4 ff        rst     38h
74e5 ff        rst     38h
74e6 ff        rst     38h
74e7 ff        rst     38h
74e8 ff        rst     38h
74e9 ff        rst     38h
74ea ff        rst     38h
74eb ff        rst     38h
74ec ff        rst     38h
74ed ff        rst     38h
74ee ff        rst     38h
74ef ff        rst     38h
74f0 ff        rst     38h
74f1 ff        rst     38h
74f2 ff        rst     38h
74f3 ff        rst     38h
74f4 ff        rst     38h
74f5 ff        rst     38h
74f6 ff        rst     38h
74f7 ff        rst     38h
74f8 ff        rst     38h
74f9 ff        rst     38h
74fa ff        rst     38h
74fb ff        rst     38h
74fc ff        rst     38h
74fd ff        rst     38h
74fe ff        rst     38h
74ff ff        rst     38h
7500 ff        rst     38h
7501 ff        rst     38h
7502 ff        rst     38h
7503 ff        rst     38h
7504 ff        rst     38h
7505 ff        rst     38h
7506 ff        rst     38h
7507 ff        rst     38h
7508 ff        rst     38h
7509 ff        rst     38h
750a ff        rst     38h
750b ff        rst     38h
750c ff        rst     38h
750d ff        rst     38h
750e ff        rst     38h
750f ff        rst     38h
7510 ff        rst     38h
7511 ff        rst     38h
7512 ff        rst     38h
7513 ff        rst     38h
7514 ff        rst     38h
7515 ff        rst     38h
7516 ff        rst     38h
7517 ff        rst     38h
7518 ff        rst     38h
7519 ff        rst     38h
751a ff        rst     38h
751b ff        rst     38h
751c ff        rst     38h
751d ff        rst     38h
751e ff        rst     38h
751f ff        rst     38h
7520 ff        rst     38h
7521 ff        rst     38h
7522 ff        rst     38h
7523 ff        rst     38h
7524 ff        rst     38h
7525 ff        rst     38h
7526 ff        rst     38h
7527 ff        rst     38h
7528 ff        rst     38h
7529 ff        rst     38h
752a ff        rst     38h
752b ff        rst     38h
752c ff        rst     38h
752d ff        rst     38h
752e ff        rst     38h
752f ff        rst     38h
7530 ff        rst     38h
7531 ff        rst     38h
7532 ff        rst     38h
7533 ff        rst     38h
7534 ff        rst     38h
7535 ff        rst     38h
7536 ff        rst     38h
7537 ff        rst     38h
7538 ff        rst     38h
7539 ff        rst     38h
753a ff        rst     38h
753b ff        rst     38h
753c ff        rst     38h
753d ff        rst     38h
753e ff        rst     38h
753f ff        rst     38h
7540 ff        rst     38h
7541 ff        rst     38h
7542 ff        rst     38h
7543 ff        rst     38h
7544 ff        rst     38h
7545 ff        rst     38h
7546 ff        rst     38h
7547 ff        rst     38h
7548 ff        rst     38h
7549 ff        rst     38h
754a ff        rst     38h
754b ff        rst     38h
754c ff        rst     38h
754d ff        rst     38h
754e ff        rst     38h
754f ff        rst     38h
7550 ff        rst     38h
7551 ff        rst     38h
7552 ff        rst     38h
7553 ff        rst     38h
7554 ff        rst     38h
7555 ff        rst     38h
7556 ff        rst     38h
7557 ff        rst     38h
7558 ff        rst     38h
7559 ff        rst     38h
755a ff        rst     38h
755b ff        rst     38h
755c ff        rst     38h
755d ff        rst     38h
755e ff        rst     38h
755f ff        rst     38h
7560 ff        rst     38h
7561 ff        rst     38h
7562 ff        rst     38h
7563 ff        rst     38h
7564 ff        rst     38h
7565 ff        rst     38h
7566 ff        rst     38h
7567 ff        rst     38h
7568 ff        rst     38h
7569 ff        rst     38h
756a ff        rst     38h
756b ff        rst     38h
756c ff        rst     38h
756d ff        rst     38h
756e ff        rst     38h
756f ff        rst     38h
7570 ff        rst     38h
7571 ff        rst     38h
7572 ff        rst     38h
7573 ff        rst     38h
7574 ff        rst     38h
7575 ff        rst     38h
7576 ff        rst     38h
7577 ff        rst     38h
7578 ff        rst     38h
7579 ff        rst     38h
757a ff        rst     38h
757b ff        rst     38h
757c ff        rst     38h
757d ff        rst     38h
757e ff        rst     38h
757f ff        rst     38h
7580 ff        rst     38h
7581 ff        rst     38h
7582 ff        rst     38h
7583 ff        rst     38h
7584 ff        rst     38h
7585 ff        rst     38h
7586 ff        rst     38h
7587 ff        rst     38h
7588 ff        rst     38h
7589 ff        rst     38h
758a ff        rst     38h
758b ff        rst     38h
758c ff        rst     38h
758d ff        rst     38h
758e ff        rst     38h
758f ff        rst     38h
7590 ff        rst     38h
7591 ff        rst     38h
7592 ff        rst     38h
7593 ff        rst     38h
7594 ff        rst     38h
7595 ff        rst     38h
7596 ff        rst     38h
7597 ff        rst     38h
7598 ff        rst     38h
7599 ff        rst     38h
759a ff        rst     38h
759b ff        rst     38h
759c ff        rst     38h
759d ff        rst     38h
759e ff        rst     38h
759f ff        rst     38h
75a0 ff        rst     38h
75a1 ff        rst     38h
75a2 ff        rst     38h
75a3 ff        rst     38h
75a4 ff        rst     38h
75a5 ff        rst     38h
75a6 ff        rst     38h
75a7 ff        rst     38h
75a8 ff        rst     38h
75a9 ff        rst     38h
75aa ff        rst     38h
75ab ff        rst     38h
75ac ff        rst     38h
75ad ff        rst     38h
75ae ff        rst     38h
75af ff        rst     38h
75b0 ff        rst     38h
75b1 ff        rst     38h
75b2 ff        rst     38h
75b3 ff        rst     38h
75b4 ff        rst     38h
75b5 ff        rst     38h
75b6 ff        rst     38h
75b7 ff        rst     38h
75b8 ff        rst     38h
75b9 ff        rst     38h
75ba ff        rst     38h
75bb ff        rst     38h
75bc ff        rst     38h
75bd ff        rst     38h
75be ff        rst     38h
75bf ff        rst     38h
75c0 ff        rst     38h
75c1 ff        rst     38h
75c2 ff        rst     38h
75c3 ff        rst     38h
75c4 ff        rst     38h
75c5 ff        rst     38h
75c6 ff        rst     38h
75c7 ff        rst     38h
75c8 ff        rst     38h
75c9 ff        rst     38h
75ca ff        rst     38h
75cb ff        rst     38h
75cc ff        rst     38h
75cd ff        rst     38h
75ce ff        rst     38h
75cf ff        rst     38h
75d0 ff        rst     38h
75d1 ff        rst     38h
75d2 ff        rst     38h
75d3 ff        rst     38h
75d4 ff        rst     38h
75d5 ff        rst     38h
75d6 ff        rst     38h
75d7 ff        rst     38h
75d8 ff        rst     38h
75d9 ff        rst     38h
75da ff        rst     38h
75db ff        rst     38h
75dc ff        rst     38h
75dd ff        rst     38h
75de ff        rst     38h
75df ff        rst     38h
75e0 ff        rst     38h
75e1 ff        rst     38h
75e2 ff        rst     38h
75e3 ff        rst     38h
75e4 ff        rst     38h
75e5 ff        rst     38h
75e6 ff        rst     38h
75e7 ff        rst     38h
75e8 ff        rst     38h
75e9 ff        rst     38h
75ea ff        rst     38h
75eb ff        rst     38h
75ec ff        rst     38h
75ed ff        rst     38h
75ee ff        rst     38h
75ef ff        rst     38h
75f0 ff        rst     38h
75f1 ff        rst     38h
75f2 ff        rst     38h
75f3 ff        rst     38h
75f4 ff        rst     38h
75f5 ff        rst     38h
75f6 ff        rst     38h
75f7 ff        rst     38h
75f8 ff        rst     38h
75f9 ff        rst     38h
75fa ff        rst     38h
75fb ff        rst     38h
75fc ff        rst     38h
75fd ff        rst     38h
75fe ff        rst     38h
75ff ff        rst     38h
7600 ff        rst     38h
7601 ff        rst     38h
7602 ff        rst     38h
7603 ff        rst     38h
7604 ff        rst     38h
7605 ff        rst     38h
7606 ff        rst     38h
7607 ff        rst     38h
7608 ff        rst     38h
7609 ff        rst     38h
760a ff        rst     38h
760b ff        rst     38h
760c ff        rst     38h
760d ff        rst     38h
760e ff        rst     38h
760f ff        rst     38h
7610 ff        rst     38h
7611 ff        rst     38h
7612 ff        rst     38h
7613 ff        rst     38h
7614 ff        rst     38h
7615 ff        rst     38h
7616 ff        rst     38h
7617 ff        rst     38h
7618 ff        rst     38h
7619 ff        rst     38h
761a ff        rst     38h
761b ff        rst     38h
761c ff        rst     38h
761d ff        rst     38h
761e ff        rst     38h
761f ff        rst     38h
7620 ff        rst     38h
7621 ff        rst     38h
7622 ff        rst     38h
7623 ff        rst     38h
7624 ff        rst     38h
7625 ff        rst     38h
7626 ff        rst     38h
7627 ff        rst     38h
7628 ff        rst     38h
7629 ff        rst     38h
762a ff        rst     38h
762b ff        rst     38h
762c ff        rst     38h
762d ff        rst     38h
762e ff        rst     38h
762f ff        rst     38h
7630 ff        rst     38h
7631 ff        rst     38h
7632 ff        rst     38h
7633 ff        rst     38h
7634 ff        rst     38h
7635 ff        rst     38h
7636 ff        rst     38h
7637 ff        rst     38h
7638 ff        rst     38h
7639 ff        rst     38h
763a ff        rst     38h
763b ff        rst     38h
763c ff        rst     38h
763d ff        rst     38h
763e ff        rst     38h
763f ff        rst     38h
7640 ff        rst     38h
7641 ff        rst     38h
7642 ff        rst     38h
7643 ff        rst     38h
7644 ff        rst     38h
7645 ff        rst     38h
7646 ff        rst     38h
7647 ff        rst     38h
7648 ff        rst     38h
7649 ff        rst     38h
764a ff        rst     38h
764b ff        rst     38h
764c ff        rst     38h
764d ff        rst     38h
764e ff        rst     38h
764f ff        rst     38h
7650 ff        rst     38h
7651 ff        rst     38h
7652 ff        rst     38h
7653 ff        rst     38h
7654 ff        rst     38h
7655 ff        rst     38h
7656 ff        rst     38h
7657 ff        rst     38h
7658 ff        rst     38h
7659 ff        rst     38h
765a ff        rst     38h
765b ff        rst     38h
765c ff        rst     38h
765d ff        rst     38h
765e ff        rst     38h
765f ff        rst     38h
7660 ff        rst     38h
7661 ff        rst     38h
7662 ff        rst     38h
7663 ff        rst     38h
7664 ff        rst     38h
7665 ff        rst     38h
7666 ff        rst     38h
7667 ff        rst     38h
7668 ff        rst     38h
7669 ff        rst     38h
766a ff        rst     38h
766b ff        rst     38h
766c ff        rst     38h
766d ff        rst     38h
766e ff        rst     38h
766f ff        rst     38h
7670 ff        rst     38h
7671 ff        rst     38h
7672 ff        rst     38h
7673 ff        rst     38h
7674 ff        rst     38h
7675 ff        rst     38h
7676 ff        rst     38h
7677 ff        rst     38h
7678 ff        rst     38h
7679 ff        rst     38h
767a ff        rst     38h
767b ff        rst     38h
767c ff        rst     38h
767d ff        rst     38h
767e ff        rst     38h
767f ff        rst     38h
7680 ff        rst     38h
7681 ff        rst     38h
7682 ff        rst     38h
7683 ff        rst     38h
7684 ff        rst     38h
7685 ff        rst     38h
7686 ff        rst     38h
7687 ff        rst     38h
7688 ff        rst     38h
7689 ff        rst     38h
768a ff        rst     38h
768b ff        rst     38h
768c ff        rst     38h
768d ff        rst     38h
768e ff        rst     38h
768f ff        rst     38h
7690 ff        rst     38h
7691 ff        rst     38h
7692 ff        rst     38h
7693 ff        rst     38h
7694 ff        rst     38h
7695 ff        rst     38h
7696 ff        rst     38h
7697 ff        rst     38h
7698 ff        rst     38h
7699 ff        rst     38h
769a ff        rst     38h
769b ff        rst     38h
769c ff        rst     38h
769d ff        rst     38h
769e ff        rst     38h
769f ff        rst     38h
76a0 ff        rst     38h
76a1 ff        rst     38h
76a2 ff        rst     38h
76a3 ff        rst     38h
76a4 ff        rst     38h
76a5 ff        rst     38h
76a6 ff        rst     38h
76a7 ff        rst     38h
76a8 ff        rst     38h
76a9 ff        rst     38h
76aa ff        rst     38h
76ab ff        rst     38h
76ac ff        rst     38h
76ad ff        rst     38h
76ae ff        rst     38h
76af ff        rst     38h
76b0 ff        rst     38h
76b1 ff        rst     38h
76b2 ff        rst     38h
76b3 ff        rst     38h
76b4 ff        rst     38h
76b5 ff        rst     38h
76b6 ff        rst     38h
76b7 ff        rst     38h
76b8 ff        rst     38h
76b9 ff        rst     38h
76ba ff        rst     38h
76bb ff        rst     38h
76bc ff        rst     38h
76bd ff        rst     38h
76be ff        rst     38h
76bf ff        rst     38h
76c0 ff        rst     38h
76c1 ff        rst     38h
76c2 ff        rst     38h
76c3 ff        rst     38h
76c4 ff        rst     38h
76c5 ff        rst     38h
76c6 ff        rst     38h
76c7 ff        rst     38h
76c8 ff        rst     38h
76c9 ff        rst     38h
76ca ff        rst     38h
76cb ff        rst     38h
76cc ff        rst     38h
76cd ff        rst     38h
76ce ff        rst     38h
76cf ff        rst     38h
76d0 ff        rst     38h
76d1 ff        rst     38h
76d2 ff        rst     38h
76d3 ff        rst     38h
76d4 ff        rst     38h
76d5 ff        rst     38h
76d6 ff        rst     38h
76d7 ff        rst     38h
76d8 ff        rst     38h
76d9 ff        rst     38h
76da ff        rst     38h
76db ff        rst     38h
76dc ff        rst     38h
76dd ff        rst     38h
76de ff        rst     38h
76df ff        rst     38h
76e0 ff        rst     38h
76e1 ff        rst     38h
76e2 ff        rst     38h
76e3 ff        rst     38h
76e4 ff        rst     38h
76e5 ff        rst     38h
76e6 ff        rst     38h
76e7 ff        rst     38h
76e8 ff        rst     38h
76e9 ff        rst     38h
76ea ff        rst     38h
76eb ff        rst     38h
76ec ff        rst     38h
76ed ff        rst     38h
76ee ff        rst     38h
76ef ff        rst     38h
76f0 ff        rst     38h
76f1 ff        rst     38h
76f2 ff        rst     38h
76f3 ff        rst     38h
76f4 ff        rst     38h
76f5 ff        rst     38h
76f6 ff        rst     38h
76f7 ff        rst     38h
76f8 ff        rst     38h
76f9 ff        rst     38h
76fa ff        rst     38h
76fb ff        rst     38h
76fc ff        rst     38h
76fd ff        rst     38h
76fe ff        rst     38h
76ff ff        rst     38h
7700 ff        rst     38h
7701 ff        rst     38h
7702 ff        rst     38h
7703 ff        rst     38h
7704 ff        rst     38h
7705 ff        rst     38h
7706 ff        rst     38h
7707 ff        rst     38h
7708 ff        rst     38h
7709 ff        rst     38h
770a ff        rst     38h
770b ff        rst     38h
770c ff        rst     38h
770d ff        rst     38h
770e ff        rst     38h
770f ff        rst     38h
7710 ff        rst     38h
7711 ff        rst     38h
7712 ff        rst     38h
7713 ff        rst     38h
7714 ff        rst     38h
7715 ff        rst     38h
7716 ff        rst     38h
7717 ff        rst     38h
7718 ff        rst     38h
7719 ff        rst     38h
771a ff        rst     38h
771b ff        rst     38h
771c ff        rst     38h
771d ff        rst     38h
771e ff        rst     38h
771f ff        rst     38h
7720 ff        rst     38h
7721 ff        rst     38h
7722 ff        rst     38h
7723 ff        rst     38h
7724 ff        rst     38h
7725 ff        rst     38h
7726 ff        rst     38h
7727 ff        rst     38h
7728 ff        rst     38h
7729 ff        rst     38h
772a ff        rst     38h
772b ff        rst     38h
772c ff        rst     38h
772d ff        rst     38h
772e ff        rst     38h
772f ff        rst     38h
7730 ff        rst     38h
7731 ff        rst     38h
7732 ff        rst     38h
7733 ff        rst     38h
7734 ff        rst     38h
7735 ff        rst     38h
7736 ff        rst     38h
7737 ff        rst     38h
7738 ff        rst     38h
7739 ff        rst     38h
773a ff        rst     38h
773b ff        rst     38h
773c ff        rst     38h
773d ff        rst     38h
773e ff        rst     38h
773f ff        rst     38h
7740 ff        rst     38h
7741 ff        rst     38h
7742 ff        rst     38h
7743 ff        rst     38h
7744 ff        rst     38h
7745 ff        rst     38h
7746 ff        rst     38h
7747 ff        rst     38h
7748 ff        rst     38h
7749 ff        rst     38h
774a ff        rst     38h
774b ff        rst     38h
774c ff        rst     38h
774d ff        rst     38h
774e ff        rst     38h
774f ff        rst     38h
7750 ff        rst     38h
7751 ff        rst     38h
7752 ff        rst     38h
7753 ff        rst     38h
7754 ff        rst     38h
7755 ff        rst     38h
7756 ff        rst     38h
7757 ff        rst     38h
7758 ff        rst     38h
7759 ff        rst     38h
775a ff        rst     38h
775b ff        rst     38h
775c ff        rst     38h
775d ff        rst     38h
775e ff        rst     38h
775f ff        rst     38h
7760 ff        rst     38h
7761 ff        rst     38h
7762 ff        rst     38h
7763 ff        rst     38h
7764 ff        rst     38h
7765 ff        rst     38h
7766 ff        rst     38h
7767 ff        rst     38h
7768 ff        rst     38h
7769 ff        rst     38h
776a ff        rst     38h
776b ff        rst     38h
776c ff        rst     38h
776d ff        rst     38h
776e ff        rst     38h
776f ff        rst     38h
7770 ff        rst     38h
7771 ff        rst     38h
7772 ff        rst     38h
7773 ff        rst     38h
7774 ff        rst     38h
7775 ff        rst     38h
7776 ff        rst     38h
7777 ff        rst     38h
7778 ff        rst     38h
7779 ff        rst     38h
777a ff        rst     38h
777b ff        rst     38h
777c ff        rst     38h
777d ff        rst     38h
777e ff        rst     38h
777f ff        rst     38h
7780 ff        rst     38h
7781 ff        rst     38h
7782 ff        rst     38h
7783 ff        rst     38h
7784 ff        rst     38h
7785 ff        rst     38h
7786 ff        rst     38h
7787 ff        rst     38h
7788 ff        rst     38h
7789 ff        rst     38h
778a ff        rst     38h
778b ff        rst     38h
778c ff        rst     38h
778d ff        rst     38h
778e ff        rst     38h
778f ff        rst     38h
7790 ff        rst     38h
7791 ff        rst     38h
7792 ff        rst     38h
7793 ff        rst     38h
7794 ff        rst     38h
7795 ff        rst     38h
7796 ff        rst     38h
7797 ff        rst     38h
7798 ff        rst     38h
7799 ff        rst     38h
779a ff        rst     38h
779b ff        rst     38h
779c ff        rst     38h
779d ff        rst     38h
779e ff        rst     38h
779f ff        rst     38h
77a0 ff        rst     38h
77a1 ff        rst     38h
77a2 ff        rst     38h
77a3 ff        rst     38h
77a4 ff        rst     38h
77a5 ff        rst     38h
77a6 ff        rst     38h
77a7 ff        rst     38h
77a8 ff        rst     38h
77a9 ff        rst     38h
77aa ff        rst     38h
77ab ff        rst     38h
77ac ff        rst     38h
77ad ff        rst     38h
77ae ff        rst     38h
77af ff        rst     38h
77b0 ff        rst     38h
77b1 ff        rst     38h
77b2 ff        rst     38h
77b3 ff        rst     38h
77b4 ff        rst     38h
77b5 ff        rst     38h
77b6 ff        rst     38h
77b7 ff        rst     38h
77b8 ff        rst     38h
77b9 ff        rst     38h
77ba ff        rst     38h
77bb ff        rst     38h
77bc ff        rst     38h
77bd ff        rst     38h
77be ff        rst     38h
77bf ff        rst     38h
77c0 ff        rst     38h
77c1 ff        rst     38h
77c2 ff        rst     38h
77c3 ff        rst     38h
77c4 ff        rst     38h
77c5 ff        rst     38h
77c6 ff        rst     38h
77c7 ff        rst     38h
77c8 ff        rst     38h
77c9 ff        rst     38h
77ca ff        rst     38h
77cb ff        rst     38h
77cc ff        rst     38h
77cd ff        rst     38h
77ce ff        rst     38h
77cf ff        rst     38h
77d0 ff        rst     38h
77d1 ff        rst     38h
77d2 ff        rst     38h
77d3 ff        rst     38h
77d4 ff        rst     38h
77d5 ff        rst     38h
77d6 ff        rst     38h
77d7 ff        rst     38h
77d8 ff        rst     38h
77d9 ff        rst     38h
77da ff        rst     38h
77db ff        rst     38h
77dc ff        rst     38h
77dd ff        rst     38h
77de ff        rst     38h
77df ff        rst     38h
77e0 ff        rst     38h
77e1 ff        rst     38h
77e2 ff        rst     38h
77e3 ff        rst     38h
77e4 ff        rst     38h
77e5 ff        rst     38h
77e6 ff        rst     38h
77e7 ff        rst     38h
77e8 ff        rst     38h
77e9 ff        rst     38h
77ea ff        rst     38h
77eb ff        rst     38h
77ec ff        rst     38h
77ed ff        rst     38h
77ee ff        rst     38h
77ef ff        rst     38h
77f0 ff        rst     38h
77f1 ff        rst     38h
77f2 ff        rst     38h
77f3 ff        rst     38h
77f4 ff        rst     38h
77f5 ff        rst     38h
77f6 ff        rst     38h
77f7 ff        rst     38h
77f8 ff        rst     38h
77f9 ff        rst     38h
77fa ff        rst     38h
77fb ff        rst     38h
77fc ff        rst     38h
77fd ff        rst     38h
77fe ff        rst     38h
77ff ff        rst     38h
7800 ff        rst     38h
7801 ff        rst     38h
7802 ff        rst     38h
7803 ff        rst     38h
7804 ff        rst     38h
7805 ff        rst     38h
7806 ff        rst     38h
7807 ff        rst     38h
7808 ff        rst     38h
7809 ff        rst     38h
780a ff        rst     38h
780b ff        rst     38h
780c ff        rst     38h
780d ff        rst     38h
780e ff        rst     38h
780f ff        rst     38h
7810 ff        rst     38h
7811 ff        rst     38h
7812 ff        rst     38h
7813 ff        rst     38h
7814 ff        rst     38h
7815 ff        rst     38h
7816 ff        rst     38h
7817 ff        rst     38h
7818 ff        rst     38h
7819 ff        rst     38h
781a ff        rst     38h
781b ff        rst     38h
781c ff        rst     38h
781d ff        rst     38h
781e ff        rst     38h
781f ff        rst     38h
7820 ff        rst     38h
7821 ff        rst     38h
7822 ff        rst     38h
7823 ff        rst     38h
7824 ff        rst     38h
7825 ff        rst     38h
7826 ff        rst     38h
7827 ff        rst     38h
7828 ff        rst     38h
7829 ff        rst     38h
782a ff        rst     38h
782b ff        rst     38h
782c ff        rst     38h
782d ff        rst     38h
782e ff        rst     38h
782f ff        rst     38h
7830 ff        rst     38h
7831 ff        rst     38h
7832 ff        rst     38h
7833 ff        rst     38h
7834 ff        rst     38h
7835 ff        rst     38h
7836 ff        rst     38h
7837 ff        rst     38h
7838 ff        rst     38h
7839 ff        rst     38h
783a ff        rst     38h
783b ff        rst     38h
783c ff        rst     38h
783d ff        rst     38h
783e ff        rst     38h
783f ff        rst     38h
7840 ff        rst     38h
7841 ff        rst     38h
7842 ff        rst     38h
7843 ff        rst     38h
7844 ff        rst     38h
7845 ff        rst     38h
7846 ff        rst     38h
7847 ff        rst     38h
7848 ff        rst     38h
7849 ff        rst     38h
784a ff        rst     38h
784b ff        rst     38h
784c ff        rst     38h
784d ff        rst     38h
784e ff        rst     38h
784f ff        rst     38h
7850 ff        rst     38h
7851 ff        rst     38h
7852 ff        rst     38h
7853 ff        rst     38h
7854 ff        rst     38h
7855 ff        rst     38h
7856 ff        rst     38h
7857 ff        rst     38h
7858 ff        rst     38h
7859 ff        rst     38h
785a ff        rst     38h
785b ff        rst     38h
785c ff        rst     38h
785d ff        rst     38h
785e ff        rst     38h
785f ff        rst     38h
7860 ff        rst     38h
7861 ff        rst     38h
7862 ff        rst     38h
7863 ff        rst     38h
7864 ff        rst     38h
7865 ff        rst     38h
7866 ff        rst     38h
7867 ff        rst     38h
7868 ff        rst     38h
7869 ff        rst     38h
786a ff        rst     38h
786b ff        rst     38h
786c ff        rst     38h
786d ff        rst     38h
786e ff        rst     38h
786f ff        rst     38h
7870 ff        rst     38h
7871 ff        rst     38h
7872 ff        rst     38h
7873 ff        rst     38h
7874 ff        rst     38h
7875 ff        rst     38h
7876 ff        rst     38h
7877 ff        rst     38h
7878 ff        rst     38h
7879 ff        rst     38h
787a ff        rst     38h
787b ff        rst     38h
787c ff        rst     38h
787d ff        rst     38h
787e ff        rst     38h
787f ff        rst     38h
7880 ff        rst     38h
7881 ff        rst     38h
7882 ff        rst     38h
7883 ff        rst     38h
7884 ff        rst     38h
7885 ff        rst     38h
7886 ff        rst     38h
7887 ff        rst     38h
7888 ff        rst     38h
7889 ff        rst     38h
788a ff        rst     38h
788b ff        rst     38h
788c ff        rst     38h
788d ff        rst     38h
788e ff        rst     38h
788f ff        rst     38h
7890 ff        rst     38h
7891 ff        rst     38h
7892 ff        rst     38h
7893 ff        rst     38h
7894 ff        rst     38h
7895 ff        rst     38h
7896 ff        rst     38h
7897 ff        rst     38h
7898 ff        rst     38h
7899 ff        rst     38h
789a ff        rst     38h
789b ff        rst     38h
789c ff        rst     38h
789d ff        rst     38h
789e ff        rst     38h
789f ff        rst     38h
78a0 ff        rst     38h
78a1 ff        rst     38h
78a2 ff        rst     38h
78a3 ff        rst     38h
78a4 ff        rst     38h
78a5 ff        rst     38h
78a6 ff        rst     38h
78a7 ff        rst     38h
78a8 ff        rst     38h
78a9 ff        rst     38h
78aa ff        rst     38h
78ab ff        rst     38h
78ac ff        rst     38h
78ad ff        rst     38h
78ae ff        rst     38h
78af ff        rst     38h
78b0 ff        rst     38h
78b1 ff        rst     38h
78b2 ff        rst     38h
78b3 ff        rst     38h
78b4 ff        rst     38h
78b5 ff        rst     38h
78b6 ff        rst     38h
78b7 ff        rst     38h
78b8 ff        rst     38h
78b9 ff        rst     38h
78ba ff        rst     38h
78bb ff        rst     38h
78bc ff        rst     38h
78bd ff        rst     38h
78be ff        rst     38h
78bf ff        rst     38h
78c0 ff        rst     38h
78c1 ff        rst     38h
78c2 ff        rst     38h
78c3 ff        rst     38h
78c4 ff        rst     38h
78c5 ff        rst     38h
78c6 ff        rst     38h
78c7 ff        rst     38h
78c8 ff        rst     38h
78c9 ff        rst     38h
78ca ff        rst     38h
78cb ff        rst     38h
78cc ff        rst     38h
78cd ff        rst     38h
78ce ff        rst     38h
78cf ff        rst     38h
78d0 ff        rst     38h
78d1 ff        rst     38h
78d2 ff        rst     38h
78d3 ff        rst     38h
78d4 ff        rst     38h
78d5 ff        rst     38h
78d6 ff        rst     38h
78d7 ff        rst     38h
78d8 ff        rst     38h
78d9 ff        rst     38h
78da ff        rst     38h
78db ff        rst     38h
78dc ff        rst     38h
78dd ff        rst     38h
78de ff        rst     38h
78df ff        rst     38h
78e0 ff        rst     38h
78e1 ff        rst     38h
78e2 ff        rst     38h
78e3 ff        rst     38h
78e4 ff        rst     38h
78e5 ff        rst     38h
78e6 ff        rst     38h
78e7 ff        rst     38h
78e8 ff        rst     38h
78e9 ff        rst     38h
78ea ff        rst     38h
78eb ff        rst     38h
78ec ff        rst     38h
78ed ff        rst     38h
78ee ff        rst     38h
78ef ff        rst     38h
78f0 ff        rst     38h
78f1 ff        rst     38h
78f2 ff        rst     38h
78f3 ff        rst     38h
78f4 ff        rst     38h
78f5 ff        rst     38h
78f6 ff        rst     38h
78f7 ff        rst     38h
78f8 ff        rst     38h
78f9 ff        rst     38h
78fa ff        rst     38h
78fb ff        rst     38h
78fc ff        rst     38h
78fd ff        rst     38h
78fe ff        rst     38h
78ff ff        rst     38h
7900 ff        rst     38h
7901 ff        rst     38h
7902 ff        rst     38h
7903 ff        rst     38h
7904 ff        rst     38h
7905 ff        rst     38h
7906 ff        rst     38h
7907 ff        rst     38h
7908 ff        rst     38h
7909 ff        rst     38h
790a ff        rst     38h
790b ff        rst     38h
790c ff        rst     38h
790d ff        rst     38h
790e ff        rst     38h
790f ff        rst     38h
7910 ff        rst     38h
7911 ff        rst     38h
7912 ff        rst     38h
7913 ff        rst     38h
7914 ff        rst     38h
7915 ff        rst     38h
7916 ff        rst     38h
7917 ff        rst     38h
7918 ff        rst     38h
7919 ff        rst     38h
791a ff        rst     38h
791b ff        rst     38h
791c ff        rst     38h
791d ff        rst     38h
791e ff        rst     38h
791f ff        rst     38h
7920 ff        rst     38h
7921 ff        rst     38h
7922 ff        rst     38h
7923 ff        rst     38h
7924 ff        rst     38h
7925 ff        rst     38h
7926 ff        rst     38h
7927 ff        rst     38h
7928 ff        rst     38h
7929 ff        rst     38h
792a ff        rst     38h
792b ff        rst     38h
792c ff        rst     38h
792d ff        rst     38h
792e ff        rst     38h
792f ff        rst     38h
7930 ff        rst     38h
7931 ff        rst     38h
7932 ff        rst     38h
7933 ff        rst     38h
7934 ff        rst     38h
7935 ff        rst     38h
7936 ff        rst     38h
7937 ff        rst     38h
7938 ff        rst     38h
7939 ff        rst     38h
793a ff        rst     38h
793b ff        rst     38h
793c ff        rst     38h
793d ff        rst     38h
793e ff        rst     38h
793f ff        rst     38h
7940 ff        rst     38h
7941 ff        rst     38h
7942 ff        rst     38h
7943 ff        rst     38h
7944 ff        rst     38h
7945 ff        rst     38h
7946 ff        rst     38h
7947 ff        rst     38h
7948 ff        rst     38h
7949 ff        rst     38h
794a ff        rst     38h
794b ff        rst     38h
794c ff        rst     38h
794d ff        rst     38h
794e ff        rst     38h
794f ff        rst     38h
7950 ff        rst     38h
7951 ff        rst     38h
7952 ff        rst     38h
7953 ff        rst     38h
7954 ff        rst     38h
7955 ff        rst     38h
7956 ff        rst     38h
7957 ff        rst     38h
7958 ff        rst     38h
7959 ff        rst     38h
795a ff        rst     38h
795b ff        rst     38h
795c ff        rst     38h
795d ff        rst     38h
795e ff        rst     38h
795f ff        rst     38h
7960 ff        rst     38h
7961 ff        rst     38h
7962 ff        rst     38h
7963 ff        rst     38h
7964 ff        rst     38h
7965 ff        rst     38h
7966 ff        rst     38h
7967 ff        rst     38h
7968 ff        rst     38h
7969 ff        rst     38h
796a ff        rst     38h
796b ff        rst     38h
796c ff        rst     38h
796d ff        rst     38h
796e ff        rst     38h
796f ff        rst     38h
7970 ff        rst     38h
7971 ff        rst     38h
7972 ff        rst     38h
7973 ff        rst     38h
7974 ff        rst     38h
7975 ff        rst     38h
7976 ff        rst     38h
7977 ff        rst     38h
7978 ff        rst     38h
7979 ff        rst     38h
797a ff        rst     38h
797b ff        rst     38h
797c ff        rst     38h
797d ff        rst     38h
797e ff        rst     38h
797f ff        rst     38h
7980 ff        rst     38h
7981 ff        rst     38h
7982 ff        rst     38h
7983 ff        rst     38h
7984 ff        rst     38h
7985 ff        rst     38h
7986 ff        rst     38h
7987 ff        rst     38h
7988 ff        rst     38h
7989 ff        rst     38h
798a ff        rst     38h
798b ff        rst     38h
798c ff        rst     38h
798d ff        rst     38h
798e ff        rst     38h
798f ff        rst     38h
7990 ff        rst     38h
7991 ff        rst     38h
7992 ff        rst     38h
7993 ff        rst     38h
7994 ff        rst     38h
7995 ff        rst     38h
7996 ff        rst     38h
7997 ff        rst     38h
7998 ff        rst     38h
7999 ff        rst     38h
799a ff        rst     38h
799b ff        rst     38h
799c ff        rst     38h
799d ff        rst     38h
799e ff        rst     38h
799f ff        rst     38h
79a0 ff        rst     38h
79a1 ff        rst     38h
79a2 ff        rst     38h
79a3 ff        rst     38h
79a4 ff        rst     38h
79a5 ff        rst     38h
79a6 ff        rst     38h
79a7 ff        rst     38h
79a8 ff        rst     38h
79a9 ff        rst     38h
79aa ff        rst     38h
79ab ff        rst     38h
79ac ff        rst     38h
79ad ff        rst     38h
79ae ff        rst     38h
79af ff        rst     38h
79b0 ff        rst     38h
79b1 ff        rst     38h
79b2 ff        rst     38h
79b3 ff        rst     38h
79b4 ff        rst     38h
79b5 ff        rst     38h
79b6 ff        rst     38h
79b7 ff        rst     38h
79b8 ff        rst     38h
79b9 ff        rst     38h
79ba ff        rst     38h
79bb ff        rst     38h
79bc ff        rst     38h
79bd ff        rst     38h
79be ff        rst     38h
79bf ff        rst     38h
79c0 ff        rst     38h
79c1 ff        rst     38h
79c2 ff        rst     38h
79c3 ff        rst     38h
79c4 ff        rst     38h
79c5 ff        rst     38h
79c6 ff        rst     38h
79c7 ff        rst     38h
79c8 ff        rst     38h
79c9 ff        rst     38h
79ca ff        rst     38h
79cb ff        rst     38h
79cc ff        rst     38h
79cd ff        rst     38h
79ce ff        rst     38h
79cf ff        rst     38h
79d0 ff        rst     38h
79d1 ff        rst     38h
79d2 ff        rst     38h
79d3 ff        rst     38h
79d4 ff        rst     38h
79d5 ff        rst     38h
79d6 ff        rst     38h
79d7 ff        rst     38h
79d8 ff        rst     38h
79d9 ff        rst     38h
79da ff        rst     38h
79db ff        rst     38h
79dc ff        rst     38h
79dd ff        rst     38h
79de ff        rst     38h
79df ff        rst     38h
79e0 ff        rst     38h
79e1 ff        rst     38h
79e2 ff        rst     38h
79e3 ff        rst     38h
79e4 ff        rst     38h
79e5 ff        rst     38h
79e6 ff        rst     38h
79e7 ff        rst     38h
79e8 ff        rst     38h
79e9 ff        rst     38h
79ea ff        rst     38h
79eb ff        rst     38h
79ec ff        rst     38h
79ed ff        rst     38h
79ee ff        rst     38h
79ef ff        rst     38h
79f0 ff        rst     38h
79f1 ff        rst     38h
79f2 ff        rst     38h
79f3 ff        rst     38h
79f4 ff        rst     38h
79f5 ff        rst     38h
79f6 ff        rst     38h
79f7 ff        rst     38h
79f8 ff        rst     38h
79f9 ff        rst     38h
79fa ff        rst     38h
79fb ff        rst     38h
79fc ff        rst     38h
79fd ff        rst     38h
79fe ff        rst     38h
79ff ff        rst     38h
7a00 ff        rst     38h
7a01 ff        rst     38h
7a02 ff        rst     38h
7a03 ff        rst     38h
7a04 ff        rst     38h
7a05 ff        rst     38h
7a06 ff        rst     38h
7a07 ff        rst     38h
7a08 ff        rst     38h
7a09 ff        rst     38h
7a0a ff        rst     38h
7a0b ff        rst     38h
7a0c ff        rst     38h
7a0d ff        rst     38h
7a0e ff        rst     38h
7a0f ff        rst     38h
7a10 ff        rst     38h
7a11 ff        rst     38h
7a12 ff        rst     38h
7a13 ff        rst     38h
7a14 ff        rst     38h
7a15 ff        rst     38h
7a16 ff        rst     38h
7a17 ff        rst     38h
7a18 ff        rst     38h
7a19 ff        rst     38h
7a1a ff        rst     38h
7a1b ff        rst     38h
7a1c ff        rst     38h
7a1d ff        rst     38h
7a1e ff        rst     38h
7a1f ff        rst     38h
7a20 ff        rst     38h
7a21 ff        rst     38h
7a22 ff        rst     38h
7a23 ff        rst     38h
7a24 ff        rst     38h
7a25 ff        rst     38h
7a26 ff        rst     38h
7a27 ff        rst     38h
7a28 ff        rst     38h
7a29 ff        rst     38h
7a2a ff        rst     38h
7a2b ff        rst     38h
7a2c ff        rst     38h
7a2d ff        rst     38h
7a2e ff        rst     38h
7a2f ff        rst     38h
7a30 ff        rst     38h
7a31 ff        rst     38h
7a32 ff        rst     38h
7a33 ff        rst     38h
7a34 ff        rst     38h
7a35 ff        rst     38h
7a36 ff        rst     38h
7a37 ff        rst     38h
7a38 ff        rst     38h
7a39 ff        rst     38h
7a3a ff        rst     38h
7a3b ff        rst     38h
7a3c ff        rst     38h
7a3d ff        rst     38h
7a3e ff        rst     38h
7a3f ff        rst     38h
7a40 ff        rst     38h
7a41 ff        rst     38h
7a42 ff        rst     38h
7a43 ff        rst     38h
7a44 ff        rst     38h
7a45 ff        rst     38h
7a46 ff        rst     38h
7a47 ff        rst     38h
7a48 ff        rst     38h
7a49 ff        rst     38h
7a4a ff        rst     38h
7a4b ff        rst     38h
7a4c ff        rst     38h
7a4d ff        rst     38h
7a4e ff        rst     38h
7a4f ff        rst     38h
7a50 ff        rst     38h
7a51 ff        rst     38h
7a52 ff        rst     38h
7a53 ff        rst     38h
7a54 ff        rst     38h
7a55 ff        rst     38h
7a56 ff        rst     38h
7a57 ff        rst     38h
7a58 ff        rst     38h
7a59 ff        rst     38h
7a5a ff        rst     38h
7a5b ff        rst     38h
7a5c ff        rst     38h
7a5d ff        rst     38h
7a5e ff        rst     38h
7a5f ff        rst     38h
7a60 ff        rst     38h
7a61 ff        rst     38h
7a62 ff        rst     38h
7a63 ff        rst     38h
7a64 ff        rst     38h
7a65 ff        rst     38h
7a66 ff        rst     38h
7a67 ff        rst     38h
7a68 ff        rst     38h
7a69 ff        rst     38h
7a6a ff        rst     38h
7a6b ff        rst     38h
7a6c ff        rst     38h
7a6d ff        rst     38h
7a6e ff        rst     38h
7a6f ff        rst     38h
7a70 ff        rst     38h
7a71 ff        rst     38h
7a72 ff        rst     38h
7a73 ff        rst     38h
7a74 ff        rst     38h
7a75 ff        rst     38h
7a76 ff        rst     38h
7a77 ff        rst     38h
7a78 ff        rst     38h
7a79 ff        rst     38h
7a7a ff        rst     38h
7a7b ff        rst     38h
7a7c ff        rst     38h
7a7d ff        rst     38h
7a7e ff        rst     38h
7a7f ff        rst     38h
7a80 ff        rst     38h
7a81 ff        rst     38h
7a82 ff        rst     38h
7a83 ff        rst     38h
7a84 ff        rst     38h
7a85 ff        rst     38h
7a86 ff        rst     38h
7a87 ff        rst     38h
7a88 ff        rst     38h
7a89 ff        rst     38h
7a8a ff        rst     38h
7a8b ff        rst     38h
7a8c ff        rst     38h
7a8d ff        rst     38h
7a8e ff        rst     38h
7a8f ff        rst     38h
7a90 ff        rst     38h
7a91 ff        rst     38h
7a92 ff        rst     38h
7a93 ff        rst     38h
7a94 ff        rst     38h
7a95 ff        rst     38h
7a96 ff        rst     38h
7a97 ff        rst     38h
7a98 ff        rst     38h
7a99 ff        rst     38h
7a9a ff        rst     38h
7a9b ff        rst     38h
7a9c ff        rst     38h
7a9d ff        rst     38h
7a9e ff        rst     38h
7a9f ff        rst     38h
7aa0 ff        rst     38h
7aa1 ff        rst     38h
7aa2 ff        rst     38h
7aa3 ff        rst     38h
7aa4 ff        rst     38h
7aa5 ff        rst     38h
7aa6 ff        rst     38h
7aa7 ff        rst     38h
7aa8 ff        rst     38h
7aa9 ff        rst     38h
7aaa ff        rst     38h
7aab ff        rst     38h
7aac ff        rst     38h
7aad ff        rst     38h
7aae ff        rst     38h
7aaf ff        rst     38h
7ab0 ff        rst     38h
7ab1 ff        rst     38h
7ab2 ff        rst     38h
7ab3 ff        rst     38h
7ab4 ff        rst     38h
7ab5 ff        rst     38h
7ab6 ff        rst     38h
7ab7 ff        rst     38h
7ab8 ff        rst     38h
7ab9 ff        rst     38h
7aba ff        rst     38h
7abb ff        rst     38h
7abc ff        rst     38h
7abd ff        rst     38h
7abe ff        rst     38h
7abf ff        rst     38h
7ac0 ff        rst     38h
7ac1 ff        rst     38h
7ac2 ff        rst     38h
7ac3 ff        rst     38h
7ac4 ff        rst     38h
7ac5 ff        rst     38h
7ac6 ff        rst     38h
7ac7 ff        rst     38h
7ac8 ff        rst     38h
7ac9 ff        rst     38h
7aca ff        rst     38h
7acb ff        rst     38h
7acc ff        rst     38h
7acd ff        rst     38h
7ace ff        rst     38h
7acf ff        rst     38h
7ad0 ff        rst     38h
7ad1 ff        rst     38h
7ad2 ff        rst     38h
7ad3 ff        rst     38h
7ad4 ff        rst     38h
7ad5 ff        rst     38h
7ad6 ff        rst     38h
7ad7 ff        rst     38h
7ad8 ff        rst     38h
7ad9 ff        rst     38h
7ada ff        rst     38h
7adb ff        rst     38h
7adc ff        rst     38h
7add ff        rst     38h
7ade ff        rst     38h
7adf ff        rst     38h
7ae0 ff        rst     38h
7ae1 ff        rst     38h
7ae2 ff        rst     38h
7ae3 ff        rst     38h
7ae4 ff        rst     38h
7ae5 ff        rst     38h
7ae6 ff        rst     38h
7ae7 ff        rst     38h
7ae8 ff        rst     38h
7ae9 ff        rst     38h
7aea ff        rst     38h
7aeb ff        rst     38h
7aec ff        rst     38h
7aed ff        rst     38h
7aee ff        rst     38h
7aef ff        rst     38h
7af0 ff        rst     38h
7af1 ff        rst     38h
7af2 ff        rst     38h
7af3 ff        rst     38h
7af4 ff        rst     38h
7af5 ff        rst     38h
7af6 ff        rst     38h
7af7 ff        rst     38h
7af8 ff        rst     38h
7af9 ff        rst     38h
7afa ff        rst     38h
7afb ff        rst     38h
7afc ff        rst     38h
7afd ff        rst     38h
7afe ff        rst     38h
7aff ff        rst     38h
7b00 ff        rst     38h
7b01 ff        rst     38h
7b02 ff        rst     38h
7b03 ff        rst     38h
7b04 ff        rst     38h
7b05 ff        rst     38h
7b06 ff        rst     38h
7b07 ff        rst     38h
7b08 ff        rst     38h
7b09 ff        rst     38h
7b0a ff        rst     38h
7b0b ff        rst     38h
7b0c ff        rst     38h
7b0d ff        rst     38h
7b0e ff        rst     38h
7b0f ff        rst     38h
7b10 ff        rst     38h
7b11 ff        rst     38h
7b12 ff        rst     38h
7b13 ff        rst     38h
7b14 ff        rst     38h
7b15 ff        rst     38h
7b16 ff        rst     38h
7b17 ff        rst     38h
7b18 ff        rst     38h
7b19 ff        rst     38h
7b1a ff        rst     38h
7b1b ff        rst     38h
7b1c ff        rst     38h
7b1d ff        rst     38h
7b1e ff        rst     38h
7b1f ff        rst     38h
7b20 ff        rst     38h
7b21 ff        rst     38h
7b22 ff        rst     38h
7b23 ff        rst     38h
7b24 ff        rst     38h
7b25 ff        rst     38h
7b26 ff        rst     38h
7b27 ff        rst     38h
7b28 ff        rst     38h
7b29 ff        rst     38h
7b2a ff        rst     38h
7b2b ff        rst     38h
7b2c ff        rst     38h
7b2d ff        rst     38h
7b2e ff        rst     38h
7b2f ff        rst     38h
7b30 ff        rst     38h
7b31 ff        rst     38h
7b32 ff        rst     38h
7b33 ff        rst     38h
7b34 ff        rst     38h
7b35 ff        rst     38h
7b36 ff        rst     38h
7b37 ff        rst     38h
7b38 ff        rst     38h
7b39 ff        rst     38h
7b3a ff        rst     38h
7b3b ff        rst     38h
7b3c ff        rst     38h
7b3d ff        rst     38h
7b3e ff        rst     38h
7b3f ff        rst     38h
7b40 ff        rst     38h
7b41 ff        rst     38h
7b42 ff        rst     38h
7b43 ff        rst     38h
7b44 ff        rst     38h
7b45 ff        rst     38h
7b46 ff        rst     38h
7b47 ff        rst     38h
7b48 ff        rst     38h
7b49 ff        rst     38h
7b4a ff        rst     38h
7b4b ff        rst     38h
7b4c ff        rst     38h
7b4d ff        rst     38h
7b4e ff        rst     38h
7b4f ff        rst     38h
7b50 ff        rst     38h
7b51 ff        rst     38h
7b52 ff        rst     38h
7b53 ff        rst     38h
7b54 ff        rst     38h
7b55 ff        rst     38h
7b56 ff        rst     38h
7b57 ff        rst     38h
7b58 ff        rst     38h
7b59 ff        rst     38h
7b5a ff        rst     38h
7b5b ff        rst     38h
7b5c ff        rst     38h
7b5d ff        rst     38h
7b5e ff        rst     38h
7b5f ff        rst     38h
7b60 ff        rst     38h
7b61 ff        rst     38h
7b62 ff        rst     38h
7b63 ff        rst     38h
7b64 ff        rst     38h
7b65 ff        rst     38h
7b66 ff        rst     38h
7b67 ff        rst     38h
7b68 ff        rst     38h
7b69 ff        rst     38h
7b6a ff        rst     38h
7b6b ff        rst     38h
7b6c ff        rst     38h
7b6d ff        rst     38h
7b6e ff        rst     38h
7b6f ff        rst     38h
7b70 ff        rst     38h
7b71 ff        rst     38h
7b72 ff        rst     38h
7b73 ff        rst     38h
7b74 ff        rst     38h
7b75 ff        rst     38h
7b76 ff        rst     38h
7b77 ff        rst     38h
7b78 ff        rst     38h
7b79 ff        rst     38h
7b7a ff        rst     38h
7b7b ff        rst     38h
7b7c ff        rst     38h
7b7d ff        rst     38h
7b7e ff        rst     38h
7b7f ff        rst     38h
7b80 ff        rst     38h
7b81 ff        rst     38h
7b82 ff        rst     38h
7b83 ff        rst     38h
7b84 ff        rst     38h
7b85 ff        rst     38h
7b86 ff        rst     38h
7b87 ff        rst     38h
7b88 ff        rst     38h
7b89 ff        rst     38h
7b8a ff        rst     38h
7b8b ff        rst     38h
7b8c ff        rst     38h
7b8d ff        rst     38h
7b8e ff        rst     38h
7b8f ff        rst     38h
7b90 ff        rst     38h
7b91 ff        rst     38h
7b92 ff        rst     38h
7b93 ff        rst     38h
7b94 ff        rst     38h
7b95 ff        rst     38h
7b96 ff        rst     38h
7b97 ff        rst     38h
7b98 ff        rst     38h
7b99 ff        rst     38h
7b9a ff        rst     38h
7b9b ff        rst     38h
7b9c ff        rst     38h
7b9d ff        rst     38h
7b9e ff        rst     38h
7b9f ff        rst     38h
7ba0 ff        rst     38h
7ba1 ff        rst     38h
7ba2 ff        rst     38h
7ba3 ff        rst     38h
7ba4 ff        rst     38h
7ba5 ff        rst     38h
7ba6 ff        rst     38h
7ba7 ff        rst     38h
7ba8 ff        rst     38h
7ba9 ff        rst     38h
7baa ff        rst     38h
7bab ff        rst     38h
7bac ff        rst     38h
7bad ff        rst     38h
7bae ff        rst     38h
7baf ff        rst     38h
7bb0 ff        rst     38h
7bb1 ff        rst     38h
7bb2 ff        rst     38h
7bb3 ff        rst     38h
7bb4 ff        rst     38h
7bb5 ff        rst     38h
7bb6 ff        rst     38h
7bb7 ff        rst     38h
7bb8 ff        rst     38h
7bb9 ff        rst     38h
7bba ff        rst     38h
7bbb ff        rst     38h
7bbc ff        rst     38h
7bbd ff        rst     38h
7bbe ff        rst     38h
7bbf ff        rst     38h
7bc0 ff        rst     38h
7bc1 ff        rst     38h
7bc2 ff        rst     38h
7bc3 ff        rst     38h
7bc4 ff        rst     38h
7bc5 ff        rst     38h
7bc6 ff        rst     38h
7bc7 ff        rst     38h
7bc8 ff        rst     38h
7bc9 ff        rst     38h
7bca ff        rst     38h
7bcb ff        rst     38h
7bcc ff        rst     38h
7bcd ff        rst     38h
7bce ff        rst     38h
7bcf ff        rst     38h
7bd0 ff        rst     38h
7bd1 ff        rst     38h
7bd2 ff        rst     38h
7bd3 ff        rst     38h
7bd4 ff        rst     38h
7bd5 ff        rst     38h
7bd6 ff        rst     38h
7bd7 ff        rst     38h
7bd8 ff        rst     38h
7bd9 ff        rst     38h
7bda ff        rst     38h
7bdb ff        rst     38h
7bdc ff        rst     38h
7bdd ff        rst     38h
7bde ff        rst     38h
7bdf ff        rst     38h
7be0 ff        rst     38h
7be1 ff        rst     38h
7be2 ff        rst     38h
7be3 ff        rst     38h
7be4 ff        rst     38h
7be5 ff        rst     38h
7be6 ff        rst     38h
7be7 ff        rst     38h
7be8 ff        rst     38h
7be9 ff        rst     38h
7bea ff        rst     38h
7beb ff        rst     38h
7bec ff        rst     38h
7bed ff        rst     38h
7bee ff        rst     38h
7bef ff        rst     38h
7bf0 ff        rst     38h
7bf1 ff        rst     38h
7bf2 ff        rst     38h
7bf3 ff        rst     38h
7bf4 ff        rst     38h
7bf5 ff        rst     38h
7bf6 ff        rst     38h
7bf7 ff        rst     38h
7bf8 ff        rst     38h
7bf9 ff        rst     38h
7bfa ff        rst     38h
7bfb ff        rst     38h
7bfc ff        rst     38h
7bfd ff        rst     38h
7bfe ff        rst     38h
7bff ff        rst     38h
7c00 ff        rst     38h
7c01 ff        rst     38h
7c02 ff        rst     38h
7c03 ff        rst     38h
7c04 ff        rst     38h
7c05 ff        rst     38h
7c06 ff        rst     38h
7c07 ff        rst     38h
7c08 ff        rst     38h
7c09 ff        rst     38h
7c0a ff        rst     38h
7c0b ff        rst     38h
7c0c ff        rst     38h
7c0d ff        rst     38h
7c0e ff        rst     38h
7c0f ff        rst     38h
7c10 ff        rst     38h
7c11 ff        rst     38h
7c12 ff        rst     38h
7c13 ff        rst     38h
7c14 ff        rst     38h
7c15 ff        rst     38h
7c16 ff        rst     38h
7c17 ff        rst     38h
7c18 ff        rst     38h
7c19 ff        rst     38h
7c1a ff        rst     38h
7c1b ff        rst     38h
7c1c ff        rst     38h
7c1d ff        rst     38h
7c1e ff        rst     38h
7c1f ff        rst     38h
7c20 ff        rst     38h
7c21 ff        rst     38h
7c22 ff        rst     38h
7c23 ff        rst     38h
7c24 ff        rst     38h
7c25 ff        rst     38h
7c26 ff        rst     38h
7c27 ff        rst     38h
7c28 ff        rst     38h
7c29 ff        rst     38h
7c2a ff        rst     38h
7c2b ff        rst     38h
7c2c ff        rst     38h
7c2d ff        rst     38h
7c2e ff        rst     38h
7c2f ff        rst     38h
7c30 ff        rst     38h
7c31 ff        rst     38h
7c32 ff        rst     38h
7c33 ff        rst     38h
7c34 ff        rst     38h
7c35 ff        rst     38h
7c36 ff        rst     38h
7c37 ff        rst     38h
7c38 ff        rst     38h
7c39 ff        rst     38h
7c3a ff        rst     38h
7c3b ff        rst     38h
7c3c ff        rst     38h
7c3d ff        rst     38h
7c3e ff        rst     38h
7c3f ff        rst     38h
7c40 ff        rst     38h
7c41 ff        rst     38h
7c42 ff        rst     38h
7c43 ff        rst     38h
7c44 ff        rst     38h
7c45 ff        rst     38h
7c46 ff        rst     38h
7c47 ff        rst     38h
7c48 ff        rst     38h
7c49 ff        rst     38h
7c4a ff        rst     38h
7c4b ff        rst     38h
7c4c ff        rst     38h
7c4d ff        rst     38h
7c4e ff        rst     38h
7c4f ff        rst     38h
7c50 ff        rst     38h
7c51 ff        rst     38h
7c52 ff        rst     38h
7c53 ff        rst     38h
7c54 ff        rst     38h
7c55 ff        rst     38h
7c56 ff        rst     38h
7c57 ff        rst     38h
7c58 ff        rst     38h
7c59 ff        rst     38h
7c5a ff        rst     38h
7c5b ff        rst     38h
7c5c ff        rst     38h
7c5d ff        rst     38h
7c5e ff        rst     38h
7c5f ff        rst     38h
7c60 ff        rst     38h
7c61 ff        rst     38h
7c62 ff        rst     38h
7c63 ff        rst     38h
7c64 ff        rst     38h
7c65 ff        rst     38h
7c66 ff        rst     38h
7c67 ff        rst     38h
7c68 ff        rst     38h
7c69 ff        rst     38h
7c6a ff        rst     38h
7c6b ff        rst     38h
7c6c ff        rst     38h
7c6d ff        rst     38h
7c6e ff        rst     38h
7c6f ff        rst     38h
7c70 ff        rst     38h
7c71 ff        rst     38h
7c72 ff        rst     38h
7c73 ff        rst     38h
7c74 ff        rst     38h
7c75 ff        rst     38h
7c76 ff        rst     38h
7c77 ff        rst     38h
7c78 ff        rst     38h
7c79 ff        rst     38h
7c7a ff        rst     38h
7c7b ff        rst     38h
7c7c ff        rst     38h
7c7d ff        rst     38h
7c7e ff        rst     38h
7c7f ff        rst     38h
7c80 ff        rst     38h
7c81 ff        rst     38h
7c82 ff        rst     38h
7c83 ff        rst     38h
7c84 ff        rst     38h
7c85 ff        rst     38h
7c86 ff        rst     38h
7c87 ff        rst     38h
7c88 ff        rst     38h
7c89 ff        rst     38h
7c8a ff        rst     38h
7c8b ff        rst     38h
7c8c ff        rst     38h
7c8d ff        rst     38h
7c8e ff        rst     38h
7c8f ff        rst     38h
7c90 ff        rst     38h
7c91 ff        rst     38h
7c92 ff        rst     38h
7c93 ff        rst     38h
7c94 ff        rst     38h
7c95 ff        rst     38h
7c96 ff        rst     38h
7c97 ff        rst     38h
7c98 ff        rst     38h
7c99 ff        rst     38h
7c9a ff        rst     38h
7c9b ff        rst     38h
7c9c ff        rst     38h
7c9d ff        rst     38h
7c9e ff        rst     38h
7c9f ff        rst     38h
7ca0 ff        rst     38h
7ca1 ff        rst     38h
7ca2 ff        rst     38h
7ca3 ff        rst     38h
7ca4 ff        rst     38h
7ca5 ff        rst     38h
7ca6 ff        rst     38h
7ca7 ff        rst     38h
7ca8 ff        rst     38h
7ca9 ff        rst     38h
7caa ff        rst     38h
7cab ff        rst     38h
7cac ff        rst     38h
7cad ff        rst     38h
7cae ff        rst     38h
7caf ff        rst     38h
7cb0 ff        rst     38h
7cb1 ff        rst     38h
7cb2 ff        rst     38h
7cb3 ff        rst     38h
7cb4 ff        rst     38h
7cb5 ff        rst     38h
7cb6 ff        rst     38h
7cb7 ff        rst     38h
7cb8 ff        rst     38h
7cb9 ff        rst     38h
7cba ff        rst     38h
7cbb ff        rst     38h
7cbc ff        rst     38h
7cbd ff        rst     38h
7cbe ff        rst     38h
7cbf ff        rst     38h
7cc0 ff        rst     38h
7cc1 ff        rst     38h
7cc2 ff        rst     38h
7cc3 ff        rst     38h
7cc4 ff        rst     38h
7cc5 ff        rst     38h
7cc6 ff        rst     38h
7cc7 ff        rst     38h
7cc8 ff        rst     38h
7cc9 ff        rst     38h
7cca ff        rst     38h
7ccb ff        rst     38h
7ccc ff        rst     38h
7ccd ff        rst     38h
7cce ff        rst     38h
7ccf ff        rst     38h
7cd0 ff        rst     38h
7cd1 ff        rst     38h
7cd2 ff        rst     38h
7cd3 ff        rst     38h
7cd4 ff        rst     38h
7cd5 ff        rst     38h
7cd6 ff        rst     38h
7cd7 ff        rst     38h
7cd8 ff        rst     38h
7cd9 ff        rst     38h
7cda ff        rst     38h
7cdb ff        rst     38h
7cdc ff        rst     38h
7cdd ff        rst     38h
7cde ff        rst     38h
7cdf ff        rst     38h
7ce0 ff        rst     38h
7ce1 ff        rst     38h
7ce2 ff        rst     38h
7ce3 ff        rst     38h
7ce4 ff        rst     38h
7ce5 ff        rst     38h
7ce6 ff        rst     38h
7ce7 ff        rst     38h
7ce8 ff        rst     38h
7ce9 ff        rst     38h
7cea ff        rst     38h
7ceb ff        rst     38h
7cec ff        rst     38h
7ced ff        rst     38h
7cee ff        rst     38h
7cef ff        rst     38h
7cf0 ff        rst     38h
7cf1 ff        rst     38h
7cf2 ff        rst     38h
7cf3 ff        rst     38h
7cf4 ff        rst     38h
7cf5 ff        rst     38h
7cf6 ff        rst     38h
7cf7 ff        rst     38h
7cf8 ff        rst     38h
7cf9 ff        rst     38h
7cfa ff        rst     38h
7cfb ff        rst     38h
7cfc ff        rst     38h
7cfd ff        rst     38h
7cfe ff        rst     38h
7cff ff        rst     38h
7d00 ff        rst     38h
7d01 ff        rst     38h
7d02 ff        rst     38h
7d03 ff        rst     38h
7d04 ff        rst     38h
7d05 ff        rst     38h
7d06 ff        rst     38h
7d07 ff        rst     38h
7d08 ff        rst     38h
7d09 ff        rst     38h
7d0a ff        rst     38h
7d0b ff        rst     38h
7d0c ff        rst     38h
7d0d ff        rst     38h
7d0e ff        rst     38h
7d0f ff        rst     38h
7d10 ff        rst     38h
7d11 ff        rst     38h
7d12 ff        rst     38h
7d13 ff        rst     38h
7d14 ff        rst     38h
7d15 ff        rst     38h
7d16 ff        rst     38h
7d17 ff        rst     38h
7d18 ff        rst     38h
7d19 ff        rst     38h
7d1a ff        rst     38h
7d1b ff        rst     38h
7d1c ff        rst     38h
7d1d ff        rst     38h
7d1e ff        rst     38h
7d1f ff        rst     38h
7d20 ff        rst     38h
7d21 ff        rst     38h
7d22 ff        rst     38h
7d23 ff        rst     38h
7d24 ff        rst     38h
7d25 ff        rst     38h
7d26 ff        rst     38h
7d27 ff        rst     38h
7d28 ff        rst     38h
7d29 ff        rst     38h
7d2a ff        rst     38h
7d2b ff        rst     38h
7d2c ff        rst     38h
7d2d ff        rst     38h
7d2e ff        rst     38h
7d2f ff        rst     38h
7d30 ff        rst     38h
7d31 ff        rst     38h
7d32 ff        rst     38h
7d33 ff        rst     38h
7d34 ff        rst     38h
7d35 ff        rst     38h
7d36 ff        rst     38h
7d37 ff        rst     38h
7d38 ff        rst     38h
7d39 ff        rst     38h
7d3a ff        rst     38h
7d3b ff        rst     38h
7d3c ff        rst     38h
7d3d ff        rst     38h
7d3e ff        rst     38h
7d3f ff        rst     38h
7d40 ff        rst     38h
7d41 ff        rst     38h
7d42 ff        rst     38h
7d43 ff        rst     38h
7d44 ff        rst     38h
7d45 ff        rst     38h
7d46 ff        rst     38h
7d47 ff        rst     38h
7d48 ff        rst     38h
7d49 ff        rst     38h
7d4a ff        rst     38h
7d4b ff        rst     38h
7d4c ff        rst     38h
7d4d ff        rst     38h
7d4e ff        rst     38h
7d4f ff        rst     38h
7d50 ff        rst     38h
7d51 ff        rst     38h
7d52 ff        rst     38h
7d53 ff        rst     38h
7d54 ff        rst     38h
7d55 ff        rst     38h
7d56 ff        rst     38h
7d57 ff        rst     38h
7d58 ff        rst     38h
7d59 ff        rst     38h
7d5a ff        rst     38h
7d5b ff        rst     38h
7d5c ff        rst     38h
7d5d ff        rst     38h
7d5e ff        rst     38h
7d5f ff        rst     38h
7d60 ff        rst     38h
7d61 ff        rst     38h
7d62 ff        rst     38h
7d63 ff        rst     38h
7d64 ff        rst     38h
7d65 ff        rst     38h
7d66 ff        rst     38h
7d67 ff        rst     38h
7d68 ff        rst     38h
7d69 ff        rst     38h
7d6a ff        rst     38h
7d6b ff        rst     38h
7d6c ff        rst     38h
7d6d ff        rst     38h
7d6e ff        rst     38h
7d6f ff        rst     38h
7d70 ff        rst     38h
7d71 ff        rst     38h
7d72 ff        rst     38h
7d73 ff        rst     38h
7d74 ff        rst     38h
7d75 ff        rst     38h
7d76 ff        rst     38h
7d77 ff        rst     38h
7d78 ff        rst     38h
7d79 ff        rst     38h
7d7a ff        rst     38h
7d7b ff        rst     38h
7d7c ff        rst     38h
7d7d ff        rst     38h
7d7e ff        rst     38h
7d7f ff        rst     38h
7d80 ff        rst     38h
7d81 ff        rst     38h
7d82 ff        rst     38h
7d83 ff        rst     38h
7d84 ff        rst     38h
7d85 ff        rst     38h
7d86 ff        rst     38h
7d87 ff        rst     38h
7d88 ff        rst     38h
7d89 ff        rst     38h
7d8a ff        rst     38h
7d8b ff        rst     38h
7d8c ff        rst     38h
7d8d ff        rst     38h
7d8e ff        rst     38h
7d8f ff        rst     38h
7d90 ff        rst     38h
7d91 ff        rst     38h
7d92 ff        rst     38h
7d93 ff        rst     38h
7d94 ff        rst     38h
7d95 ff        rst     38h
7d96 ff        rst     38h
7d97 ff        rst     38h
7d98 ff        rst     38h
7d99 ff        rst     38h
7d9a ff        rst     38h
7d9b ff        rst     38h
7d9c ff        rst     38h
7d9d ff        rst     38h
7d9e ff        rst     38h
7d9f ff        rst     38h
7da0 ff        rst     38h
7da1 ff        rst     38h
7da2 ff        rst     38h
7da3 ff        rst     38h
7da4 ff        rst     38h
7da5 ff        rst     38h
7da6 ff        rst     38h
7da7 ff        rst     38h
7da8 ff        rst     38h
7da9 ff        rst     38h
7daa ff        rst     38h
7dab ff        rst     38h
7dac ff        rst     38h
7dad ff        rst     38h
7dae ff        rst     38h
7daf ff        rst     38h
7db0 ff        rst     38h
7db1 ff        rst     38h
7db2 ff        rst     38h
7db3 ff        rst     38h
7db4 ff        rst     38h
7db5 ff        rst     38h
7db6 ff        rst     38h
7db7 ff        rst     38h
7db8 ff        rst     38h
7db9 ff        rst     38h
7dba ff        rst     38h
7dbb ff        rst     38h
7dbc ff        rst     38h
7dbd ff        rst     38h
7dbe ff        rst     38h
7dbf ff        rst     38h
7dc0 ff        rst     38h
7dc1 ff        rst     38h
7dc2 ff        rst     38h
7dc3 ff        rst     38h
7dc4 ff        rst     38h
7dc5 ff        rst     38h
7dc6 ff        rst     38h
7dc7 ff        rst     38h
7dc8 ff        rst     38h
7dc9 ff        rst     38h
7dca ff        rst     38h
7dcb ff        rst     38h
7dcc ff        rst     38h
7dcd ff        rst     38h
7dce ff        rst     38h
7dcf ff        rst     38h
7dd0 ff        rst     38h
7dd1 ff        rst     38h
7dd2 ff        rst     38h
7dd3 ff        rst     38h
7dd4 ff        rst     38h
7dd5 ff        rst     38h
7dd6 ff        rst     38h
7dd7 ff        rst     38h
7dd8 ff        rst     38h
7dd9 ff        rst     38h
7dda ff        rst     38h
7ddb ff        rst     38h
7ddc ff        rst     38h
7ddd ff        rst     38h
7dde ff        rst     38h
7ddf ff        rst     38h
7de0 ff        rst     38h
7de1 ff        rst     38h
7de2 ff        rst     38h
7de3 ff        rst     38h
7de4 ff        rst     38h
7de5 ff        rst     38h
7de6 ff        rst     38h
7de7 ff        rst     38h
7de8 ff        rst     38h
7de9 ff        rst     38h
7dea ff        rst     38h
7deb ff        rst     38h
7dec ff        rst     38h
7ded ff        rst     38h
7dee ff        rst     38h
7def ff        rst     38h
7df0 ff        rst     38h
7df1 ff        rst     38h
7df2 ff        rst     38h
7df3 ff        rst     38h
7df4 ff        rst     38h
7df5 ff        rst     38h
7df6 ff        rst     38h
7df7 ff        rst     38h
7df8 ff        rst     38h
7df9 ff        rst     38h
7dfa ff        rst     38h
7dfb ff        rst     38h
7dfc ff        rst     38h
7dfd ff        rst     38h
7dfe ff        rst     38h
7dff ff        rst     38h
7e00 ff        rst     38h
7e01 ff        rst     38h
7e02 ff        rst     38h
7e03 ff        rst     38h
7e04 ff        rst     38h
7e05 ff        rst     38h
7e06 ff        rst     38h
7e07 ff        rst     38h
7e08 ff        rst     38h
7e09 ff        rst     38h
7e0a ff        rst     38h
7e0b ff        rst     38h
7e0c ff        rst     38h
7e0d ff        rst     38h
7e0e ff        rst     38h
7e0f ff        rst     38h
7e10 ff        rst     38h
7e11 ff        rst     38h
7e12 ff        rst     38h
7e13 ff        rst     38h
7e14 ff        rst     38h
7e15 ff        rst     38h
7e16 ff        rst     38h
7e17 ff        rst     38h
7e18 ff        rst     38h
7e19 ff        rst     38h
7e1a ff        rst     38h
7e1b ff        rst     38h
7e1c ff        rst     38h
7e1d ff        rst     38h
7e1e ff        rst     38h
7e1f ff        rst     38h
7e20 ff        rst     38h
7e21 ff        rst     38h
7e22 ff        rst     38h
7e23 ff        rst     38h
7e24 ff        rst     38h
7e25 ff        rst     38h
7e26 ff        rst     38h
7e27 ff        rst     38h
7e28 ff        rst     38h
7e29 ff        rst     38h
7e2a ff        rst     38h
7e2b ff        rst     38h
7e2c ff        rst     38h
7e2d ff        rst     38h
7e2e ff        rst     38h
7e2f ff        rst     38h
7e30 ff        rst     38h
7e31 ff        rst     38h
7e32 ff        rst     38h
7e33 ff        rst     38h
7e34 ff        rst     38h
7e35 ff        rst     38h
7e36 ff        rst     38h
7e37 ff        rst     38h
7e38 ff        rst     38h
7e39 ff        rst     38h
7e3a ff        rst     38h
7e3b ff        rst     38h
7e3c ff        rst     38h
7e3d ff        rst     38h
7e3e ff        rst     38h
7e3f ff        rst     38h
7e40 ff        rst     38h
7e41 ff        rst     38h
7e42 ff        rst     38h
7e43 ff        rst     38h
7e44 ff        rst     38h
7e45 ff        rst     38h
7e46 ff        rst     38h
7e47 ff        rst     38h
7e48 ff        rst     38h
7e49 ff        rst     38h
7e4a ff        rst     38h
7e4b ff        rst     38h
7e4c ff        rst     38h
7e4d ff        rst     38h
7e4e ff        rst     38h
7e4f ff        rst     38h
7e50 ff        rst     38h
7e51 ff        rst     38h
7e52 ff        rst     38h
7e53 ff        rst     38h
7e54 ff        rst     38h
7e55 ff        rst     38h
7e56 ff        rst     38h
7e57 ff        rst     38h
7e58 ff        rst     38h
7e59 ff        rst     38h
7e5a ff        rst     38h
7e5b ff        rst     38h
7e5c ff        rst     38h
7e5d ff        rst     38h
7e5e ff        rst     38h
7e5f ff        rst     38h
7e60 ff        rst     38h
7e61 ff        rst     38h
7e62 ff        rst     38h
7e63 ff        rst     38h
7e64 ff        rst     38h
7e65 ff        rst     38h
7e66 ff        rst     38h
7e67 ff        rst     38h
7e68 ff        rst     38h
7e69 ff        rst     38h
7e6a ff        rst     38h
7e6b ff        rst     38h
7e6c ff        rst     38h
7e6d ff        rst     38h
7e6e ff        rst     38h
7e6f ff        rst     38h
7e70 ff        rst     38h
7e71 ff        rst     38h
7e72 ff        rst     38h
7e73 ff        rst     38h
7e74 ff        rst     38h
7e75 ff        rst     38h
7e76 ff        rst     38h
7e77 ff        rst     38h
7e78 ff        rst     38h
7e79 ff        rst     38h
7e7a ff        rst     38h
7e7b ff        rst     38h
7e7c ff        rst     38h
7e7d ff        rst     38h
7e7e ff        rst     38h
7e7f ff        rst     38h
7e80 ff        rst     38h
7e81 ff        rst     38h
7e82 ff        rst     38h
7e83 ff        rst     38h
7e84 ff        rst     38h
7e85 ff        rst     38h
7e86 ff        rst     38h
7e87 ff        rst     38h
7e88 ff        rst     38h
7e89 ff        rst     38h
7e8a ff        rst     38h
7e8b ff        rst     38h
7e8c ff        rst     38h
7e8d ff        rst     38h
7e8e ff        rst     38h
7e8f ff        rst     38h
7e90 ff        rst     38h
7e91 ff        rst     38h
7e92 ff        rst     38h
7e93 ff        rst     38h
7e94 ff        rst     38h
7e95 ff        rst     38h
7e96 ff        rst     38h
7e97 ff        rst     38h
7e98 ff        rst     38h
7e99 ff        rst     38h
7e9a ff        rst     38h
7e9b ff        rst     38h
7e9c ff        rst     38h
7e9d ff        rst     38h
7e9e ff        rst     38h
7e9f ff        rst     38h
7ea0 ff        rst     38h
7ea1 ff        rst     38h
7ea2 ff        rst     38h
7ea3 ff        rst     38h
7ea4 ff        rst     38h
7ea5 ff        rst     38h
7ea6 ff        rst     38h
7ea7 ff        rst     38h
7ea8 ff        rst     38h
7ea9 ff        rst     38h
7eaa ff        rst     38h
7eab ff        rst     38h
7eac ff        rst     38h
7ead ff        rst     38h
7eae ff        rst     38h
7eaf ff        rst     38h
7eb0 ff        rst     38h
7eb1 ff        rst     38h
7eb2 ff        rst     38h
7eb3 ff        rst     38h
7eb4 ff        rst     38h
7eb5 ff        rst     38h
7eb6 ff        rst     38h
7eb7 ff        rst     38h
7eb8 ff        rst     38h
7eb9 ff        rst     38h
7eba ff        rst     38h
7ebb ff        rst     38h
7ebc ff        rst     38h
7ebd ff        rst     38h
7ebe ff        rst     38h
7ebf ff        rst     38h
7ec0 ff        rst     38h
7ec1 ff        rst     38h
7ec2 ff        rst     38h
7ec3 ff        rst     38h
7ec4 ff        rst     38h
7ec5 ff        rst     38h
7ec6 ff        rst     38h
7ec7 ff        rst     38h
7ec8 ff        rst     38h
7ec9 ff        rst     38h
7eca ff        rst     38h
7ecb ff        rst     38h
7ecc ff        rst     38h
7ecd ff        rst     38h
7ece ff        rst     38h
7ecf ff        rst     38h
7ed0 ff        rst     38h
7ed1 ff        rst     38h
7ed2 ff        rst     38h
7ed3 ff        rst     38h
7ed4 ff        rst     38h
7ed5 ff        rst     38h
7ed6 ff        rst     38h
7ed7 ff        rst     38h
7ed8 ff        rst     38h
7ed9 ff        rst     38h
7eda ff        rst     38h
7edb ff        rst     38h
7edc ff        rst     38h
7edd ff        rst     38h
7ede ff        rst     38h
7edf ff        rst     38h
7ee0 ff        rst     38h
7ee1 ff        rst     38h
7ee2 ff        rst     38h
7ee3 ff        rst     38h
7ee4 ff        rst     38h
7ee5 ff        rst     38h
7ee6 ff        rst     38h
7ee7 ff        rst     38h
7ee8 ff        rst     38h
7ee9 ff        rst     38h
7eea ff        rst     38h
7eeb ff        rst     38h
7eec ff        rst     38h
7eed ff        rst     38h
7eee ff        rst     38h
7eef ff        rst     38h
7ef0 ff        rst     38h
7ef1 ff        rst     38h
7ef2 ff        rst     38h
7ef3 ff        rst     38h
7ef4 ff        rst     38h
7ef5 ff        rst     38h
7ef6 ff        rst     38h
7ef7 ff        rst     38h
7ef8 ff        rst     38h
7ef9 ff        rst     38h
7efa ff        rst     38h
7efb ff        rst     38h
7efc ff        rst     38h
7efd ff        rst     38h
7efe ff        rst     38h
7eff ff        rst     38h
7f00 ff        rst     38h
7f01 ff        rst     38h
7f02 ff        rst     38h
7f03 ff        rst     38h
7f04 ff        rst     38h
7f05 ff        rst     38h
7f06 ff        rst     38h
7f07 ff        rst     38h
7f08 ff        rst     38h
7f09 ff        rst     38h
7f0a ff        rst     38h
7f0b ff        rst     38h
7f0c ff        rst     38h
7f0d ff        rst     38h
7f0e ff        rst     38h
7f0f ff        rst     38h
7f10 ff        rst     38h
7f11 ff        rst     38h
7f12 ff        rst     38h
7f13 ff        rst     38h
7f14 ff        rst     38h
7f15 ff        rst     38h
7f16 ff        rst     38h
7f17 ff        rst     38h
7f18 ff        rst     38h
7f19 ff        rst     38h
7f1a ff        rst     38h
7f1b ff        rst     38h
7f1c ff        rst     38h
7f1d ff        rst     38h
7f1e ff        rst     38h
7f1f ff        rst     38h
7f20 ff        rst     38h
7f21 ff        rst     38h
7f22 ff        rst     38h
7f23 ff        rst     38h
7f24 ff        rst     38h
7f25 ff        rst     38h
7f26 ff        rst     38h
7f27 ff        rst     38h
7f28 ff        rst     38h
7f29 ff        rst     38h
7f2a ff        rst     38h
7f2b ff        rst     38h
7f2c ff        rst     38h
7f2d ff        rst     38h
7f2e ff        rst     38h
7f2f ff        rst     38h
7f30 ff        rst     38h
7f31 ff        rst     38h
7f32 ff        rst     38h
7f33 ff        rst     38h
7f34 ff        rst     38h
7f35 ff        rst     38h
7f36 ff        rst     38h
7f37 ff        rst     38h
7f38 ff        rst     38h
7f39 ff        rst     38h
7f3a ff        rst     38h
7f3b ff        rst     38h
7f3c ff        rst     38h
7f3d ff        rst     38h
7f3e ff        rst     38h
7f3f ff        rst     38h
7f40 ff        rst     38h
7f41 ff        rst     38h
7f42 ff        rst     38h
7f43 ff        rst     38h
7f44 ff        rst     38h
7f45 ff        rst     38h
7f46 ff        rst     38h
7f47 ff        rst     38h
7f48 ff        rst     38h
7f49 ff        rst     38h
7f4a ff        rst     38h
7f4b ff        rst     38h
7f4c ff        rst     38h
7f4d ff        rst     38h
7f4e ff        rst     38h
7f4f ff        rst     38h
7f50 ff        rst     38h
7f51 ff        rst     38h
7f52 ff        rst     38h
7f53 ff        rst     38h
7f54 ff        rst     38h
7f55 ff        rst     38h
7f56 ff        rst     38h
7f57 ff        rst     38h
7f58 ff        rst     38h
7f59 ff        rst     38h
7f5a ff        rst     38h
7f5b ff        rst     38h
7f5c ff        rst     38h
7f5d ff        rst     38h
7f5e ff        rst     38h
7f5f ff        rst     38h
7f60 ff        rst     38h
7f61 ff        rst     38h
7f62 ff        rst     38h
7f63 ff        rst     38h
7f64 ff        rst     38h
7f65 ff        rst     38h
7f66 ff        rst     38h
7f67 ff        rst     38h
7f68 ff        rst     38h
7f69 ff        rst     38h
7f6a ff        rst     38h
7f6b ff        rst     38h
7f6c ff        rst     38h
7f6d ff        rst     38h
7f6e ff        rst     38h
7f6f ff        rst     38h
7f70 ff        rst     38h
7f71 ff        rst     38h
7f72 ff        rst     38h
7f73 ff        rst     38h
7f74 ff        rst     38h
7f75 ff        rst     38h
7f76 ff        rst     38h
7f77 ff        rst     38h
7f78 ff        rst     38h
7f79 ff        rst     38h
7f7a ff        rst     38h
7f7b ff        rst     38h
7f7c ff        rst     38h
7f7d ff        rst     38h
7f7e ff        rst     38h
7f7f ff        rst     38h
7f80 ff        rst     38h
7f81 ff        rst     38h
7f82 ff        rst     38h
7f83 ff        rst     38h
7f84 ff        rst     38h
7f85 ff        rst     38h
7f86 ff        rst     38h
7f87 ff        rst     38h
7f88 ff        rst     38h
7f89 ff        rst     38h
7f8a ff        rst     38h
7f8b ff        rst     38h
7f8c ff        rst     38h
7f8d ff        rst     38h
7f8e ff        rst     38h
7f8f ff        rst     38h
7f90 ff        rst     38h
7f91 ff        rst     38h
7f92 ff        rst     38h
7f93 ff        rst     38h
7f94 ff        rst     38h
7f95 ff        rst     38h
7f96 ff        rst     38h
7f97 ff        rst     38h
7f98 ff        rst     38h
7f99 ff        rst     38h
7f9a ff        rst     38h
7f9b ff        rst     38h
7f9c ff        rst     38h
7f9d ff        rst     38h
7f9e ff        rst     38h
7f9f ff        rst     38h
7fa0 ff        rst     38h
7fa1 ff        rst     38h
7fa2 ff        rst     38h
7fa3 ff        rst     38h
7fa4 ff        rst     38h
7fa5 ff        rst     38h
7fa6 ff        rst     38h
7fa7 ff        rst     38h
7fa8 ff        rst     38h
7fa9 ff        rst     38h
7faa ff        rst     38h
7fab ff        rst     38h
7fac ff        rst     38h
7fad ff        rst     38h
7fae ff        rst     38h
7faf ff        rst     38h
7fb0 ff        rst     38h
7fb1 ff        rst     38h
7fb2 ff        rst     38h
7fb3 ff        rst     38h
7fb4 ff        rst     38h
7fb5 ff        rst     38h
7fb6 ff        rst     38h
7fb7 ff        rst     38h
7fb8 ff        rst     38h
7fb9 ff        rst     38h
7fba ff        rst     38h
7fbb ff        rst     38h
7fbc ff        rst     38h
7fbd ff        rst     38h
7fbe ff        rst     38h
7fbf ff        rst     38h
7fc0 ff        rst     38h
7fc1 ff        rst     38h
7fc2 ff        rst     38h
7fc3 ff        rst     38h
7fc4 ff        rst     38h
7fc5 ff        rst     38h
7fc6 ff        rst     38h
7fc7 ff        rst     38h
7fc8 ff        rst     38h
7fc9 ff        rst     38h
7fca ff        rst     38h
7fcb ff        rst     38h
7fcc ff        rst     38h
7fcd ff        rst     38h
7fce ff        rst     38h
7fcf ff        rst     38h
7fd0 ff        rst     38h
7fd1 ff        rst     38h
7fd2 ff        rst     38h
7fd3 ff        rst     38h
7fd4 ff        rst     38h
7fd5 ff        rst     38h
7fd6 ff        rst     38h
7fd7 ff        rst     38h
7fd8 ff        rst     38h
7fd9 ff        rst     38h
7fda ff        rst     38h
7fdb ff        rst     38h
7fdc ff        rst     38h
7fdd ff        rst     38h
7fde ff        rst     38h
7fdf ff        rst     38h
7fe0 ff        rst     38h
7fe1 ff        rst     38h
7fe2 ff        rst     38h
7fe3 ff        rst     38h
7fe4 ff        rst     38h
7fe5 ff        rst     38h
7fe6 ff        rst     38h
7fe7 ff        rst     38h
7fe8 ff        rst     38h
7fe9 ff        rst     38h
7fea ff        rst     38h
7feb ff        rst     38h
7fec ff        rst     38h
7fed ff        rst     38h
7fee ff        rst     38h
7fef ff        rst     38h
7ff0 ff        rst     38h
7ff1 ff        rst     38h
7ff2 ff        rst     38h
7ff3 ff        rst     38h
7ff4 ff        rst     38h
7ff5 ff        rst     38h
7ff6 ff        rst     38h
7ff7 ff        rst     38h
7ff8 ff        rst     38h
7ff9 ff        rst     38h
7ffa ff        rst     38h
7ffb ff        rst     38h
7ffc ff        rst     38h
7ffd ff        rst     38h
7ffe ff        rst     38h
7fff ff        rst     38h
